                                      1 ;--------------------------------------------------------
                                      2 ; File Created by SDCC : free open source ANSI-C Compiler
                                      3 ; Version 3.9.4 #11422 (MINGW64)
                                      4 ;--------------------------------------------------------
                                      5 	.module eeprom
                                      6 	.optsdcc -mstm8
                                      7 	
                                      8 ;--------------------------------------------------------
                                      9 ; Public variables in this module
                                     10 ;--------------------------------------------------------
                                     11 	.globl _eeprom_write_variables
                                     12 	.globl _get_configuration_variables
                                     13 	.globl _FLASH_GetFlagStatus
                                     14 	.globl _FLASH_SetProgrammingTime
                                     15 	.globl _FLASH_ReadByte
                                     16 	.globl _FLASH_ProgramByte
                                     17 	.globl _FLASH_Lock
                                     18 	.globl _FLASH_Unlock
                                     19 	.globl _eeprom_init
                                     20 	.globl _eeprom_init_variables
                                     21 ;--------------------------------------------------------
                                     22 ; ram data
                                     23 ;--------------------------------------------------------
                                     24 	.area DATA
                           000000    25 Leeprom.eeprom_read_values_to_variables$ui8_temp$1_0$360==.
      000000                         26 _eeprom_read_values_to_variables_ui8_temp_65536_360:
      000000                         27 	.ds 1
                           000001    28 Leeprom.eeprom_read_values_to_variables$ui16_temp$1_0$360==.
      000001                         29 _eeprom_read_values_to_variables_ui16_temp_65536_360:
      000001                         30 	.ds 2
                                     31 ;--------------------------------------------------------
                                     32 ; ram data
                                     33 ;--------------------------------------------------------
                                     34 	.area INITIALIZED
                           000000    35 Feeprom$array_default_values$0_0$0==.
      000000                         36 _array_default_values:
      000000                         37 	.ds 47
                                     38 ;--------------------------------------------------------
                                     39 ; absolute external ram data
                                     40 ;--------------------------------------------------------
                                     41 	.area DABS (ABS)
                                     42 
                                     43 ; default segment ordering for linker
                                     44 	.area HOME
                                     45 	.area GSINIT
                                     46 	.area GSFINAL
                                     47 	.area CONST
                                     48 	.area INITIALIZER
                                     49 	.area CODE
                                     50 
                                     51 ;--------------------------------------------------------
                                     52 ; global & static initialisations
                                     53 ;--------------------------------------------------------
                                     54 	.area HOME
                                     55 	.area GSINIT
                                     56 	.area GSFINAL
                                     57 	.area GSINIT
                                     58 ;--------------------------------------------------------
                                     59 ; Home
                                     60 ;--------------------------------------------------------
                                     61 	.area HOME
                                     62 	.area HOME
                                     63 ;--------------------------------------------------------
                                     64 ; code
                                     65 ;--------------------------------------------------------
                                     66 	.area CODE
                           000000    67 	G$eeprom_init$0$0 ==.
                           000000    68 	C$eeprom.c$74$0_0$354 ==.
                                     69 ;	eeprom.c: 74: void eeprom_init(void)
                                     70 ;	-----------------------------------------
                                     71 ;	 function eeprom_init
                                     72 ;	-----------------------------------------
      000000                         73 _eeprom_init:
                           000000    74 	C$eeprom.c$81$1_0$354 ==.
                                     75 ;	eeprom.c: 81: ui8_key1 = FLASH_ReadByte(ADDR_KEY);
      000000 4B 00            [ 1]   76 	push	#0x00
      000002 4B 40            [ 1]   77 	push	#0x40
      000004 5F               [ 1]   78 	clrw	x
      000005 89               [ 2]   79 	pushw	x
      000006 CDr00r00         [ 4]   80 	call	_FLASH_ReadByte
      000009 5B 04            [ 2]   81 	addw	sp, #4
                           00000B    82 	C$eeprom.c$82$1_0$354 ==.
                                     83 ;	eeprom.c: 82: ui8_key2 = FLASH_ReadByte(ADDR_KEY2);
      00000B 88               [ 1]   84 	push	a
      00000C 4B 2E            [ 1]   85 	push	#0x2e
      00000E 4B 40            [ 1]   86 	push	#0x40
      000010 5F               [ 1]   87 	clrw	x
      000011 89               [ 2]   88 	pushw	x
      000012 CDr00r00         [ 4]   89 	call	_FLASH_ReadByte
      000015 5B 04            [ 2]   90 	addw	sp, #4
      000017 97               [ 1]   91 	ld	xl, a
      000018 84               [ 1]   92 	pop	a
                           000019    93 	C$eeprom.c$83$1_0$354 ==.
                                     94 ;	eeprom.c: 83: if((ui8_key1 != KEY)||(ui8_key2 != KEY2)) // verify if our keys exist
      000019 A1 AA            [ 1]   95 	cp	a, #0xaa
      00001B 26 05            [ 1]   96 	jrne	00101$
      00001D 9F               [ 1]   97 	ld	a, xl
      00001E A1 55            [ 1]   98 	cp	a, #0x55
      000020 27 09            [ 1]   99 	jreq	00104$
      000022                        100 00101$:
                           000022   101 	C$eeprom.c$85$2_0$355 ==.
                                    102 ;	eeprom.c: 85: eeprom_write_array(array_default_values);
      000022 4Br00            [ 1]  103 	push	#<(_array_default_values + 0)
      000024 4Bs00            [ 1]  104 	push	#((_array_default_values + 0) >> 8)
      000026 CDr07rAB         [ 4]  105 	call	_eeprom_write_array
      000029 5B 02            [ 2]  106 	addw	sp, #2
      00002B                        107 00104$:
                           00002B   108 	C$eeprom.c$87$1_0$354 ==.
                                    109 ;	eeprom.c: 87: }
                           00002B   110 	C$eeprom.c$87$1_0$354 ==.
                           00002B   111 	XG$eeprom_init$0$0 ==.
      00002B 81               [ 4]  112 	ret
                           00002C   113 	G$eeprom_init_variables$0$0 ==.
                           00002C   114 	C$eeprom.c$92$1_0$357 ==.
                                    115 ;	eeprom.c: 92: void eeprom_init_variables(void)
                                    116 ;	-----------------------------------------
                                    117 ;	 function eeprom_init_variables
                                    118 ;	-----------------------------------------
      00002C                        119 _eeprom_init_variables:
                           00002C   120 	C$eeprom.c$95$1_0$357 ==.
                                    121 ;	eeprom.c: 95: p_configuration_variables = get_configuration_variables();
      00002C CDr00r00         [ 4]  122 	call	_get_configuration_variables
      00002F 51               [ 1]  123 	exgw	x, y
                           000030   124 	C$eeprom.c$97$1_0$357 ==.
                                    125 ;	eeprom.c: 97: eeprom_read_values_to_variables();
      000030 90 89            [ 2]  126 	pushw	y
      000032 CDr00rA9         [ 4]  127 	call	_eeprom_read_values_to_variables
      000035 90 85            [ 2]  128 	popw	y
                           000037   129 	C$eeprom.c$101$1_0$357 ==.
                                    130 ;	eeprom.c: 101: if((p_configuration_variables->ui8_battery_max_current > 100)||
      000037 93               [ 1]  131 	ldw	x, y
      000038 E6 01            [ 1]  132 	ld	a, (0x1, x)
      00003A A1 64            [ 1]  133 	cp	a, #0x64
      00003C 23 03            [ 2]  134 	jrule	00170$
      00003E CCr00r9C         [ 2]  135 	jp	00101$
      000041                        136 00170$:
                           000041   137 	C$eeprom.c$102$1_0$357 ==.
                                    138 ;	eeprom.c: 102: (p_configuration_variables->ui8_motor_power_div10 > 195)||
      000041 93               [ 1]  139 	ldw	x, y
      000042 E6 02            [ 1]  140 	ld	a, (0x2, x)
      000044 A1 C3            [ 1]  141 	cp	a, #0xc3
      000046 23 03            [ 2]  142 	jrule	00171$
      000048 CCr00r9C         [ 2]  143 	jp	00101$
      00004B                        144 00171$:
                           00004B   145 	C$eeprom.c$103$1_0$357 ==.
                                    146 ;	eeprom.c: 103: (p_configuration_variables->ui16_battery_low_voltage_cut_off_x10 > 630)||
      00004B 93               [ 1]  147 	ldw	x, y
      00004C EE 03            [ 2]  148 	ldw	x, (0x3, x)
      00004E A3 02 76         [ 2]  149 	cpw	x, #0x0276
      000051 23 03            [ 2]  150 	jrule	00172$
      000053 CCr00r9C         [ 2]  151 	jp	00101$
      000056                        152 00172$:
                           000056   153 	C$eeprom.c$104$1_0$357 ==.
                                    154 ;	eeprom.c: 104: (p_configuration_variables->ui16_battery_low_voltage_cut_off_x10 < 160)||
      000056 A3 00 A0         [ 2]  155 	cpw	x, #0x00a0
      000059 25 41            [ 1]  156 	jrc	00101$
                           00005B   157 	C$eeprom.c$105$1_0$357 ==.
                                    158 ;	eeprom.c: 105: (p_configuration_variables->ui16_wheel_perimeter > 3000)||
      00005B 93               [ 1]  159 	ldw	x, y
      00005C EE 05            [ 2]  160 	ldw	x, (0x5, x)
      00005E A3 0B B8         [ 2]  161 	cpw	x, #0x0bb8
      000061 22 39            [ 1]  162 	jrugt	00101$
                           000063   163 	C$eeprom.c$106$1_0$357 ==.
                                    164 ;	eeprom.c: 106: (p_configuration_variables->ui16_wheel_perimeter < 750)||
      000063 A3 02 EE         [ 2]  165 	cpw	x, #0x02ee
      000066 25 34            [ 1]  166 	jrc	00101$
                           000068   167 	C$eeprom.c$107$1_0$357 ==.
                                    168 ;	eeprom.c: 107: (p_configuration_variables->ui8_battery_cells_number > 15)||
      000068 93               [ 1]  169 	ldw	x, y
      000069 E6 26            [ 1]  170 	ld	a, (0x26, x)
      00006B A1 0F            [ 1]  171 	cp	a, #0x0f
      00006D 22 2D            [ 1]  172 	jrugt	00101$
                           00006F   173 	C$eeprom.c$108$1_0$357 ==.
                                    174 ;	eeprom.c: 108: (p_configuration_variables->ui8_battery_cells_number < 6)||
      00006F A1 06            [ 1]  175 	cp	a, #0x06
      000071 25 29            [ 1]  176 	jrc	00101$
                           000073   177 	C$eeprom.c$109$1_0$357 ==.
                                    178 ;	eeprom.c: 109: (p_configuration_variables->ui8_assist_level_factor_x10 > 50)||
      000073 90 F6            [ 1]  179 	ld	a, (y)
      000075 A1 32            [ 1]  180 	cp	a, #0x32
      000077 22 23            [ 1]  181 	jrugt	00101$
                           000079   182 	C$eeprom.c$110$1_0$357 ==.
                                    183 ;	eeprom.c: 110: (p_configuration_variables->ui8_assist_level_power[0] > 50)||
      000079 93               [ 1]  184 	ldw	x, y
      00007A E6 2B            [ 1]  185 	ld	a, (0x2b, x)
      00007C A1 32            [ 1]  186 	cp	a, #0x32
      00007E 22 1C            [ 1]  187 	jrugt	00101$
                           000080   188 	C$eeprom.c$111$1_0$357 ==.
                                    189 ;	eeprom.c: 111: (p_configuration_variables->ui8_assist_level_power[1] > 50)||
      000080 93               [ 1]  190 	ldw	x, y
      000081 E6 2C            [ 1]  191 	ld	a, (0x2c, x)
      000083 A1 32            [ 1]  192 	cp	a, #0x32
      000085 22 15            [ 1]  193 	jrugt	00101$
                           000087   194 	C$eeprom.c$112$1_0$357 ==.
                                    195 ;	eeprom.c: 112: (p_configuration_variables->ui8_assist_level_power[2] > 50)||
      000087 93               [ 1]  196 	ldw	x, y
      000088 E6 2D            [ 1]  197 	ld	a, (0x2d, x)
      00008A A1 32            [ 1]  198 	cp	a, #0x32
      00008C 22 0E            [ 1]  199 	jrugt	00101$
                           00008E   200 	C$eeprom.c$113$1_0$357 ==.
                                    201 ;	eeprom.c: 113: (p_configuration_variables->ui8_assist_level_power[3] > 50)||
      00008E 93               [ 1]  202 	ldw	x, y
      00008F E6 2E            [ 1]  203 	ld	a, (0x2e, x)
      000091 A1 32            [ 1]  204 	cp	a, #0x32
      000093 22 07            [ 1]  205 	jrugt	00101$
                           000095   206 	C$eeprom.c$114$1_0$357 ==.
                                    207 ;	eeprom.c: 114: (p_configuration_variables->ui8_wheel_max_speed > 99))
      000095 90 E6 0C         [ 1]  208 	ld	a, (0xc, y)
      000098 A1 63            [ 1]  209 	cp	a, #0x63
      00009A 23 0C            [ 2]  210 	jrule	00116$
      00009C                        211 00101$:
                           00009C   212 	C$eeprom.c$116$2_0$358 ==.
                                    213 ;	eeprom.c: 116: eeprom_write_array(array_default_values);
      00009C 4Br00            [ 1]  214 	push	#<(_array_default_values + 0)
      00009E 4Bs00            [ 1]  215 	push	#((_array_default_values + 0) >> 8)
      0000A0 CDr07rAB         [ 4]  216 	call	_eeprom_write_array
      0000A3 5B 02            [ 2]  217 	addw	sp, #2
                           0000A5   218 	C$eeprom.c$117$2_0$358 ==.
                                    219 ;	eeprom.c: 117: eeprom_read_values_to_variables();
      0000A5 CDr00rA9         [ 4]  220 	call	_eeprom_read_values_to_variables
      0000A8                        221 00116$:
                           0000A8   222 	C$eeprom.c$119$1_0$357 ==.
                                    223 ;	eeprom.c: 119: }
                           0000A8   224 	C$eeprom.c$119$1_0$357 ==.
                           0000A8   225 	XG$eeprom_init_variables$0$0 ==.
      0000A8 81               [ 4]  226 	ret
                           0000A9   227 	Feeprom$eeprom_read_values_to_variables$0$0 ==.
                           0000A9   228 	C$eeprom.c$124$1_0$360 ==.
                                    229 ;	eeprom.c: 124: static void eeprom_read_values_to_variables(void)
                                    230 ;	-----------------------------------------
                                    231 ;	 function eeprom_read_values_to_variables
                                    232 ;	-----------------------------------------
      0000A9                        233 _eeprom_read_values_to_variables:
      0000A9 52 06            [ 2]  234 	sub	sp, #6
                           0000AB   235 	C$eeprom.c$130$1_0$360 ==.
                                    236 ;	eeprom.c: 130: p_configuration_variables = get_configuration_variables();
      0000AB CDr00r00         [ 4]  237 	call	_get_configuration_variables
      0000AE 1F 01            [ 2]  238 	ldw	(0x01, sp), x
                           0000B0   239 	C$eeprom.c$132$1_0$360 ==.
                                    240 ;	eeprom.c: 132: p_configuration_variables->ui8_assist_level_factor_x10 = FLASH_ReadByte(ADDR_ASSIST_LEVEL_FACTOR_X10);
      0000B0 4B 01            [ 1]  241 	push	#0x01
      0000B2 4B 40            [ 1]  242 	push	#0x40
      0000B4 5F               [ 1]  243 	clrw	x
      0000B5 89               [ 2]  244 	pushw	x
      0000B6 CDr00r00         [ 4]  245 	call	_FLASH_ReadByte
      0000B9 5B 04            [ 2]  246 	addw	sp, #4
      0000BB 1E 01            [ 2]  247 	ldw	x, (0x01, sp)
      0000BD F7               [ 1]  248 	ld	(x), a
                           0000BE   249 	C$eeprom.c$134$1_0$360 ==.
                                    250 ;	eeprom.c: 134: ui8_temp = FLASH_ReadByte(ADDR_CONFIG_0);
      0000BE 4B 02            [ 1]  251 	push	#0x02
      0000C0 4B 40            [ 1]  252 	push	#0x40
      0000C2 5F               [ 1]  253 	clrw	x
      0000C3 89               [ 2]  254 	pushw	x
      0000C4 CDr00r00         [ 4]  255 	call	_FLASH_ReadByte
      0000C7 5B 04            [ 2]  256 	addw	sp, #4
      0000C9 C7u00u00         [ 1]  257 	ld	_eeprom_read_values_to_variables_ui8_temp_65536_360+0, a
                           0000CC   258 	C$eeprom.c$135$1_0$360 ==.
                                    259 ;	eeprom.c: 135: p_configuration_variables->ui8_lights = ui8_temp & 1 ? 1 : 0;
      0000CC 16 01            [ 2]  260 	ldw	y, (0x01, sp)
      0000CE 72 A9 00 07      [ 2]  261 	addw	y, #0x0007
      0000D2 C6u00u00         [ 1]  262 	ld	a, _eeprom_read_values_to_variables_ui8_temp_65536_360+0
      0000D5 44               [ 1]  263 	srl	a
      0000D6 24 03            [ 1]  264 	jrnc	00103$
      0000D8 5F               [ 1]  265 	clrw	x
      0000D9 5C               [ 1]  266 	incw	x
      0000DA 21                     267 	.byte 0x21
      0000DB                        268 00103$:
      0000DB 5F               [ 1]  269 	clrw	x
      0000DC                        270 00104$:
      0000DC 9F               [ 1]  271 	ld	a, xl
      0000DD 90 F7            [ 1]  272 	ld	(y), a
                           0000DF   273 	C$eeprom.c$136$1_0$360 ==.
                                    274 ;	eeprom.c: 136: p_configuration_variables->ui8_walk_assist = ui8_temp & (1 << 1) ? 1 : 0;
      0000DF 16 01            [ 2]  275 	ldw	y, (0x01, sp)
      0000E1 72 A9 00 08      [ 2]  276 	addw	y, #0x0008
      0000E5 72 02u00u00 02   [ 2]  277 	btjt	_eeprom_read_values_to_variables_ui8_temp_65536_360+0, #1, 00135$
      0000EA 20 03            [ 2]  278 	jra	00105$
      0000EC                        279 00135$:
      0000EC 5F               [ 1]  280 	clrw	x
      0000ED 5C               [ 1]  281 	incw	x
      0000EE 21                     282 	.byte 0x21
      0000EF                        283 00105$:
      0000EF 5F               [ 1]  284 	clrw	x
      0000F0                        285 00106$:
      0000F0 9F               [ 1]  286 	ld	a, xl
      0000F1 90 F7            [ 1]  287 	ld	(y), a
                           0000F3   288 	C$eeprom.c$137$1_0$360 ==.
                                    289 ;	eeprom.c: 137: p_configuration_variables->ui8_offroad_mode = ui8_temp & (1 << 2) ? 1 : 0;
      0000F3 16 01            [ 2]  290 	ldw	y, (0x01, sp)
      0000F5 72 A9 00 09      [ 2]  291 	addw	y, #0x0009
      0000F9 72 04u00u00 02   [ 2]  292 	btjt	_eeprom_read_values_to_variables_ui8_temp_65536_360+0, #2, 00137$
      0000FE 20 03            [ 2]  293 	jra	00107$
      000100                        294 00137$:
      000100 5F               [ 1]  295 	clrw	x
      000101 5C               [ 1]  296 	incw	x
      000102 21                     297 	.byte 0x21
      000103                        298 00107$:
      000103 5F               [ 1]  299 	clrw	x
      000104                        300 00108$:
      000104 9F               [ 1]  301 	ld	a, xl
      000105 90 F7            [ 1]  302 	ld	(y), a
                           000107   303 	C$eeprom.c$138$1_0$360 ==.
                                    304 ;	eeprom.c: 138: p_configuration_variables->ui8_emtb_mode = ui8_temp & (1 << 3) ? 1 : 0;
      000107 16 01            [ 2]  305 	ldw	y, (0x01, sp)
      000109 72 A9 00 0A      [ 2]  306 	addw	y, #0x000a
      00010D 72 06u00u00 02   [ 2]  307 	btjt	_eeprom_read_values_to_variables_ui8_temp_65536_360+0, #3, 00139$
      000112 20 03            [ 2]  308 	jra	00109$
      000114                        309 00139$:
      000114 5F               [ 1]  310 	clrw	x
      000115 5C               [ 1]  311 	incw	x
      000116 21                     312 	.byte 0x21
      000117                        313 00109$:
      000117 5F               [ 1]  314 	clrw	x
      000118                        315 00110$:
      000118 9F               [ 1]  316 	ld	a, xl
      000119 90 F7            [ 1]  317 	ld	(y), a
                           00011B   318 	C$eeprom.c$139$1_0$360 ==.
                                    319 ;	eeprom.c: 139: p_configuration_variables->ui8_emtb_enabled_on_startup = ui8_temp & (1 << 4) ? 1 : 0;
      00011B 16 01            [ 2]  320 	ldw	y, (0x01, sp)
      00011D 72 A9 00 0B      [ 2]  321 	addw	y, #0x000b
      000121 72 08u00u00 02   [ 2]  322 	btjt	_eeprom_read_values_to_variables_ui8_temp_65536_360+0, #4, 00141$
      000126 20 03            [ 2]  323 	jra	00111$
      000128                        324 00141$:
      000128 5F               [ 1]  325 	clrw	x
      000129 5C               [ 1]  326 	incw	x
      00012A 21                     327 	.byte 0x21
      00012B                        328 00111$:
      00012B 5F               [ 1]  329 	clrw	x
      00012C                        330 00112$:
      00012C 9F               [ 1]  331 	ld	a, xl
      00012D 90 F7            [ 1]  332 	ld	(y), a
                           00012F   333 	C$eeprom.c$141$1_0$360 ==.
                                    334 ;	eeprom.c: 141: p_configuration_variables->ui8_battery_max_current = FLASH_ReadByte(ADDR_BATTERY_MAX_CURRENT);
      00012F 1E 01            [ 2]  335 	ldw	x, (0x01, sp)
      000131 5C               [ 1]  336 	incw	x
      000132 1F 05            [ 2]  337 	ldw	(0x05, sp), x
      000134 4B 03            [ 1]  338 	push	#0x03
      000136 4B 40            [ 1]  339 	push	#0x40
      000138 5F               [ 1]  340 	clrw	x
      000139 89               [ 2]  341 	pushw	x
      00013A CDr00r00         [ 4]  342 	call	_FLASH_ReadByte
      00013D 5B 04            [ 2]  343 	addw	sp, #4
      00013F 1E 05            [ 2]  344 	ldw	x, (0x05, sp)
      000141 F7               [ 1]  345 	ld	(x), a
                           000142   346 	C$eeprom.c$142$1_0$360 ==.
                                    347 ;	eeprom.c: 142: p_configuration_variables->ui8_motor_power_div10 = FLASH_ReadByte(MOTOR_MAX_POWER_DIV10);
      000142 1E 01            [ 2]  348 	ldw	x, (0x01, sp)
      000144 5C               [ 1]  349 	incw	x
      000145 5C               [ 1]  350 	incw	x
      000146 1F 05            [ 2]  351 	ldw	(0x05, sp), x
      000148 4B 19            [ 1]  352 	push	#0x19
      00014A 5F               [ 1]  353 	clrw	x
      00014B 89               [ 2]  354 	pushw	x
      00014C 4B 00            [ 1]  355 	push	#0x00
      00014E CDr00r00         [ 4]  356 	call	_FLASH_ReadByte
      000151 5B 04            [ 2]  357 	addw	sp, #4
      000153 1E 05            [ 2]  358 	ldw	x, (0x05, sp)
      000155 F7               [ 1]  359 	ld	(x), a
                           000156   360 	C$eeprom.c$144$1_0$360 ==.
                                    361 ;	eeprom.c: 144: ui16_temp = FLASH_ReadByte(ADDR_BATTERY_LOW_VOLTAGE_CUT_OFF_X10_0);
      000156 4B 05            [ 1]  362 	push	#0x05
      000158 4B 40            [ 1]  363 	push	#0x40
      00015A 5F               [ 1]  364 	clrw	x
      00015B 89               [ 2]  365 	pushw	x
      00015C CDr00r00         [ 4]  366 	call	_FLASH_ReadByte
      00015F 5B 04            [ 2]  367 	addw	sp, #4
      000161 5F               [ 1]  368 	clrw	x
      000162 97               [ 1]  369 	ld	xl, a
      000163 CFu00u01         [ 2]  370 	ldw	_eeprom_read_values_to_variables_ui16_temp_65536_360+0, x
                           000166   371 	C$eeprom.c$145$1_0$360 ==.
                                    372 ;	eeprom.c: 145: ui8_temp = FLASH_ReadByte(ADDR_BATTERY_LOW_VOLTAGE_CUT_OFF_X10_1);
      000166 4B 06            [ 1]  373 	push	#0x06
      000168 4B 40            [ 1]  374 	push	#0x40
      00016A 5F               [ 1]  375 	clrw	x
      00016B 89               [ 2]  376 	pushw	x
      00016C CDr00r00         [ 4]  377 	call	_FLASH_ReadByte
      00016F 5B 04            [ 2]  378 	addw	sp, #4
      000171 C7u00u00         [ 1]  379 	ld	_eeprom_read_values_to_variables_ui8_temp_65536_360+0, a
                           000174   380 	C$eeprom.c$146$1_0$360 ==.
                                    381 ;	eeprom.c: 146: ui16_temp += (((uint16_t) ui8_temp << 8) & 0xff00);
      000174 C6u00u00         [ 1]  382 	ld	a, _eeprom_read_values_to_variables_ui8_temp_65536_360+0
      000177 95               [ 1]  383 	ld	xh, a
      000178 4F               [ 1]  384 	clr	a
      000179 97               [ 1]  385 	ld	xl, a
      00017A 72 BBu00u01      [ 2]  386 	addw	x, _eeprom_read_values_to_variables_ui16_temp_65536_360+0
      00017E CFu00u01         [ 2]  387 	ldw	_eeprom_read_values_to_variables_ui16_temp_65536_360+0, x
                           000181   388 	C$eeprom.c$147$1_0$360 ==.
                                    389 ;	eeprom.c: 147: p_configuration_variables->ui16_battery_low_voltage_cut_off_x10 = ui16_temp;
      000181 1E 01            [ 2]  390 	ldw	x, (0x01, sp)
      000183 90 CEu00u01      [ 2]  391 	ldw	y, _eeprom_read_values_to_variables_ui16_temp_65536_360+0
      000187 EF 03            [ 2]  392 	ldw	(0x0003, x), y
                           000189   393 	C$eeprom.c$149$1_0$360 ==.
                                    394 ;	eeprom.c: 149: ui16_temp = FLASH_ReadByte(ADDR_WHEEL_PERIMETER_0);
      000189 4B 07            [ 1]  395 	push	#0x07
      00018B 4B 40            [ 1]  396 	push	#0x40
      00018D 5F               [ 1]  397 	clrw	x
      00018E 89               [ 2]  398 	pushw	x
      00018F CDr00r00         [ 4]  399 	call	_FLASH_ReadByte
      000192 5B 04            [ 2]  400 	addw	sp, #4
      000194 5F               [ 1]  401 	clrw	x
      000195 97               [ 1]  402 	ld	xl, a
      000196 CFu00u01         [ 2]  403 	ldw	_eeprom_read_values_to_variables_ui16_temp_65536_360+0, x
                           000199   404 	C$eeprom.c$150$1_0$360 ==.
                                    405 ;	eeprom.c: 150: ui8_temp = FLASH_ReadByte(ADDR_WHEEL_PERIMETER_1);
      000199 4B 08            [ 1]  406 	push	#0x08
      00019B 4B 40            [ 1]  407 	push	#0x40
      00019D 5F               [ 1]  408 	clrw	x
      00019E 89               [ 2]  409 	pushw	x
      00019F CDr00r00         [ 4]  410 	call	_FLASH_ReadByte
      0001A2 5B 04            [ 2]  411 	addw	sp, #4
      0001A4 C7u00u00         [ 1]  412 	ld	_eeprom_read_values_to_variables_ui8_temp_65536_360+0, a
                           0001A7   413 	C$eeprom.c$151$1_0$360 ==.
                                    414 ;	eeprom.c: 151: ui16_temp += (((uint16_t) ui8_temp << 8) & 0xff00);
      0001A7 C6u00u00         [ 1]  415 	ld	a, _eeprom_read_values_to_variables_ui8_temp_65536_360+0
      0001AA 95               [ 1]  416 	ld	xh, a
      0001AB 4F               [ 1]  417 	clr	a
      0001AC 97               [ 1]  418 	ld	xl, a
      0001AD 72 BBu00u01      [ 2]  419 	addw	x, _eeprom_read_values_to_variables_ui16_temp_65536_360+0
      0001B1 CFu00u01         [ 2]  420 	ldw	_eeprom_read_values_to_variables_ui16_temp_65536_360+0, x
                           0001B4   421 	C$eeprom.c$152$1_0$360 ==.
                                    422 ;	eeprom.c: 152: p_configuration_variables->ui16_wheel_perimeter = ui16_temp;
      0001B4 1E 01            [ 2]  423 	ldw	x, (0x01, sp)
      0001B6 90 CEu00u01      [ 2]  424 	ldw	y, _eeprom_read_values_to_variables_ui16_temp_65536_360+0
      0001BA EF 05            [ 2]  425 	ldw	(0x0005, x), y
                           0001BC   426 	C$eeprom.c$154$1_0$360 ==.
                                    427 ;	eeprom.c: 154: p_configuration_variables->ui8_wheel_max_speed = FLASH_ReadByte(ADDR_WHEEL_MAX_SPEED);
      0001BC 1E 01            [ 2]  428 	ldw	x, (0x01, sp)
      0001BE 1C 00 0C         [ 2]  429 	addw	x, #0x000c
      0001C1 89               [ 2]  430 	pushw	x
      0001C2 4B 09            [ 1]  431 	push	#0x09
      0001C4 4B 40            [ 1]  432 	push	#0x40
      0001C6 4B 00            [ 1]  433 	push	#0x00
      0001C8 4B 00            [ 1]  434 	push	#0x00
      0001CA CDr00r00         [ 4]  435 	call	_FLASH_ReadByte
      0001CD 5B 04            [ 2]  436 	addw	sp, #4
      0001CF 85               [ 2]  437 	popw	x
      0001D0 F7               [ 1]  438 	ld	(x), a
                           0001D1   439 	C$eeprom.c$156$1_0$360 ==.
                                    440 ;	eeprom.c: 156: ui8_temp = FLASH_ReadByte(ADDR_CONFIG_1);
      0001D1 4B 0A            [ 1]  441 	push	#0x0a
      0001D3 4B 40            [ 1]  442 	push	#0x40
      0001D5 5F               [ 1]  443 	clrw	x
      0001D6 89               [ 2]  444 	pushw	x
      0001D7 CDr00r00         [ 4]  445 	call	_FLASH_ReadByte
      0001DA 5B 04            [ 2]  446 	addw	sp, #4
      0001DC C7u00u00         [ 1]  447 	ld	_eeprom_read_values_to_variables_ui8_temp_65536_360+0, a
                           0001DF   448 	C$eeprom.c$157$1_0$360 ==.
                                    449 ;	eeprom.c: 157: p_configuration_variables->ui8_motor_type = ui8_temp & 3;
      0001DF 1E 01            [ 2]  450 	ldw	x, (0x01, sp)
      0001E1 1C 00 0D         [ 2]  451 	addw	x, #0x000d
      0001E4 C6u00u00         [ 1]  452 	ld	a, _eeprom_read_values_to_variables_ui8_temp_65536_360+0
      0001E7 A4 03            [ 1]  453 	and	a, #0x03
      0001E9 F7               [ 1]  454 	ld	(x), a
                           0001EA   455 	C$eeprom.c$158$1_0$360 ==.
                                    456 ;	eeprom.c: 158: p_configuration_variables->ui8_motor_assistance_startup_without_pedal_rotation = (ui8_temp & 4) >> 2;
      0001EA 16 01            [ 2]  457 	ldw	y, (0x01, sp)
      0001EC 72 A9 00 0E      [ 2]  458 	addw	y, #0x000e
      0001F0 C6u00u00         [ 1]  459 	ld	a, _eeprom_read_values_to_variables_ui8_temp_65536_360+0
      0001F3 6B 06            [ 1]  460 	ld	(0x06, sp), a
      0001F5 0F 05            [ 1]  461 	clr	(0x05, sp)
      0001F7 7B 06            [ 1]  462 	ld	a, (0x06, sp)
      0001F9 A4 04            [ 1]  463 	and	a, #0x04
      0001FB 97               [ 1]  464 	ld	xl, a
      0001FC 4F               [ 1]  465 	clr	a
      0001FD 95               [ 1]  466 	ld	xh, a
      0001FE 57               [ 2]  467 	sraw	x
      0001FF 57               [ 2]  468 	sraw	x
      000200 9F               [ 1]  469 	ld	a, xl
      000201 90 F7            [ 1]  470 	ld	(y), a
                           000203   471 	C$eeprom.c$160$1_0$360 ==.
                                    472 ;	eeprom.c: 160: ui8_temp = FLASH_ReadByte(ADDR_STREET_CONFIG);
      000203 4B 0B            [ 1]  473 	push	#0x0b
      000205 4B 40            [ 1]  474 	push	#0x40
      000207 5F               [ 1]  475 	clrw	x
      000208 89               [ 2]  476 	pushw	x
      000209 CDr00r00         [ 4]  477 	call	_FLASH_ReadByte
      00020C 5B 04            [ 2]  478 	addw	sp, #4
      00020E C7u00u00         [ 1]  479 	ld	_eeprom_read_values_to_variables_ui8_temp_65536_360+0, a
                           000211   480 	C$eeprom.c$161$1_0$360 ==.
                                    481 ;	eeprom.c: 161: p_configuration_variables->ui8_street_feature_enabled = ui8_temp & 1;
      000211 1E 01            [ 2]  482 	ldw	x, (0x01, sp)
      000213 1C 00 1E         [ 2]  483 	addw	x, #0x001e
      000216 C6u00u00         [ 1]  484 	ld	a, _eeprom_read_values_to_variables_ui8_temp_65536_360+0
      000219 A4 01            [ 1]  485 	and	a, #0x01
      00021B F7               [ 1]  486 	ld	(x), a
                           00021C   487 	C$eeprom.c$162$1_0$360 ==.
                                    488 ;	eeprom.c: 162: p_configuration_variables->ui8_street_enabled_on_startup = ui8_temp & (1 << 1);
      00021C 1E 01            [ 2]  489 	ldw	x, (0x01, sp)
      00021E 1C 00 1F         [ 2]  490 	addw	x, #0x001f
      000221 C6u00u00         [ 1]  491 	ld	a, _eeprom_read_values_to_variables_ui8_temp_65536_360+0
      000224 A4 02            [ 1]  492 	and	a, #0x02
      000226 F7               [ 1]  493 	ld	(x), a
                           000227   494 	C$eeprom.c$163$1_0$360 ==.
                                    495 ;	eeprom.c: 163: p_configuration_variables->ui8_street_power_limit_enabled = ui8_temp & (1 << 2);
      000227 1E 01            [ 2]  496 	ldw	x, (0x01, sp)
      000229 1C 00 21         [ 2]  497 	addw	x, #0x0021
      00022C C6u00u00         [ 1]  498 	ld	a, _eeprom_read_values_to_variables_ui8_temp_65536_360+0
      00022F A4 04            [ 1]  499 	and	a, #0x04
      000231 F7               [ 1]  500 	ld	(x), a
                           000232   501 	C$eeprom.c$165$1_0$360 ==.
                                    502 ;	eeprom.c: 165: p_configuration_variables->ui8_street_speed_limit = FLASH_ReadByte(ADDR_STREET_SPEED_LIMIT);
      000232 1E 01            [ 2]  503 	ldw	x, (0x01, sp)
      000234 1C 00 20         [ 2]  504 	addw	x, #0x0020
      000237 89               [ 2]  505 	pushw	x
      000238 4B 0C            [ 1]  506 	push	#0x0c
      00023A 4B 40            [ 1]  507 	push	#0x40
      00023C 4B 00            [ 1]  508 	push	#0x00
      00023E 4B 00            [ 1]  509 	push	#0x00
      000240 CDr00r00         [ 4]  510 	call	_FLASH_ReadByte
      000243 5B 04            [ 2]  511 	addw	sp, #4
      000245 85               [ 2]  512 	popw	x
      000246 F7               [ 1]  513 	ld	(x), a
                           000247   514 	C$eeprom.c$166$1_0$360 ==.
                                    515 ;	eeprom.c: 166: p_configuration_variables->ui8_street_power_limit_div25 = FLASH_ReadByte(ADDR_STREET_POWER_LIMIT_DIV25);
      000247 1E 01            [ 2]  516 	ldw	x, (0x01, sp)
      000249 1C 00 22         [ 2]  517 	addw	x, #0x0022
      00024C 89               [ 2]  518 	pushw	x
      00024D 4B 0D            [ 1]  519 	push	#0x0d
      00024F 4B 40            [ 1]  520 	push	#0x40
      000251 4B 00            [ 1]  521 	push	#0x00
      000253 4B 00            [ 1]  522 	push	#0x00
      000255 CDr00r00         [ 4]  523 	call	_FLASH_ReadByte
      000258 5B 04            [ 2]  524 	addw	sp, #4
      00025A 85               [ 2]  525 	popw	x
      00025B F7               [ 1]  526 	ld	(x), a
                           00025C   527 	C$eeprom.c$168$1_0$360 ==.
                                    528 ;	eeprom.c: 168: p_configuration_variables->ui8_battery_cells_number = FLASH_ReadByte(ADDR_BATTERY_CELLS_NUMBER);
      00025C 1E 01            [ 2]  529 	ldw	x, (0x01, sp)
      00025E 1C 00 26         [ 2]  530 	addw	x, #0x0026
      000261 89               [ 2]  531 	pushw	x
      000262 4B 0E            [ 1]  532 	push	#0x0e
      000264 4B 40            [ 1]  533 	push	#0x40
      000266 4B 00            [ 1]  534 	push	#0x00
      000268 4B 00            [ 1]  535 	push	#0x00
      00026A CDr00r00         [ 4]  536 	call	_FLASH_ReadByte
      00026D 5B 04            [ 2]  537 	addw	sp, #4
      00026F 85               [ 2]  538 	popw	x
      000270 F7               [ 1]  539 	ld	(x), a
                           000271   540 	C$eeprom.c$170$1_0$360 ==.
                                    541 ;	eeprom.c: 170: ui16_temp = FLASH_ReadByte(ADDR_BATTERY_PACK_RESISTANCE_0);
      000271 4B 0F            [ 1]  542 	push	#0x0f
      000273 4B 40            [ 1]  543 	push	#0x40
      000275 5F               [ 1]  544 	clrw	x
      000276 89               [ 2]  545 	pushw	x
      000277 CDr00r00         [ 4]  546 	call	_FLASH_ReadByte
      00027A 5B 04            [ 2]  547 	addw	sp, #4
      00027C 5F               [ 1]  548 	clrw	x
      00027D 97               [ 1]  549 	ld	xl, a
      00027E CFu00u01         [ 2]  550 	ldw	_eeprom_read_values_to_variables_ui16_temp_65536_360+0, x
                           000281   551 	C$eeprom.c$171$1_0$360 ==.
                                    552 ;	eeprom.c: 171: ui8_temp = FLASH_ReadByte(ADDR_BATTERY_PACK_RESISTANCE_1);
      000281 4B 10            [ 1]  553 	push	#0x10
      000283 4B 40            [ 1]  554 	push	#0x40
      000285 5F               [ 1]  555 	clrw	x
      000286 89               [ 2]  556 	pushw	x
      000287 CDr00r00         [ 4]  557 	call	_FLASH_ReadByte
      00028A 5B 04            [ 2]  558 	addw	sp, #4
      00028C C7u00u00         [ 1]  559 	ld	_eeprom_read_values_to_variables_ui8_temp_65536_360+0, a
                           00028F   560 	C$eeprom.c$172$1_0$360 ==.
                                    561 ;	eeprom.c: 172: ui16_temp += (((uint16_t) ui8_temp << 8) & 0xff00);
      00028F C6u00u00         [ 1]  562 	ld	a, _eeprom_read_values_to_variables_ui8_temp_65536_360+0
      000292 95               [ 1]  563 	ld	xh, a
      000293 4F               [ 1]  564 	clr	a
      000294 97               [ 1]  565 	ld	xl, a
      000295 72 BBu00u01      [ 2]  566 	addw	x, _eeprom_read_values_to_variables_ui16_temp_65536_360+0
      000299 CFu00u01         [ 2]  567 	ldw	_eeprom_read_values_to_variables_ui16_temp_65536_360+0, x
                           00029C   568 	C$eeprom.c$173$1_0$360 ==.
                                    569 ;	eeprom.c: 173: p_configuration_variables->ui16_battery_pack_resistance_x1000 = ui16_temp;
      00029C 1E 01            [ 2]  570 	ldw	x, (0x01, sp)
      00029E 90 CEu00u01      [ 2]  571 	ldw	y, _eeprom_read_values_to_variables_ui16_temp_65536_360+0
      0002A2 EF 27            [ 2]  572 	ldw	(0x0027, x), y
                           0002A4   573 	C$eeprom.c$175$1_0$360 ==.
                                    574 ;	eeprom.c: 175: ui16_temp = FLASH_ReadByte(ADDR_OEM_WHEEL_SPEED_DIVISOR_0);
      0002A4 4B 11            [ 1]  575 	push	#0x11
      0002A6 4B 40            [ 1]  576 	push	#0x40
      0002A8 5F               [ 1]  577 	clrw	x
      0002A9 89               [ 2]  578 	pushw	x
      0002AA CDr00r00         [ 4]  579 	call	_FLASH_ReadByte
      0002AD 5B 04            [ 2]  580 	addw	sp, #4
      0002AF 5F               [ 1]  581 	clrw	x
      0002B0 97               [ 1]  582 	ld	xl, a
      0002B1 CFu00u01         [ 2]  583 	ldw	_eeprom_read_values_to_variables_ui16_temp_65536_360+0, x
                           0002B4   584 	C$eeprom.c$176$1_0$360 ==.
                                    585 ;	eeprom.c: 176: ui8_temp = FLASH_ReadByte(ADDR_OEM_WHEEL_SPEED_DIVISOR_1);
      0002B4 4B 12            [ 1]  586 	push	#0x12
      0002B6 4B 40            [ 1]  587 	push	#0x40
      0002B8 5F               [ 1]  588 	clrw	x
      0002B9 89               [ 2]  589 	pushw	x
      0002BA CDr00r00         [ 4]  590 	call	_FLASH_ReadByte
      0002BD 5B 04            [ 2]  591 	addw	sp, #4
      0002BF C7u00u00         [ 1]  592 	ld	_eeprom_read_values_to_variables_ui8_temp_65536_360+0, a
                           0002C2   593 	C$eeprom.c$177$1_0$360 ==.
                                    594 ;	eeprom.c: 177: ui16_temp += (((uint16_t) ui8_temp << 8) & 0xff00);
      0002C2 C6u00u00         [ 1]  595 	ld	a, _eeprom_read_values_to_variables_ui8_temp_65536_360+0
      0002C5 95               [ 1]  596 	ld	xh, a
      0002C6 4F               [ 1]  597 	clr	a
      0002C7 97               [ 1]  598 	ld	xl, a
      0002C8 72 BBu00u01      [ 2]  599 	addw	x, _eeprom_read_values_to_variables_ui16_temp_65536_360+0
      0002CC CFu00u01         [ 2]  600 	ldw	_eeprom_read_values_to_variables_ui16_temp_65536_360+0, x
                           0002CF   601 	C$eeprom.c$178$1_0$360 ==.
                                    602 ;	eeprom.c: 178: p_configuration_variables->ui16_oem_wheel_speed_factor = ui16_temp;
      0002CF 1E 01            [ 2]  603 	ldw	x, (0x01, sp)
      0002D1 90 CEu00u01      [ 2]  604 	ldw	y, _eeprom_read_values_to_variables_ui16_temp_65536_360+0
      0002D5 EF 29            [ 2]  605 	ldw	(0x0029, x), y
                           0002D7   606 	C$eeprom.c$180$1_0$360 ==.
                                    607 ;	eeprom.c: 180: p_configuration_variables->ui8_assist_level_power[0] = FLASH_ReadByte(ADDR_ASSIST_LEVEL_FACTOR_1);
      0002D7 1E 01            [ 2]  608 	ldw	x, (0x01, sp)
      0002D9 1C 00 2B         [ 2]  609 	addw	x, #0x002b
      0002DC 89               [ 2]  610 	pushw	x
      0002DD 4B 13            [ 1]  611 	push	#0x13
      0002DF 4B 40            [ 1]  612 	push	#0x40
      0002E1 4B 00            [ 1]  613 	push	#0x00
      0002E3 4B 00            [ 1]  614 	push	#0x00
      0002E5 CDr00r00         [ 4]  615 	call	_FLASH_ReadByte
      0002E8 5B 04            [ 2]  616 	addw	sp, #4
      0002EA 85               [ 2]  617 	popw	x
      0002EB F7               [ 1]  618 	ld	(x), a
                           0002EC   619 	C$eeprom.c$181$1_0$360 ==.
                                    620 ;	eeprom.c: 181: p_configuration_variables->ui8_assist_level_power[1] = FLASH_ReadByte(ADDR_ASSIST_LEVEL_FACTOR_2);
      0002EC 1E 01            [ 2]  621 	ldw	x, (0x01, sp)
      0002EE 1C 00 2B         [ 2]  622 	addw	x, #0x002b
      0002F1 1F 03            [ 2]  623 	ldw	(0x03, sp), x
      0002F3 5C               [ 1]  624 	incw	x
      0002F4 1F 05            [ 2]  625 	ldw	(0x05, sp), x
      0002F6 4B 14            [ 1]  626 	push	#0x14
      0002F8 4B 40            [ 1]  627 	push	#0x40
      0002FA 5F               [ 1]  628 	clrw	x
      0002FB 89               [ 2]  629 	pushw	x
      0002FC CDr00r00         [ 4]  630 	call	_FLASH_ReadByte
      0002FF 5B 04            [ 2]  631 	addw	sp, #4
      000301 1E 05            [ 2]  632 	ldw	x, (0x05, sp)
      000303 F7               [ 1]  633 	ld	(x), a
                           000304   634 	C$eeprom.c$182$1_0$360 ==.
                                    635 ;	eeprom.c: 182: p_configuration_variables->ui8_assist_level_power[2] = FLASH_ReadByte(ADDR_ASSIST_LEVEL_FACTOR_3);
      000304 1E 03            [ 2]  636 	ldw	x, (0x03, sp)
      000306 5C               [ 1]  637 	incw	x
      000307 5C               [ 1]  638 	incw	x
      000308 1F 05            [ 2]  639 	ldw	(0x05, sp), x
      00030A 4B 15            [ 1]  640 	push	#0x15
      00030C 4B 40            [ 1]  641 	push	#0x40
      00030E 5F               [ 1]  642 	clrw	x
      00030F 89               [ 2]  643 	pushw	x
      000310 CDr00r00         [ 4]  644 	call	_FLASH_ReadByte
      000313 5B 04            [ 2]  645 	addw	sp, #4
      000315 1E 05            [ 2]  646 	ldw	x, (0x05, sp)
      000317 F7               [ 1]  647 	ld	(x), a
                           000318   648 	C$eeprom.c$183$1_0$360 ==.
                                    649 ;	eeprom.c: 183: p_configuration_variables->ui8_assist_level_power[3] = FLASH_ReadByte(ADDR_ASSIST_LEVEL_FACTOR_4);
      000318 1E 03            [ 2]  650 	ldw	x, (0x03, sp)
      00031A 1C 00 03         [ 2]  651 	addw	x, #0x0003
      00031D 89               [ 2]  652 	pushw	x
      00031E 4B 16            [ 1]  653 	push	#0x16
      000320 4B 40            [ 1]  654 	push	#0x40
      000322 4B 00            [ 1]  655 	push	#0x00
      000324 4B 00            [ 1]  656 	push	#0x00
      000326 CDr00r00         [ 4]  657 	call	_FLASH_ReadByte
      000329 5B 04            [ 2]  658 	addw	sp, #4
      00032B 85               [ 2]  659 	popw	x
      00032C F7               [ 1]  660 	ld	(x), a
                           00032D   661 	C$eeprom.c$185$1_0$360 ==.
                                    662 ;	eeprom.c: 185: p_configuration_variables->ui8_startup_motor_power_boost_state = FLASH_ReadByte(ADDR_STARTUP_MOTOR_POWER_BOOST_STATE);
      00032D 1E 01            [ 2]  663 	ldw	x, (0x01, sp)
      00032F 1C 00 13         [ 2]  664 	addw	x, #0x0013
      000332 89               [ 2]  665 	pushw	x
      000333 4B 17            [ 1]  666 	push	#0x17
      000335 4B 40            [ 1]  667 	push	#0x40
      000337 4B 00            [ 1]  668 	push	#0x00
      000339 4B 00            [ 1]  669 	push	#0x00
      00033B CDr00r00         [ 4]  670 	call	_FLASH_ReadByte
      00033E 5B 04            [ 2]  671 	addw	sp, #4
      000340 85               [ 2]  672 	popw	x
      000341 F7               [ 1]  673 	ld	(x), a
                           000342   674 	C$eeprom.c$186$1_0$360 ==.
                                    675 ;	eeprom.c: 186: p_configuration_variables->ui8_startup_motor_power_boost_feature_enabled = FLASH_ReadByte(ADDR_STARTUP_MOTOR_POWER_BOOST_FEATURE_ENABLED);
      000342 1E 01            [ 2]  676 	ldw	x, (0x01, sp)
      000344 1C 00 11         [ 2]  677 	addw	x, #0x0011
      000347 89               [ 2]  678 	pushw	x
      000348 4B 18            [ 1]  679 	push	#0x18
      00034A 4B 40            [ 1]  680 	push	#0x40
      00034C 4B 00            [ 1]  681 	push	#0x00
      00034E 4B 00            [ 1]  682 	push	#0x00
      000350 CDr00r00         [ 4]  683 	call	_FLASH_ReadByte
      000353 5B 04            [ 2]  684 	addw	sp, #4
      000355 85               [ 2]  685 	popw	x
      000356 F7               [ 1]  686 	ld	(x), a
                           000357   687 	C$eeprom.c$187$1_0$360 ==.
                                    688 ;	eeprom.c: 187: p_configuration_variables->ui8_startup_motor_power_boost[0] = FLASH_ReadByte(ADDR_STARTUP_MOTOR_POWER_BOOST_ASSIST_LEVEL_1);
      000357 1E 01            [ 2]  689 	ldw	x, (0x01, sp)
      000359 1C 00 30         [ 2]  690 	addw	x, #0x0030
      00035C 89               [ 2]  691 	pushw	x
      00035D 4B 19            [ 1]  692 	push	#0x19
      00035F 4B 40            [ 1]  693 	push	#0x40
      000361 4B 00            [ 1]  694 	push	#0x00
      000363 4B 00            [ 1]  695 	push	#0x00
      000365 CDr00r00         [ 4]  696 	call	_FLASH_ReadByte
      000368 5B 04            [ 2]  697 	addw	sp, #4
      00036A 85               [ 2]  698 	popw	x
      00036B F7               [ 1]  699 	ld	(x), a
                           00036C   700 	C$eeprom.c$188$1_0$360 ==.
                                    701 ;	eeprom.c: 188: p_configuration_variables->ui8_startup_motor_power_boost[1] = FLASH_ReadByte(ADDR_STARTUP_MOTOR_POWER_BOOST_ASSIST_LEVEL_2);
      00036C 1E 01            [ 2]  702 	ldw	x, (0x01, sp)
      00036E 1C 00 30         [ 2]  703 	addw	x, #0x0030
      000371 1F 03            [ 2]  704 	ldw	(0x03, sp), x
      000373 5C               [ 1]  705 	incw	x
      000374 1F 05            [ 2]  706 	ldw	(0x05, sp), x
      000376 4B 1A            [ 1]  707 	push	#0x1a
      000378 4B 40            [ 1]  708 	push	#0x40
      00037A 5F               [ 1]  709 	clrw	x
      00037B 89               [ 2]  710 	pushw	x
      00037C CDr00r00         [ 4]  711 	call	_FLASH_ReadByte
      00037F 5B 04            [ 2]  712 	addw	sp, #4
      000381 1E 05            [ 2]  713 	ldw	x, (0x05, sp)
      000383 F7               [ 1]  714 	ld	(x), a
                           000384   715 	C$eeprom.c$189$1_0$360 ==.
                                    716 ;	eeprom.c: 189: p_configuration_variables->ui8_startup_motor_power_boost[2] = FLASH_ReadByte(ADDR_STARTUP_MOTOR_POWER_BOOST_ASSIST_LEVEL_3);
      000384 1E 03            [ 2]  717 	ldw	x, (0x03, sp)
      000386 5C               [ 1]  718 	incw	x
      000387 5C               [ 1]  719 	incw	x
      000388 1F 05            [ 2]  720 	ldw	(0x05, sp), x
      00038A 4B 1B            [ 1]  721 	push	#0x1b
      00038C 4B 40            [ 1]  722 	push	#0x40
      00038E 5F               [ 1]  723 	clrw	x
      00038F 89               [ 2]  724 	pushw	x
      000390 CDr00r00         [ 4]  725 	call	_FLASH_ReadByte
      000393 5B 04            [ 2]  726 	addw	sp, #4
      000395 1E 05            [ 2]  727 	ldw	x, (0x05, sp)
      000397 F7               [ 1]  728 	ld	(x), a
                           000398   729 	C$eeprom.c$190$1_0$360 ==.
                                    730 ;	eeprom.c: 190: p_configuration_variables->ui8_startup_motor_power_boost[3] = FLASH_ReadByte(ADDR_STARTUP_MOTOR_POWER_BOOST_ASSIST_LEVEL_4);
      000398 1E 03            [ 2]  731 	ldw	x, (0x03, sp)
      00039A 1C 00 03         [ 2]  732 	addw	x, #0x0003
      00039D 89               [ 2]  733 	pushw	x
      00039E 4B 1C            [ 1]  734 	push	#0x1c
      0003A0 4B 40            [ 1]  735 	push	#0x40
      0003A2 4B 00            [ 1]  736 	push	#0x00
      0003A4 4B 00            [ 1]  737 	push	#0x00
      0003A6 CDr00r00         [ 4]  738 	call	_FLASH_ReadByte
      0003A9 5B 04            [ 2]  739 	addw	sp, #4
      0003AB 85               [ 2]  740 	popw	x
      0003AC F7               [ 1]  741 	ld	(x), a
                           0003AD   742 	C$eeprom.c$191$1_0$360 ==.
                                    743 ;	eeprom.c: 191: p_configuration_variables->ui8_startup_motor_power_boost_time = FLASH_ReadByte(ADDR_STARTUP_MOTOR_POWER_BOOST_TIME);
      0003AD 1E 01            [ 2]  744 	ldw	x, (0x01, sp)
      0003AF 1C 00 15         [ 2]  745 	addw	x, #0x0015
      0003B2 89               [ 2]  746 	pushw	x
      0003B3 4B 1D            [ 1]  747 	push	#0x1d
      0003B5 4B 40            [ 1]  748 	push	#0x40
      0003B7 4B 00            [ 1]  749 	push	#0x00
      0003B9 4B 00            [ 1]  750 	push	#0x00
      0003BB CDr00r00         [ 4]  751 	call	_FLASH_ReadByte
      0003BE 5B 04            [ 2]  752 	addw	sp, #4
      0003C0 85               [ 2]  753 	popw	x
      0003C1 F7               [ 1]  754 	ld	(x), a
                           0003C2   755 	C$eeprom.c$192$1_0$360 ==.
                                    756 ;	eeprom.c: 192: p_configuration_variables->ui8_startup_motor_power_boost_fade_time = FLASH_ReadByte(ADDR_STARTUP_MOTOR_POWER_BOOST_FADE_TIME);
      0003C2 1E 01            [ 2]  757 	ldw	x, (0x01, sp)
      0003C4 1C 00 16         [ 2]  758 	addw	x, #0x0016
      0003C7 89               [ 2]  759 	pushw	x
      0003C8 4B 1E            [ 1]  760 	push	#0x1e
      0003CA 4B 40            [ 1]  761 	push	#0x40
      0003CC 4B 00            [ 1]  762 	push	#0x00
      0003CE 4B 00            [ 1]  763 	push	#0x00
      0003D0 CDr00r00         [ 4]  764 	call	_FLASH_ReadByte
      0003D3 5B 04            [ 2]  765 	addw	sp, #4
      0003D5 85               [ 2]  766 	popw	x
      0003D6 F7               [ 1]  767 	ld	(x), a
                           0003D7   768 	C$eeprom.c$193$1_0$360 ==.
                                    769 ;	eeprom.c: 193: p_configuration_variables->ui8_startup_motor_power_boost_limit_to_max_power = FLASH_ReadByte(ADDR_STARTUP_MOTOR_POWER_BOOST_LIMIT_MAX_POWER);
      0003D7 1E 01            [ 2]  770 	ldw	x, (0x01, sp)
      0003D9 1C 00 14         [ 2]  771 	addw	x, #0x0014
      0003DC 89               [ 2]  772 	pushw	x
      0003DD 4B 1F            [ 1]  773 	push	#0x1f
      0003DF 4B 40            [ 1]  774 	push	#0x40
      0003E1 4B 00            [ 1]  775 	push	#0x00
      0003E3 4B 00            [ 1]  776 	push	#0x00
      0003E5 CDr00r00         [ 4]  777 	call	_FLASH_ReadByte
      0003E8 5B 04            [ 2]  778 	addw	sp, #4
      0003EA 85               [ 2]  779 	popw	x
      0003EB F7               [ 1]  780 	ld	(x), a
                           0003EC   781 	C$eeprom.c$195$1_0$360 ==.
                                    782 ;	eeprom.c: 195: p_configuration_variables->ui8_target_battery_max_power_div25 = FLASH_ReadByte(ADDR_TARGET_MAX_BATTERY_POWER_DIV25);
      0003EC 1E 01            [ 2]  783 	ldw	x, (0x01, sp)
      0003EE 1C 00 0F         [ 2]  784 	addw	x, #0x000f
      0003F1 89               [ 2]  785 	pushw	x
      0003F2 4B 20            [ 1]  786 	push	#0x20
      0003F4 4B 40            [ 1]  787 	push	#0x40
      0003F6 4B 00            [ 1]  788 	push	#0x00
      0003F8 4B 00            [ 1]  789 	push	#0x00
      0003FA CDr00r00         [ 4]  790 	call	_FLASH_ReadByte
      0003FD 5B 04            [ 2]  791 	addw	sp, #4
      0003FF 85               [ 2]  792 	popw	x
      000400 F7               [ 1]  793 	ld	(x), a
                           000401   794 	C$eeprom.c$197$1_0$360 ==.
                                    795 ;	eeprom.c: 197: p_configuration_variables->ui8_temperature_limit_feature_enabled = FLASH_ReadByte(ADDR_TEMPERATURE_LIMIT_FEATURE_ENABLED);
      000401 1E 01            [ 2]  796 	ldw	x, (0x01, sp)
      000403 1C 00 17         [ 2]  797 	addw	x, #0x0017
      000406 89               [ 2]  798 	pushw	x
      000407 4B 21            [ 1]  799 	push	#0x21
      000409 4B 40            [ 1]  800 	push	#0x40
      00040B 4B 00            [ 1]  801 	push	#0x00
      00040D 4B 00            [ 1]  802 	push	#0x00
      00040F CDr00r00         [ 4]  803 	call	_FLASH_ReadByte
      000412 5B 04            [ 2]  804 	addw	sp, #4
      000414 85               [ 2]  805 	popw	x
      000415 F7               [ 1]  806 	ld	(x), a
                           000416   807 	C$eeprom.c$198$1_0$360 ==.
                                    808 ;	eeprom.c: 198: p_configuration_variables->ui8_motor_temperature_min_value_to_limit = FLASH_ReadByte(ADDR_MOTOR_TEMPERATURE_MIN_VALUE_LIMIT);
      000416 1E 01            [ 2]  809 	ldw	x, (0x01, sp)
      000418 1C 00 18         [ 2]  810 	addw	x, #0x0018
      00041B 89               [ 2]  811 	pushw	x
      00041C 4B 22            [ 1]  812 	push	#0x22
      00041E 4B 40            [ 1]  813 	push	#0x40
      000420 4B 00            [ 1]  814 	push	#0x00
      000422 4B 00            [ 1]  815 	push	#0x00
      000424 CDr00r00         [ 4]  816 	call	_FLASH_ReadByte
      000427 5B 04            [ 2]  817 	addw	sp, #4
      000429 85               [ 2]  818 	popw	x
      00042A F7               [ 1]  819 	ld	(x), a
                           00042B   820 	C$eeprom.c$199$1_0$360 ==.
                                    821 ;	eeprom.c: 199: p_configuration_variables->ui8_motor_temperature_max_value_to_limit = FLASH_ReadByte(ADDR_MOTOR_TEMPERATURE_MAX_VALUE_LIMIT);
      00042B 1E 01            [ 2]  822 	ldw	x, (0x01, sp)
      00042D 1C 00 19         [ 2]  823 	addw	x, #0x0019
      000430 89               [ 2]  824 	pushw	x
      000431 4B 23            [ 1]  825 	push	#0x23
      000433 4B 40            [ 1]  826 	push	#0x40
      000435 4B 00            [ 1]  827 	push	#0x00
      000437 4B 00            [ 1]  828 	push	#0x00
      000439 CDr00r00         [ 4]  829 	call	_FLASH_ReadByte
      00043C 5B 04            [ 2]  830 	addw	sp, #4
      00043E 85               [ 2]  831 	popw	x
      00043F F7               [ 1]  832 	ld	(x), a
                           000440   833 	C$eeprom.c$201$1_0$360 ==.
                                    834 ;	eeprom.c: 201: p_configuration_variables->ui8_walk_assist_percentage_current = FLASH_ReadByte(ADDR_WALK_ASSIST_PERCENTAGE_CURRENT);
      000440 1E 01            [ 2]  835 	ldw	x, (0x01, sp)
      000442 1C 00 34         [ 2]  836 	addw	x, #0x0034
      000445 89               [ 2]  837 	pushw	x
      000446 4B 24            [ 1]  838 	push	#0x24
      000448 4B 40            [ 1]  839 	push	#0x40
      00044A 4B 00            [ 1]  840 	push	#0x00
      00044C 4B 00            [ 1]  841 	push	#0x00
      00044E CDr00r00         [ 4]  842 	call	_FLASH_ReadByte
      000451 5B 04            [ 2]  843 	addw	sp, #4
      000453 85               [ 2]  844 	popw	x
      000454 F7               [ 1]  845 	ld	(x), a
                           000455   846 	C$eeprom.c$202$1_0$360 ==.
                                    847 ;	eeprom.c: 202: p_configuration_variables->ui8_walk_assist_pwm_duty_cycle_level[0] = FLASH_ReadByte(ADDR_WALK_ASSIST_PWM_DUTY_CYCLE_LEVEL_0);
      000455 1E 01            [ 2]  848 	ldw	x, (0x01, sp)
      000457 1C 00 36         [ 2]  849 	addw	x, #0x0036
      00045A 1F 03            [ 2]  850 	ldw	(0x03, sp), x
      00045C 4B 25            [ 1]  851 	push	#0x25
      00045E 4B 40            [ 1]  852 	push	#0x40
      000460 5F               [ 1]  853 	clrw	x
      000461 89               [ 2]  854 	pushw	x
      000462 CDr00r00         [ 4]  855 	call	_FLASH_ReadByte
      000465 5B 04            [ 2]  856 	addw	sp, #4
      000467 1E 03            [ 2]  857 	ldw	x, (0x03, sp)
      000469 F7               [ 1]  858 	ld	(x), a
                           00046A   859 	C$eeprom.c$203$1_0$360 ==.
                                    860 ;	eeprom.c: 203: p_configuration_variables->ui8_walk_assist_pwm_duty_cycle_level[1] = FLASH_ReadByte(ADDR_WALK_ASSIST_PWM_DUTY_CYCLE_LEVEL_1);
      00046A 1E 03            [ 2]  861 	ldw	x, (0x03, sp)
      00046C 5C               [ 1]  862 	incw	x
      00046D 1F 05            [ 2]  863 	ldw	(0x05, sp), x
      00046F 4B 26            [ 1]  864 	push	#0x26
      000471 4B 40            [ 1]  865 	push	#0x40
      000473 5F               [ 1]  866 	clrw	x
      000474 89               [ 2]  867 	pushw	x
      000475 CDr00r00         [ 4]  868 	call	_FLASH_ReadByte
      000478 5B 04            [ 2]  869 	addw	sp, #4
      00047A 1E 05            [ 2]  870 	ldw	x, (0x05, sp)
      00047C F7               [ 1]  871 	ld	(x), a
                           00047D   872 	C$eeprom.c$204$1_0$360 ==.
                                    873 ;	eeprom.c: 204: p_configuration_variables->ui8_walk_assist_pwm_duty_cycle_level[2] = FLASH_ReadByte(ADDR_WALK_ASSIST_PWM_DUTY_CYCLE_LEVEL_2);
      00047D 1E 03            [ 2]  874 	ldw	x, (0x03, sp)
      00047F 5C               [ 1]  875 	incw	x
      000480 5C               [ 1]  876 	incw	x
      000481 1F 05            [ 2]  877 	ldw	(0x05, sp), x
      000483 4B 27            [ 1]  878 	push	#0x27
      000485 4B 40            [ 1]  879 	push	#0x40
      000487 5F               [ 1]  880 	clrw	x
      000488 89               [ 2]  881 	pushw	x
      000489 CDr00r00         [ 4]  882 	call	_FLASH_ReadByte
      00048C 5B 04            [ 2]  883 	addw	sp, #4
      00048E 1E 05            [ 2]  884 	ldw	x, (0x05, sp)
      000490 F7               [ 1]  885 	ld	(x), a
                           000491   886 	C$eeprom.c$205$1_0$360 ==.
                                    887 ;	eeprom.c: 205: p_configuration_variables->ui8_walk_assist_pwm_duty_cycle_level[3] = FLASH_ReadByte(ADDR_WALK_ASSIST_PWM_DUTY_CYCLE_LEVEL_3);
      000491 1E 03            [ 2]  888 	ldw	x, (0x03, sp)
      000493 1C 00 03         [ 2]  889 	addw	x, #0x0003
      000496 89               [ 2]  890 	pushw	x
      000497 4B 28            [ 1]  891 	push	#0x28
      000499 4B 40            [ 1]  892 	push	#0x40
      00049B 4B 00            [ 1]  893 	push	#0x00
      00049D 4B 00            [ 1]  894 	push	#0x00
      00049F CDr00r00         [ 4]  895 	call	_FLASH_ReadByte
      0004A2 5B 04            [ 2]  896 	addw	sp, #4
      0004A4 85               [ 2]  897 	popw	x
      0004A5 F7               [ 1]  898 	ld	(x), a
                           0004A6   899 	C$eeprom.c$206$1_0$360 ==.
                                    900 ;	eeprom.c: 206: p_configuration_variables->ui8_walk_assist_pwm_duty_cycle_level[4] = FLASH_ReadByte(ADDR_WALK_ASSIST_PWM_DUTY_CYCLE_LEVEL_4);
      0004A6 1E 03            [ 2]  901 	ldw	x, (0x03, sp)
      0004A8 1C 00 04         [ 2]  902 	addw	x, #0x0004
      0004AB 89               [ 2]  903 	pushw	x
      0004AC 4B 29            [ 1]  904 	push	#0x29
      0004AE 4B 40            [ 1]  905 	push	#0x40
      0004B0 4B 00            [ 1]  906 	push	#0x00
      0004B2 4B 00            [ 1]  907 	push	#0x00
      0004B4 CDr00r00         [ 4]  908 	call	_FLASH_ReadByte
      0004B7 5B 04            [ 2]  909 	addw	sp, #4
      0004B9 85               [ 2]  910 	popw	x
      0004BA F7               [ 1]  911 	ld	(x), a
                           0004BB   912 	C$eeprom.c$207$1_0$360 ==.
                                    913 ;	eeprom.c: 207: p_configuration_variables->ui8_walk_assist_ramp_time = FLASH_ReadByte(ADDR_WALK_ASSIST_MAX_RAMP_TIME);
      0004BB 1E 01            [ 2]  914 	ldw	x, (0x01, sp)
      0004BD 1C 00 3B         [ 2]  915 	addw	x, #0x003b
      0004C0 89               [ 2]  916 	pushw	x
      0004C1 4B 2A            [ 1]  917 	push	#0x2a
      0004C3 4B 40            [ 1]  918 	push	#0x40
      0004C5 4B 00            [ 1]  919 	push	#0x00
      0004C7 4B 00            [ 1]  920 	push	#0x00
      0004C9 CDr00r00         [ 4]  921 	call	_FLASH_ReadByte
      0004CC 5B 04            [ 2]  922 	addw	sp, #4
      0004CE 85               [ 2]  923 	popw	x
      0004CF F7               [ 1]  924 	ld	(x), a
                           0004D0   925 	C$eeprom.c$208$1_0$360 ==.
                                    926 ;	eeprom.c: 208: p_configuration_variables->ui8_walk_assist_off_delay_pwm = FLASH_ReadByte(ADDR_WALK_ASSIST_OFF_DELAY_PWM);
      0004D0 1E 01            [ 2]  927 	ldw	x, (0x01, sp)
      0004D2 1C 00 3C         [ 2]  928 	addw	x, #0x003c
      0004D5 89               [ 2]  929 	pushw	x
      0004D6 4B 2B            [ 1]  930 	push	#0x2b
      0004D8 4B 40            [ 1]  931 	push	#0x40
      0004DA 4B 00            [ 1]  932 	push	#0x00
      0004DC 4B 00            [ 1]  933 	push	#0x00
      0004DE CDr00r00         [ 4]  934 	call	_FLASH_ReadByte
      0004E1 5B 04            [ 2]  935 	addw	sp, #4
      0004E3 85               [ 2]  936 	popw	x
      0004E4 F7               [ 1]  937 	ld	(x), a
                           0004E5   938 	C$eeprom.c$209$1_0$360 ==.
                                    939 ;	eeprom.c: 209: ui16_temp = FLASH_ReadByte(ADDR_WALK_ASSIST_OFF_DELAY_TIME_0);
      0004E5 4B 2C            [ 1]  940 	push	#0x2c
      0004E7 4B 40            [ 1]  941 	push	#0x40
      0004E9 5F               [ 1]  942 	clrw	x
      0004EA 89               [ 2]  943 	pushw	x
      0004EB CDr00r00         [ 4]  944 	call	_FLASH_ReadByte
      0004EE 5B 04            [ 2]  945 	addw	sp, #4
      0004F0 5F               [ 1]  946 	clrw	x
      0004F1 97               [ 1]  947 	ld	xl, a
      0004F2 CFu00u01         [ 2]  948 	ldw	_eeprom_read_values_to_variables_ui16_temp_65536_360+0, x
                           0004F5   949 	C$eeprom.c$210$1_0$360 ==.
                                    950 ;	eeprom.c: 210: ui8_temp = FLASH_ReadByte(ADDR_WALK_ASSIST_OFF_DELAY_TIME_1);
      0004F5 4B 2D            [ 1]  951 	push	#0x2d
      0004F7 4B 40            [ 1]  952 	push	#0x40
      0004F9 5F               [ 1]  953 	clrw	x
      0004FA 89               [ 2]  954 	pushw	x
      0004FB CDr00r00         [ 4]  955 	call	_FLASH_ReadByte
      0004FE 5B 04            [ 2]  956 	addw	sp, #4
      000500 C7u00u00         [ 1]  957 	ld	_eeprom_read_values_to_variables_ui8_temp_65536_360+0, a
                           000503   958 	C$eeprom.c$211$1_0$360 ==.
                                    959 ;	eeprom.c: 211: ui16_temp += (((uint16_t) ui8_temp << 8) & 0xff00);
      000503 C6u00u00         [ 1]  960 	ld	a, _eeprom_read_values_to_variables_ui8_temp_65536_360+0
      000506 95               [ 1]  961 	ld	xh, a
      000507 4F               [ 1]  962 	clr	a
      000508 97               [ 1]  963 	ld	xl, a
      000509 72 BBu00u01      [ 2]  964 	addw	x, _eeprom_read_values_to_variables_ui16_temp_65536_360+0
      00050D CFu00u01         [ 2]  965 	ldw	_eeprom_read_values_to_variables_ui16_temp_65536_360+0, x
                           000510   966 	C$eeprom.c$212$1_0$360 ==.
                                    967 ;	eeprom.c: 212: p_configuration_variables->ui16_walk_assist_off_delay_time = ui16_temp;
      000510 1E 01            [ 2]  968 	ldw	x, (0x01, sp)
      000512 90 CEu00u01      [ 2]  969 	ldw	y, _eeprom_read_values_to_variables_ui16_temp_65536_360+0
      000516 EF 3D            [ 2]  970 	ldw	(0x003d, x), y
                           000518   971 	C$eeprom.c$213$1_0$360 ==.
                                    972 ;	eeprom.c: 213: p_configuration_variables->ui8_walk_assist_pwm_duty_cycle = p_configuration_variables->ui8_walk_assist_pwm_duty_cycle_level[0];
      000518 1E 01            [ 2]  973 	ldw	x, (0x01, sp)
      00051A 1C 00 35         [ 2]  974 	addw	x, #0x0035
      00051D 16 03            [ 2]  975 	ldw	y, (0x03, sp)
      00051F 90 F6            [ 1]  976 	ld	a, (y)
      000521 F7               [ 1]  977 	ld	(x), a
                           000522   978 	C$eeprom.c$214$1_0$360 ==.
                                    979 ;	eeprom.c: 214: }
      000522 5B 06            [ 2]  980 	addw	sp, #6
                           000524   981 	C$eeprom.c$214$1_0$360 ==.
                           000524   982 	XFeeprom$eeprom_read_values_to_variables$0$0 ==.
      000524 81               [ 4]  983 	ret
                           000525   984 	G$eeprom_write_variables$0$0 ==.
                           000525   985 	C$eeprom.c$219$1_0$362 ==.
                                    986 ;	eeprom.c: 219: void eeprom_write_variables(void)
                                    987 ;	-----------------------------------------
                                    988 ;	 function eeprom_write_variables
                                    989 ;	-----------------------------------------
      000525                        990 _eeprom_write_variables:
      000525 52 2F            [ 2]  991 	sub	sp, #47
                           000527   992 	C$eeprom.c$222$1_0$362 ==.
                                    993 ;	eeprom.c: 222: variables_to_array(array_variables);
      000527 96               [ 1]  994 	ldw	x, sp
      000528 5C               [ 1]  995 	incw	x
      000529 90 93            [ 1]  996 	ldw	y, x
      00052B 89               [ 2]  997 	pushw	x
      00052C 90 89            [ 2]  998 	pushw	y
      00052E CDr05r3D         [ 4]  999 	call	_variables_to_array
      000531 5B 02            [ 2] 1000 	addw	sp, #2
      000533 85               [ 2] 1001 	popw	x
                           000534  1002 	C$eeprom.c$223$1_0$362 ==.
                                   1003 ;	eeprom.c: 223: eeprom_write_array(array_variables);
      000534 89               [ 2] 1004 	pushw	x
      000535 CDr07rAB         [ 4] 1005 	call	_eeprom_write_array
      000538 5B 02            [ 2] 1006 	addw	sp, #2
                           00053A  1007 	C$eeprom.c$224$1_0$362 ==.
                                   1008 ;	eeprom.c: 224: }
      00053A 5B 2F            [ 2] 1009 	addw	sp, #47
                           00053C  1010 	C$eeprom.c$224$1_0$362 ==.
                           00053C  1011 	XG$eeprom_write_variables$0$0 ==.
      00053C 81               [ 4] 1012 	ret
                           00053D  1013 	Feeprom$variables_to_array$0$0 ==.
                           00053D  1014 	C$eeprom.c$229$1_0$364 ==.
                                   1015 ;	eeprom.c: 229: static void variables_to_array(uint8_t *ui8_array)
                                   1016 ;	-----------------------------------------
                                   1017 ;	 function variables_to_array
                                   1018 ;	-----------------------------------------
      00053D                       1019 _variables_to_array:
      00053D 52 05            [ 2] 1020 	sub	sp, #5
                           00053F  1021 	C$eeprom.c$232$1_0$364 ==.
                                   1022 ;	eeprom.c: 232: p_configuration_variables = get_configuration_variables();
      00053F CDr00r00         [ 4] 1023 	call	_get_configuration_variables
      000542 1F 01            [ 2] 1024 	ldw	(0x01, sp), x
                           000544  1025 	C$eeprom.c$234$1_0$364 ==.
                                   1026 ;	eeprom.c: 234: ui8_array[0] = KEY;
      000544 16 08            [ 2] 1027 	ldw	y, (0x08, sp)
      000546 17 03            [ 2] 1028 	ldw	(0x03, sp), y
      000548 93               [ 1] 1029 	ldw	x, y
      000549 A6 AA            [ 1] 1030 	ld	a, #0xaa
      00054B F7               [ 1] 1031 	ld	(x), a
                           00054C  1032 	C$eeprom.c$235$1_0$364 ==.
                                   1033 ;	eeprom.c: 235: ui8_array[1] = p_configuration_variables->ui8_assist_level_factor_x10;
      00054C 1E 03            [ 2] 1034 	ldw	x, (0x03, sp)
      00054E 5C               [ 1] 1035 	incw	x
      00054F 16 01            [ 2] 1036 	ldw	y, (0x01, sp)
      000551 90 F6            [ 1] 1037 	ld	a, (y)
      000553 F7               [ 1] 1038 	ld	(x), a
                           000554  1039 	C$eeprom.c$236$1_0$364 ==.
                                   1040 ;	eeprom.c: 236: ui8_array[2] = (p_configuration_variables->ui8_lights & 1) |
      000554 16 03            [ 2] 1041 	ldw	y, (0x03, sp)
      000556 72 A9 00 02      [ 2] 1042 	addw	y, #0x0002
      00055A 1E 01            [ 2] 1043 	ldw	x, (0x01, sp)
      00055C E6 07            [ 1] 1044 	ld	a, (0x7, x)
      00055E A4 01            [ 1] 1045 	and	a, #0x01
      000560 6B 05            [ 1] 1046 	ld	(0x05, sp), a
                           000562  1047 	C$eeprom.c$237$1_0$364 ==.
                                   1048 ;	eeprom.c: 237: ((p_configuration_variables->ui8_walk_assist & 1) << 1) |
      000562 1E 01            [ 2] 1049 	ldw	x, (0x01, sp)
      000564 E6 08            [ 1] 1050 	ld	a, (0x8, x)
      000566 A4 01            [ 1] 1051 	and	a, #0x01
      000568 48               [ 1] 1052 	sll	a
      000569 1A 05            [ 1] 1053 	or	a, (0x05, sp)
      00056B 6B 05            [ 1] 1054 	ld	(0x05, sp), a
                           00056D  1055 	C$eeprom.c$238$1_0$364 ==.
                                   1056 ;	eeprom.c: 238: ((p_configuration_variables->ui8_offroad_mode & 1) << 2) |
      00056D 1E 01            [ 2] 1057 	ldw	x, (0x01, sp)
      00056F E6 09            [ 1] 1058 	ld	a, (0x9, x)
      000571 A4 01            [ 1] 1059 	and	a, #0x01
      000573 48               [ 1] 1060 	sll	a
      000574 48               [ 1] 1061 	sll	a
      000575 1A 05            [ 1] 1062 	or	a, (0x05, sp)
      000577 6B 05            [ 1] 1063 	ld	(0x05, sp), a
                           000579  1064 	C$eeprom.c$239$1_0$364 ==.
                                   1065 ;	eeprom.c: 239: ((p_configuration_variables->ui8_emtb_mode & 1) << 3) |
      000579 1E 01            [ 2] 1066 	ldw	x, (0x01, sp)
      00057B E6 0A            [ 1] 1067 	ld	a, (0xa, x)
      00057D A4 01            [ 1] 1068 	and	a, #0x01
      00057F 48               [ 1] 1069 	sll	a
      000580 48               [ 1] 1070 	sll	a
      000581 48               [ 1] 1071 	sll	a
      000582 1A 05            [ 1] 1072 	or	a, (0x05, sp)
      000584 6B 05            [ 1] 1073 	ld	(0x05, sp), a
                           000586  1074 	C$eeprom.c$240$1_0$364 ==.
                                   1075 ;	eeprom.c: 240: ((p_configuration_variables->ui8_emtb_enabled_on_startup) << 4);
      000586 1E 01            [ 2] 1076 	ldw	x, (0x01, sp)
      000588 E6 0B            [ 1] 1077 	ld	a, (0xb, x)
      00058A 4E               [ 1] 1078 	swap	a
      00058B A4 F0            [ 1] 1079 	and	a, #0xf0
      00058D 1A 05            [ 1] 1080 	or	a, (0x05, sp)
      00058F 90 F7            [ 1] 1081 	ld	(y), a
                           000591  1082 	C$eeprom.c$241$1_0$364 ==.
                                   1083 ;	eeprom.c: 241: ui8_array[3] = p_configuration_variables->ui8_battery_max_current;
      000591 1E 03            [ 2] 1084 	ldw	x, (0x03, sp)
      000593 1C 00 03         [ 2] 1085 	addw	x, #0x0003
      000596 16 01            [ 2] 1086 	ldw	y, (0x01, sp)
      000598 90 E6 01         [ 1] 1087 	ld	a, (0x1, y)
      00059B F7               [ 1] 1088 	ld	(x), a
                           00059C  1089 	C$eeprom.c$242$1_0$364 ==.
                                   1090 ;	eeprom.c: 242: ui8_array[4] = p_configuration_variables->ui8_motor_power_div10;
      00059C 1E 03            [ 2] 1091 	ldw	x, (0x03, sp)
      00059E 1C 00 04         [ 2] 1092 	addw	x, #0x0004
      0005A1 16 01            [ 2] 1093 	ldw	y, (0x01, sp)
      0005A3 90 E6 02         [ 1] 1094 	ld	a, (0x2, y)
      0005A6 F7               [ 1] 1095 	ld	(x), a
                           0005A7  1096 	C$eeprom.c$243$1_0$364 ==.
                                   1097 ;	eeprom.c: 243: ui8_array[5] = p_configuration_variables->ui16_battery_low_voltage_cut_off_x10 & 255;
      0005A7 1E 03            [ 2] 1098 	ldw	x, (0x03, sp)
      0005A9 1C 00 05         [ 2] 1099 	addw	x, #0x0005
      0005AC 16 01            [ 2] 1100 	ldw	y, (0x01, sp)
      0005AE 72 A9 00 03      [ 2] 1101 	addw	y, #0x0003
      0005B2 90 E6 01         [ 1] 1102 	ld	a, (0x1, y)
      0005B5 F7               [ 1] 1103 	ld	(x), a
                           0005B6  1104 	C$eeprom.c$244$1_0$364 ==.
                                   1105 ;	eeprom.c: 244: ui8_array[6] = (p_configuration_variables->ui16_battery_low_voltage_cut_off_x10 >> 8) & 255;
      0005B6 1E 03            [ 2] 1106 	ldw	x, (0x03, sp)
      0005B8 1C 00 06         [ 2] 1107 	addw	x, #0x0006
      0005BB 90 FE            [ 2] 1108 	ldw	y, (y)
      0005BD 90 9E            [ 1] 1109 	ld	a, yh
      0005BF F7               [ 1] 1110 	ld	(x), a
                           0005C0  1111 	C$eeprom.c$245$1_0$364 ==.
                                   1112 ;	eeprom.c: 245: ui8_array[7] = p_configuration_variables->ui16_wheel_perimeter & 255;
      0005C0 1E 03            [ 2] 1113 	ldw	x, (0x03, sp)
      0005C2 1C 00 07         [ 2] 1114 	addw	x, #0x0007
      0005C5 16 01            [ 2] 1115 	ldw	y, (0x01, sp)
      0005C7 72 A9 00 05      [ 2] 1116 	addw	y, #0x0005
      0005CB 90 E6 01         [ 1] 1117 	ld	a, (0x1, y)
      0005CE F7               [ 1] 1118 	ld	(x), a
                           0005CF  1119 	C$eeprom.c$246$1_0$364 ==.
                                   1120 ;	eeprom.c: 246: ui8_array[8] = (p_configuration_variables->ui16_wheel_perimeter >> 8) & 255;
      0005CF 1E 03            [ 2] 1121 	ldw	x, (0x03, sp)
      0005D1 1C 00 08         [ 2] 1122 	addw	x, #0x0008
      0005D4 90 FE            [ 2] 1123 	ldw	y, (y)
      0005D6 90 9E            [ 1] 1124 	ld	a, yh
      0005D8 F7               [ 1] 1125 	ld	(x), a
                           0005D9  1126 	C$eeprom.c$247$1_0$364 ==.
                                   1127 ;	eeprom.c: 247: ui8_array[9] = p_configuration_variables->ui8_wheel_max_speed;
      0005D9 1E 03            [ 2] 1128 	ldw	x, (0x03, sp)
      0005DB 1C 00 09         [ 2] 1129 	addw	x, #0x0009
      0005DE 16 01            [ 2] 1130 	ldw	y, (0x01, sp)
      0005E0 90 E6 0C         [ 1] 1131 	ld	a, (0xc, y)
      0005E3 F7               [ 1] 1132 	ld	(x), a
                           0005E4  1133 	C$eeprom.c$248$1_0$364 ==.
                                   1134 ;	eeprom.c: 248: ui8_array[10] = (p_configuration_variables->ui8_motor_type & 3) |
      0005E4 1E 03            [ 2] 1135 	ldw	x, (0x03, sp)
      0005E6 1C 00 0A         [ 2] 1136 	addw	x, #0x000a
      0005E9 16 01            [ 2] 1137 	ldw	y, (0x01, sp)
      0005EB 90 E6 0D         [ 1] 1138 	ld	a, (0xd, y)
      0005EE A4 03            [ 1] 1139 	and	a, #0x03
      0005F0 6B 05            [ 1] 1140 	ld	(0x05, sp), a
                           0005F2  1141 	C$eeprom.c$249$1_0$364 ==.
                                   1142 ;	eeprom.c: 249: ((p_configuration_variables->ui8_motor_assistance_startup_without_pedal_rotation & 1) << 2);
      0005F2 16 01            [ 2] 1143 	ldw	y, (0x01, sp)
      0005F4 90 E6 0E         [ 1] 1144 	ld	a, (0xe, y)
      0005F7 A4 01            [ 1] 1145 	and	a, #0x01
      0005F9 48               [ 1] 1146 	sll	a
      0005FA 48               [ 1] 1147 	sll	a
      0005FB 1A 05            [ 1] 1148 	or	a, (0x05, sp)
      0005FD F7               [ 1] 1149 	ld	(x), a
                           0005FE  1150 	C$eeprom.c$250$1_0$364 ==.
                                   1151 ;	eeprom.c: 250: ui8_array[11] = (p_configuration_variables->ui8_street_feature_enabled & 1) |
      0005FE 16 03            [ 2] 1152 	ldw	y, (0x03, sp)
      000600 72 A9 00 0B      [ 2] 1153 	addw	y, #0x000b
      000604 1E 01            [ 2] 1154 	ldw	x, (0x01, sp)
      000606 E6 1E            [ 1] 1155 	ld	a, (0x1e, x)
      000608 A4 01            [ 1] 1156 	and	a, #0x01
      00060A 6B 05            [ 1] 1157 	ld	(0x05, sp), a
                           00060C  1158 	C$eeprom.c$251$1_0$364 ==.
                                   1159 ;	eeprom.c: 251: ((p_configuration_variables->ui8_street_enabled_on_startup & 1) << 1) |
      00060C 1E 01            [ 2] 1160 	ldw	x, (0x01, sp)
      00060E E6 1F            [ 1] 1161 	ld	a, (0x1f, x)
      000610 A4 01            [ 1] 1162 	and	a, #0x01
      000612 48               [ 1] 1163 	sll	a
      000613 1A 05            [ 1] 1164 	or	a, (0x05, sp)
      000615 6B 05            [ 1] 1165 	ld	(0x05, sp), a
                           000617  1166 	C$eeprom.c$252$1_0$364 ==.
                                   1167 ;	eeprom.c: 252: ((p_configuration_variables->ui8_street_power_limit_enabled & 1) << 2);
      000617 1E 01            [ 2] 1168 	ldw	x, (0x01, sp)
      000619 E6 21            [ 1] 1169 	ld	a, (0x21, x)
      00061B A4 01            [ 1] 1170 	and	a, #0x01
      00061D 48               [ 1] 1171 	sll	a
      00061E 48               [ 1] 1172 	sll	a
      00061F 1A 05            [ 1] 1173 	or	a, (0x05, sp)
      000621 90 F7            [ 1] 1174 	ld	(y), a
                           000623  1175 	C$eeprom.c$253$1_0$364 ==.
                                   1176 ;	eeprom.c: 253: ui8_array[12] = p_configuration_variables->ui8_street_speed_limit;
      000623 1E 03            [ 2] 1177 	ldw	x, (0x03, sp)
      000625 1C 00 0C         [ 2] 1178 	addw	x, #0x000c
      000628 16 01            [ 2] 1179 	ldw	y, (0x01, sp)
      00062A 90 E6 20         [ 1] 1180 	ld	a, (0x20, y)
      00062D F7               [ 1] 1181 	ld	(x), a
                           00062E  1182 	C$eeprom.c$254$1_0$364 ==.
                                   1183 ;	eeprom.c: 254: ui8_array[13] = p_configuration_variables->ui8_street_power_limit_div25;
      00062E 1E 03            [ 2] 1184 	ldw	x, (0x03, sp)
      000630 1C 00 0D         [ 2] 1185 	addw	x, #0x000d
      000633 16 01            [ 2] 1186 	ldw	y, (0x01, sp)
      000635 90 E6 22         [ 1] 1187 	ld	a, (0x22, y)
      000638 F7               [ 1] 1188 	ld	(x), a
                           000639  1189 	C$eeprom.c$255$1_0$364 ==.
                                   1190 ;	eeprom.c: 255: ui8_array[14] = p_configuration_variables->ui8_battery_cells_number;
      000639 1E 03            [ 2] 1191 	ldw	x, (0x03, sp)
      00063B 1C 00 0E         [ 2] 1192 	addw	x, #0x000e
      00063E 16 01            [ 2] 1193 	ldw	y, (0x01, sp)
      000640 90 E6 26         [ 1] 1194 	ld	a, (0x26, y)
      000643 F7               [ 1] 1195 	ld	(x), a
                           000644  1196 	C$eeprom.c$256$1_0$364 ==.
                                   1197 ;	eeprom.c: 256: ui8_array[15] = p_configuration_variables->ui16_battery_pack_resistance_x1000 & 255;
      000644 1E 03            [ 2] 1198 	ldw	x, (0x03, sp)
      000646 1C 00 0F         [ 2] 1199 	addw	x, #0x000f
      000649 16 01            [ 2] 1200 	ldw	y, (0x01, sp)
      00064B 72 A9 00 27      [ 2] 1201 	addw	y, #0x0027
      00064F 90 E6 01         [ 1] 1202 	ld	a, (0x1, y)
      000652 F7               [ 1] 1203 	ld	(x), a
                           000653  1204 	C$eeprom.c$257$1_0$364 ==.
                                   1205 ;	eeprom.c: 257: ui8_array[16] = (p_configuration_variables->ui16_battery_pack_resistance_x1000 >> 8) & 255;
      000653 1E 03            [ 2] 1206 	ldw	x, (0x03, sp)
      000655 1C 00 10         [ 2] 1207 	addw	x, #0x0010
      000658 90 FE            [ 2] 1208 	ldw	y, (y)
      00065A 90 9E            [ 1] 1209 	ld	a, yh
      00065C F7               [ 1] 1210 	ld	(x), a
                           00065D  1211 	C$eeprom.c$258$1_0$364 ==.
                                   1212 ;	eeprom.c: 258: ui8_array[17] = p_configuration_variables->ui16_oem_wheel_speed_factor & 255;
      00065D 1E 03            [ 2] 1213 	ldw	x, (0x03, sp)
      00065F 1C 00 11         [ 2] 1214 	addw	x, #0x0011
      000662 16 01            [ 2] 1215 	ldw	y, (0x01, sp)
      000664 72 A9 00 29      [ 2] 1216 	addw	y, #0x0029
      000668 90 E6 01         [ 1] 1217 	ld	a, (0x1, y)
      00066B F7               [ 1] 1218 	ld	(x), a
                           00066C  1219 	C$eeprom.c$259$1_0$364 ==.
                                   1220 ;	eeprom.c: 259: ui8_array[18] = (p_configuration_variables->ui16_oem_wheel_speed_factor >> 8) & 255;
      00066C 1E 03            [ 2] 1221 	ldw	x, (0x03, sp)
      00066E 1C 00 12         [ 2] 1222 	addw	x, #0x0012
      000671 90 FE            [ 2] 1223 	ldw	y, (y)
      000673 90 9E            [ 1] 1224 	ld	a, yh
      000675 F7               [ 1] 1225 	ld	(x), a
                           000676  1226 	C$eeprom.c$261$1_0$364 ==.
                                   1227 ;	eeprom.c: 261: ui8_array[19] = p_configuration_variables->ui8_assist_level_power[0];
      000676 1E 03            [ 2] 1228 	ldw	x, (0x03, sp)
      000678 1C 00 13         [ 2] 1229 	addw	x, #0x0013
      00067B 16 01            [ 2] 1230 	ldw	y, (0x01, sp)
      00067D 90 E6 2B         [ 1] 1231 	ld	a, (0x2b, y)
      000680 F7               [ 1] 1232 	ld	(x), a
                           000681  1233 	C$eeprom.c$262$1_0$364 ==.
                                   1234 ;	eeprom.c: 262: ui8_array[20] = p_configuration_variables->ui8_assist_level_power[1];
      000681 1E 03            [ 2] 1235 	ldw	x, (0x03, sp)
      000683 1C 00 14         [ 2] 1236 	addw	x, #0x0014
      000686 16 01            [ 2] 1237 	ldw	y, (0x01, sp)
      000688 90 E6 2C         [ 1] 1238 	ld	a, (0x2c, y)
      00068B F7               [ 1] 1239 	ld	(x), a
                           00068C  1240 	C$eeprom.c$263$1_0$364 ==.
                                   1241 ;	eeprom.c: 263: ui8_array[21] = p_configuration_variables->ui8_assist_level_power[2];
      00068C 1E 03            [ 2] 1242 	ldw	x, (0x03, sp)
      00068E 1C 00 15         [ 2] 1243 	addw	x, #0x0015
      000691 16 01            [ 2] 1244 	ldw	y, (0x01, sp)
      000693 90 E6 2D         [ 1] 1245 	ld	a, (0x2d, y)
      000696 F7               [ 1] 1246 	ld	(x), a
                           000697  1247 	C$eeprom.c$264$1_0$364 ==.
                                   1248 ;	eeprom.c: 264: ui8_array[22] = p_configuration_variables->ui8_assist_level_power[3];
      000697 1E 03            [ 2] 1249 	ldw	x, (0x03, sp)
      000699 1C 00 16         [ 2] 1250 	addw	x, #0x0016
      00069C 16 01            [ 2] 1251 	ldw	y, (0x01, sp)
      00069E 90 E6 2E         [ 1] 1252 	ld	a, (0x2e, y)
      0006A1 F7               [ 1] 1253 	ld	(x), a
                           0006A2  1254 	C$eeprom.c$266$1_0$364 ==.
                                   1255 ;	eeprom.c: 266: ui8_array[23] = p_configuration_variables->ui8_startup_motor_power_boost_state;
      0006A2 1E 03            [ 2] 1256 	ldw	x, (0x03, sp)
      0006A4 1C 00 17         [ 2] 1257 	addw	x, #0x0017
      0006A7 16 01            [ 2] 1258 	ldw	y, (0x01, sp)
      0006A9 90 E6 13         [ 1] 1259 	ld	a, (0x13, y)
      0006AC F7               [ 1] 1260 	ld	(x), a
                           0006AD  1261 	C$eeprom.c$267$1_0$364 ==.
                                   1262 ;	eeprom.c: 267: ui8_array[24] = p_configuration_variables->ui8_startup_motor_power_boost_feature_enabled;
      0006AD 1E 03            [ 2] 1263 	ldw	x, (0x03, sp)
      0006AF 1C 00 18         [ 2] 1264 	addw	x, #0x0018
      0006B2 16 01            [ 2] 1265 	ldw	y, (0x01, sp)
      0006B4 90 E6 11         [ 1] 1266 	ld	a, (0x11, y)
      0006B7 F7               [ 1] 1267 	ld	(x), a
                           0006B8  1268 	C$eeprom.c$268$1_0$364 ==.
                                   1269 ;	eeprom.c: 268: ui8_array[25] = p_configuration_variables->ui8_startup_motor_power_boost[0];
      0006B8 1E 03            [ 2] 1270 	ldw	x, (0x03, sp)
      0006BA 1C 00 19         [ 2] 1271 	addw	x, #0x0019
      0006BD 16 01            [ 2] 1272 	ldw	y, (0x01, sp)
      0006BF 90 E6 30         [ 1] 1273 	ld	a, (0x30, y)
      0006C2 F7               [ 1] 1274 	ld	(x), a
                           0006C3  1275 	C$eeprom.c$269$1_0$364 ==.
                                   1276 ;	eeprom.c: 269: ui8_array[26] = p_configuration_variables->ui8_startup_motor_power_boost[1];
      0006C3 1E 03            [ 2] 1277 	ldw	x, (0x03, sp)
      0006C5 1C 00 1A         [ 2] 1278 	addw	x, #0x001a
      0006C8 16 01            [ 2] 1279 	ldw	y, (0x01, sp)
      0006CA 90 E6 31         [ 1] 1280 	ld	a, (0x31, y)
      0006CD F7               [ 1] 1281 	ld	(x), a
                           0006CE  1282 	C$eeprom.c$270$1_0$364 ==.
                                   1283 ;	eeprom.c: 270: ui8_array[27] = p_configuration_variables->ui8_startup_motor_power_boost[2];
      0006CE 1E 03            [ 2] 1284 	ldw	x, (0x03, sp)
      0006D0 1C 00 1B         [ 2] 1285 	addw	x, #0x001b
      0006D3 16 01            [ 2] 1286 	ldw	y, (0x01, sp)
      0006D5 90 E6 32         [ 1] 1287 	ld	a, (0x32, y)
      0006D8 F7               [ 1] 1288 	ld	(x), a
                           0006D9  1289 	C$eeprom.c$271$1_0$364 ==.
                                   1290 ;	eeprom.c: 271: ui8_array[28] = p_configuration_variables->ui8_startup_motor_power_boost[3];
      0006D9 1E 03            [ 2] 1291 	ldw	x, (0x03, sp)
      0006DB 1C 00 1C         [ 2] 1292 	addw	x, #0x001c
      0006DE 16 01            [ 2] 1293 	ldw	y, (0x01, sp)
      0006E0 90 E6 33         [ 1] 1294 	ld	a, (0x33, y)
      0006E3 F7               [ 1] 1295 	ld	(x), a
                           0006E4  1296 	C$eeprom.c$272$1_0$364 ==.
                                   1297 ;	eeprom.c: 272: ui8_array[29] = p_configuration_variables->ui8_startup_motor_power_boost_time;
      0006E4 1E 03            [ 2] 1298 	ldw	x, (0x03, sp)
      0006E6 1C 00 1D         [ 2] 1299 	addw	x, #0x001d
      0006E9 16 01            [ 2] 1300 	ldw	y, (0x01, sp)
      0006EB 90 E6 15         [ 1] 1301 	ld	a, (0x15, y)
      0006EE F7               [ 1] 1302 	ld	(x), a
                           0006EF  1303 	C$eeprom.c$273$1_0$364 ==.
                                   1304 ;	eeprom.c: 273: ui8_array[30] = p_configuration_variables->ui8_startup_motor_power_boost_fade_time;
      0006EF 1E 03            [ 2] 1305 	ldw	x, (0x03, sp)
      0006F1 1C 00 1E         [ 2] 1306 	addw	x, #0x001e
      0006F4 16 01            [ 2] 1307 	ldw	y, (0x01, sp)
      0006F6 90 E6 16         [ 1] 1308 	ld	a, (0x16, y)
      0006F9 F7               [ 1] 1309 	ld	(x), a
                           0006FA  1310 	C$eeprom.c$274$1_0$364 ==.
                                   1311 ;	eeprom.c: 274: ui8_array[31] = p_configuration_variables->ui8_startup_motor_power_boost_limit_to_max_power;
      0006FA 1E 03            [ 2] 1312 	ldw	x, (0x03, sp)
      0006FC 1C 00 1F         [ 2] 1313 	addw	x, #0x001f
      0006FF 16 01            [ 2] 1314 	ldw	y, (0x01, sp)
      000701 90 E6 14         [ 1] 1315 	ld	a, (0x14, y)
      000704 F7               [ 1] 1316 	ld	(x), a
                           000705  1317 	C$eeprom.c$276$1_0$364 ==.
                                   1318 ;	eeprom.c: 276: ui8_array[32] = p_configuration_variables->ui8_target_battery_max_power_div25;
      000705 1E 03            [ 2] 1319 	ldw	x, (0x03, sp)
      000707 1C 00 20         [ 2] 1320 	addw	x, #0x0020
      00070A 16 01            [ 2] 1321 	ldw	y, (0x01, sp)
      00070C 90 E6 0F         [ 1] 1322 	ld	a, (0xf, y)
      00070F F7               [ 1] 1323 	ld	(x), a
                           000710  1324 	C$eeprom.c$278$1_0$364 ==.
                                   1325 ;	eeprom.c: 278: ui8_array[33] = p_configuration_variables->ui8_temperature_limit_feature_enabled;
      000710 1E 03            [ 2] 1326 	ldw	x, (0x03, sp)
      000712 1C 00 21         [ 2] 1327 	addw	x, #0x0021
      000715 16 01            [ 2] 1328 	ldw	y, (0x01, sp)
      000717 90 E6 17         [ 1] 1329 	ld	a, (0x17, y)
      00071A F7               [ 1] 1330 	ld	(x), a
                           00071B  1331 	C$eeprom.c$279$1_0$364 ==.
                                   1332 ;	eeprom.c: 279: ui8_array[34] = p_configuration_variables->ui8_motor_temperature_min_value_to_limit;
      00071B 1E 03            [ 2] 1333 	ldw	x, (0x03, sp)
      00071D 1C 00 22         [ 2] 1334 	addw	x, #0x0022
      000720 16 01            [ 2] 1335 	ldw	y, (0x01, sp)
      000722 90 E6 18         [ 1] 1336 	ld	a, (0x18, y)
      000725 F7               [ 1] 1337 	ld	(x), a
                           000726  1338 	C$eeprom.c$280$1_0$364 ==.
                                   1339 ;	eeprom.c: 280: ui8_array[35] = p_configuration_variables->ui8_motor_temperature_max_value_to_limit;
      000726 1E 03            [ 2] 1340 	ldw	x, (0x03, sp)
      000728 1C 00 23         [ 2] 1341 	addw	x, #0x0023
      00072B 16 01            [ 2] 1342 	ldw	y, (0x01, sp)
      00072D 90 E6 19         [ 1] 1343 	ld	a, (0x19, y)
      000730 F7               [ 1] 1344 	ld	(x), a
                           000731  1345 	C$eeprom.c$282$1_0$364 ==.
                                   1346 ;	eeprom.c: 282: ui8_array[36] = p_configuration_variables->ui8_walk_assist_percentage_current;
      000731 1E 03            [ 2] 1347 	ldw	x, (0x03, sp)
      000733 1C 00 24         [ 2] 1348 	addw	x, #0x0024
      000736 16 01            [ 2] 1349 	ldw	y, (0x01, sp)
      000738 90 E6 34         [ 1] 1350 	ld	a, (0x34, y)
      00073B F7               [ 1] 1351 	ld	(x), a
                           00073C  1352 	C$eeprom.c$283$1_0$364 ==.
                                   1353 ;	eeprom.c: 283: ui8_array[37] = p_configuration_variables->ui8_walk_assist_pwm_duty_cycle_level[0];
      00073C 1E 03            [ 2] 1354 	ldw	x, (0x03, sp)
      00073E 1C 00 25         [ 2] 1355 	addw	x, #0x0025
      000741 16 01            [ 2] 1356 	ldw	y, (0x01, sp)
      000743 90 E6 36         [ 1] 1357 	ld	a, (0x36, y)
      000746 F7               [ 1] 1358 	ld	(x), a
                           000747  1359 	C$eeprom.c$284$1_0$364 ==.
                                   1360 ;	eeprom.c: 284: ui8_array[38] = p_configuration_variables->ui8_walk_assist_pwm_duty_cycle_level[1];
      000747 1E 03            [ 2] 1361 	ldw	x, (0x03, sp)
      000749 1C 00 26         [ 2] 1362 	addw	x, #0x0026
      00074C 16 01            [ 2] 1363 	ldw	y, (0x01, sp)
      00074E 90 E6 37         [ 1] 1364 	ld	a, (0x37, y)
      000751 F7               [ 1] 1365 	ld	(x), a
                           000752  1366 	C$eeprom.c$285$1_0$364 ==.
                                   1367 ;	eeprom.c: 285: ui8_array[39] = p_configuration_variables->ui8_walk_assist_pwm_duty_cycle_level[2];
      000752 1E 03            [ 2] 1368 	ldw	x, (0x03, sp)
      000754 1C 00 27         [ 2] 1369 	addw	x, #0x0027
      000757 16 01            [ 2] 1370 	ldw	y, (0x01, sp)
      000759 90 E6 38         [ 1] 1371 	ld	a, (0x38, y)
      00075C F7               [ 1] 1372 	ld	(x), a
                           00075D  1373 	C$eeprom.c$286$1_0$364 ==.
                                   1374 ;	eeprom.c: 286: ui8_array[40] = p_configuration_variables->ui8_walk_assist_pwm_duty_cycle_level[3];
      00075D 1E 03            [ 2] 1375 	ldw	x, (0x03, sp)
      00075F 1C 00 28         [ 2] 1376 	addw	x, #0x0028
      000762 16 01            [ 2] 1377 	ldw	y, (0x01, sp)
      000764 90 E6 39         [ 1] 1378 	ld	a, (0x39, y)
      000767 F7               [ 1] 1379 	ld	(x), a
                           000768  1380 	C$eeprom.c$287$1_0$364 ==.
                                   1381 ;	eeprom.c: 287: ui8_array[41] = p_configuration_variables->ui8_walk_assist_pwm_duty_cycle_level[4];
      000768 1E 03            [ 2] 1382 	ldw	x, (0x03, sp)
      00076A 1C 00 29         [ 2] 1383 	addw	x, #0x0029
      00076D 16 01            [ 2] 1384 	ldw	y, (0x01, sp)
      00076F 90 E6 3A         [ 1] 1385 	ld	a, (0x3a, y)
      000772 F7               [ 1] 1386 	ld	(x), a
                           000773  1387 	C$eeprom.c$288$1_0$364 ==.
                                   1388 ;	eeprom.c: 288: ui8_array[42] = p_configuration_variables->ui8_walk_assist_ramp_time;
      000773 1E 03            [ 2] 1389 	ldw	x, (0x03, sp)
      000775 1C 00 2A         [ 2] 1390 	addw	x, #0x002a
      000778 16 01            [ 2] 1391 	ldw	y, (0x01, sp)
      00077A 90 E6 3B         [ 1] 1392 	ld	a, (0x3b, y)
      00077D F7               [ 1] 1393 	ld	(x), a
                           00077E  1394 	C$eeprom.c$289$1_0$364 ==.
                                   1395 ;	eeprom.c: 289: ui8_array[43] = p_configuration_variables->ui8_walk_assist_off_delay_pwm;
      00077E 1E 03            [ 2] 1396 	ldw	x, (0x03, sp)
      000780 1C 00 2B         [ 2] 1397 	addw	x, #0x002b
      000783 16 01            [ 2] 1398 	ldw	y, (0x01, sp)
      000785 90 E6 3C         [ 1] 1399 	ld	a, (0x3c, y)
      000788 F7               [ 1] 1400 	ld	(x), a
                           000789  1401 	C$eeprom.c$290$1_0$364 ==.
                                   1402 ;	eeprom.c: 290: ui8_array[44] = p_configuration_variables->ui16_walk_assist_off_delay_time & 255;
      000789 1E 03            [ 2] 1403 	ldw	x, (0x03, sp)
      00078B 1C 00 2C         [ 2] 1404 	addw	x, #0x002c
      00078E 16 01            [ 2] 1405 	ldw	y, (0x01, sp)
      000790 72 A9 00 3D      [ 2] 1406 	addw	y, #0x003d
      000794 90 E6 01         [ 1] 1407 	ld	a, (0x1, y)
      000797 F7               [ 1] 1408 	ld	(x), a
                           000798  1409 	C$eeprom.c$291$1_0$364 ==.
                                   1410 ;	eeprom.c: 291: ui8_array[45] = (p_configuration_variables->ui16_walk_assist_off_delay_time >> 8) & 255;
      000798 1E 03            [ 2] 1411 	ldw	x, (0x03, sp)
      00079A 1C 00 2D         [ 2] 1412 	addw	x, #0x002d
      00079D 90 FE            [ 2] 1413 	ldw	y, (y)
      00079F 90 9E            [ 1] 1414 	ld	a, yh
      0007A1 F7               [ 1] 1415 	ld	(x), a
                           0007A2  1416 	C$eeprom.c$292$1_0$364 ==.
                                   1417 ;	eeprom.c: 292: ui8_array[46] = KEY2;
      0007A2 1E 03            [ 2] 1418 	ldw	x, (0x03, sp)
      0007A4 A6 55            [ 1] 1419 	ld	a, #0x55
      0007A6 E7 2E            [ 1] 1420 	ld	(0x002e, x), a
                           0007A8  1421 	C$eeprom.c$293$1_0$364 ==.
                                   1422 ;	eeprom.c: 293: }
      0007A8 5B 05            [ 2] 1423 	addw	sp, #5
                           0007AA  1424 	C$eeprom.c$293$1_0$364 ==.
                           0007AA  1425 	XFeeprom$variables_to_array$0$0 ==.
      0007AA 81               [ 4] 1426 	ret
                           0007AB  1427 	Feeprom$eeprom_write_array$0$0 ==.
                           0007AB  1428 	C$eeprom.c$298$1_0$366 ==.
                                   1429 ;	eeprom.c: 298: static void eeprom_write_array(uint8_t *array)
                                   1430 ;	-----------------------------------------
                                   1431 ;	 function eeprom_write_array
                                   1432 ;	-----------------------------------------
      0007AB                       1433 _eeprom_write_array:
      0007AB 52 05            [ 2] 1434 	sub	sp, #5
                           0007AD  1435 	C$eeprom.c$302$1_0$366 ==.
                                   1436 ;	eeprom.c: 302: FLASH_SetProgrammingTime(FLASH_PROGRAMTIME_STANDARD);
      0007AD 4B 00            [ 1] 1437 	push	#0x00
      0007AF CDr00r00         [ 4] 1438 	call	_FLASH_SetProgrammingTime
      0007B2 84               [ 1] 1439 	pop	a
                           0007B3  1440 	C$eeprom.c$304$1_0$366 ==.
                                   1441 ;	eeprom.c: 304: FLASH_Unlock(FLASH_MEMTYPE_DATA); // Unlock Data memory  
      0007B3 4B F7            [ 1] 1442 	push	#0xf7
      0007B5 CDr00r00         [ 4] 1443 	call	_FLASH_Unlock
      0007B8 84               [ 1] 1444 	pop	a
                           0007B9  1445 	C$eeprom.c$305$1_0$366 ==.
                                   1446 ;	eeprom.c: 305: while(FLASH_GetFlagStatus(FLASH_FLAG_DUL) == RESET) { } // Wait until Data EEPROM area unlocked flag is set
      0007B9                       1447 00101$:
      0007B9 4B 08            [ 1] 1448 	push	#0x08
      0007BB CDr00r00         [ 4] 1449 	call	_FLASH_GetFlagStatus
      0007BE 5B 01            [ 2] 1450 	addw	sp, #1
      0007C0 4D               [ 1] 1451 	tnz	a
      0007C1 27 F6            [ 1] 1452 	jreq	00101$
                           0007C3  1453 	C$eeprom.c$307$1_0$366 ==.
                                   1454 ;	eeprom.c: 307: for(ui8_i = 0; ui8_i < EEPROM_BYTES_STORED; ui8_i++)
      0007C3 1E 08            [ 2] 1455 	ldw	x, (0x08, sp)
      0007C5 0F 05            [ 1] 1456 	clr	(0x05, sp)
      0007C7                       1457 00105$:
                           0007C7  1458 	C$eeprom.c$309$3_0$369 ==.
                                   1459 ;	eeprom.c: 309: FLASH_ProgramByte(EEPROM_BASE_ADDR + ui8_i, *array++);
      0007C7 F6               [ 1] 1460 	ld	a, (x)
      0007C8 5C               [ 1] 1461 	incw	x
      0007C9 90 5F            [ 1] 1462 	clrw	y
      0007CB 61               [ 1] 1463 	exg	a, yl
      0007CC 7B 05            [ 1] 1464 	ld	a, (0x05, sp)
      0007CE 61               [ 1] 1465 	exg	a, yl
      0007CF 72 A9 40 00      [ 2] 1466 	addw	y, #0x4000
      0007D3 17 03            [ 2] 1467 	ldw	(0x03, sp), y
      0007D5 90 5F            [ 1] 1468 	clrw	y
      0007D7 0D 03            [ 1] 1469 	tnz	(0x03, sp)
      0007D9 2A 02            [ 1] 1470 	jrpl	00127$
      0007DB 90 5A            [ 2] 1471 	decw	y
      0007DD                       1472 00127$:
      0007DD 89               [ 2] 1473 	pushw	x
      0007DE 88               [ 1] 1474 	push	a
      0007DF 7B 07            [ 1] 1475 	ld	a, (0x07, sp)
      0007E1 88               [ 1] 1476 	push	a
      0007E2 7B 07            [ 1] 1477 	ld	a, (0x07, sp)
      0007E4 88               [ 1] 1478 	push	a
      0007E5 90 89            [ 2] 1479 	pushw	y
      0007E7 CDr00r00         [ 4] 1480 	call	_FLASH_ProgramByte
      0007EA 5B 05            [ 2] 1481 	addw	sp, #5
      0007EC 85               [ 2] 1482 	popw	x
                           0007ED  1483 	C$eeprom.c$307$2_0$368 ==.
                                   1484 ;	eeprom.c: 307: for(ui8_i = 0; ui8_i < EEPROM_BYTES_STORED; ui8_i++)
      0007ED 0C 05            [ 1] 1485 	inc	(0x05, sp)
      0007EF 7B 05            [ 1] 1486 	ld	a, (0x05, sp)
      0007F1 A1 2F            [ 1] 1487 	cp	a, #0x2f
      0007F3 25 D2            [ 1] 1488 	jrc	00105$
                           0007F5  1489 	C$eeprom.c$312$1_0$366 ==.
                                   1490 ;	eeprom.c: 312: FLASH_Lock(FLASH_MEMTYPE_DATA);
      0007F5 4B F7            [ 1] 1491 	push	#0xf7
      0007F7 CDr00r00         [ 4] 1492 	call	_FLASH_Lock
      0007FA 84               [ 1] 1493 	pop	a
                           0007FB  1494 	C$eeprom.c$313$1_0$366 ==.
                                   1495 ;	eeprom.c: 313: }
      0007FB 5B 05            [ 2] 1496 	addw	sp, #5
                           0007FD  1497 	C$eeprom.c$313$1_0$366 ==.
                           0007FD  1498 	XFeeprom$eeprom_write_array$0$0 ==.
      0007FD 81               [ 4] 1499 	ret
                                   1500 	.area CODE
                                   1501 	.area CONST
                                   1502 	.area INITIALIZER
                           000000  1503 Feeprom$__xinit_array_default_values$0_0$0 == .
      000000                       1504 __xinit__array_default_values:
      000000 AA                    1505 	.db #0xaa	; 170
      000001 0C                    1506 	.db #0x0c	; 12
      000002 00                    1507 	.db #0x00	; 0
      000003 11                    1508 	.db #0x11	; 17
      000004 19                    1509 	.db #0x19	; 25
      000005 90                    1510 	.db #0x90	; 144
      000006 01                    1511 	.db #0x01	; 1
      000007 85                    1512 	.db #0x85	; 133
      000008 08                    1513 	.db #0x08	; 8
      000009 32                    1514 	.db #0x32	; 50	'2'
      00000A 02                    1515 	.db #0x02	; 2
      00000B 07                    1516 	.db #0x07	; 7
      00000C 19                    1517 	.db #0x19	; 25
      00000D 0A                    1518 	.db #0x0a	; 10
      00000E 0D                    1519 	.db #0x0d	; 13
      00000F 4B                    1520 	.db #0x4b	; 75	'K'
      000010 00                    1521 	.db #0x00	; 0
      000011 3B                    1522 	.db #0x3b	; 59
      000012 01                    1523 	.db #0x01	; 1
      000013 05                    1524 	.db #0x05	; 5
      000014 0C                    1525 	.db #0x0c	; 12
      000015 17                    1526 	.db #0x17	; 23
      000016 23                    1527 	.db #0x23	; 35
      000017 01                    1528 	.db #0x01	; 1
      000018 00                    1529 	.db #0x00	; 0
      000019 1C                    1530 	.db #0x1c	; 28
      00001A 14                    1531 	.db #0x14	; 20
      00001B 0C                    1532 	.db #0x0c	; 12
      00001C 04                    1533 	.db #0x04	; 4
      00001D 14                    1534 	.db #0x14	; 20
      00001E 23                    1535 	.db #0x23	; 35
      00001F 01                    1536 	.db #0x01	; 1
      000020 1C                    1537 	.db #0x1c	; 28
      000021 00                    1538 	.db #0x00	; 0
      000022 4B                    1539 	.db #0x4b	; 75	'K'
      000023 55                    1540 	.db #0x55	; 85	'U'
      000024 14                    1541 	.db #0x14	; 20
      000025 19                    1542 	.db #0x19	; 25
      000026 21                    1543 	.db #0x21	; 33
      000027 28                    1544 	.db #0x28	; 40
      000028 30                    1545 	.db #0x30	; 48	'0'
      000029 38                    1546 	.db #0x38	; 56	'8'
      00002A 0A                    1547 	.db #0x0a	; 10
      00002B 33                    1548 	.db #0x33	; 51	'3'
      00002C 14                    1549 	.db #0x14	; 20
      00002D 00                    1550 	.db #0x00	; 0
      00002E 55                    1551 	.db #0x55	; 85	'U'
                                   1552 	.area CABS (ABS)
