ASxxxx Linker V03.00 + NoICE + sdld,  page 1.
Hexadecimal  [32-Bits]

Area                                    Addr        Size        Decimal Bytes (Attributes)
--------------------------------        ----        ----        ------- ----- ------------
.  .ABS.                            00000000    00000000 =           0. bytes (ABS,CON)

      Value  Global                              Global Defined In Module
      -----  --------------------------------   ------------------------
     FFFFFFFF  s_SSEG                          
     00000000  .__.ABS.                           
     00000000  l_CABS                          
     00000000  l_DABS                          
     00000000  l__CODE                         
     00000000  s_CABS                          
     00000000  s_DABS                          
     00000000  s__CODE                         
     00000001  l_SSEG                          
     00000001  s_DATA                          
     00000003  l_GSFINAL                       
     0000000C  l_CONST                         
     0000001E  l_GSINIT                        
     0000005E  l_DATA                          
     0000005F  s_INITIALIZED                   
     00000063  l_HOME                          
     00000224  l_INITIALIZED                   
     00000224  l_INITIALIZER                   
     0000592D  l_CODE                          
     00008000  s_HOME                          
     00008063  s_GSINIT                        
     00008081  s_GSFINAL                       
     00008084  s_CONST                         
     00008090  s_INITIALIZER                   
     000082B4  s_CODE                          

ASxxxx Linker V03.00 + NoICE + sdld,  page 2.
Hexadecimal  [32-Bits]

Area                                    Addr        Size        Decimal Bytes (Attributes)
--------------------------------        ----        ----        ------- ----- ------------
DATA                                00000001    0000005E =          94. bytes (REL,CON)

      Value  Global                              Global Defined In Module
      -----  --------------------------------   ------------------------
     00000001  G$ui16_value$0_0$0                 motor
     00000001  _ui16_value                        motor
     00000003  Lmotor.TIM1_CAP_COM_IRQHandler$u   motor
     00000004  Lmotor.TIM1_CAP_COM_IRQHandler$v   motor
     00000005  G$ui8_rx_buffer$0_0$0              ebike_app
     00000005  _ui8_rx_buffer                     ebike_app
     0000000C  G$ui8_tx_buffer$0_0$0              ebike_app
     0000000C  _ui8_tx_buffer                     ebike_app
     00000015  G$configuration_variables$0_0$0    ebike_app
     00000015  _configuration_variables           ebike_app
     00000055  Lebike_app.ebike_control_motor$u   ebike_app
     00000059  Lebike_app.uart_send_package$ui8   ebike_app
     0000005A  Lebike_app.check_system$ui8_moto   ebike_app
     0000005B  Lebike_app.check_system$ui8_moto   ebike_app
     0000005C  Leeprom.eeprom_read_values_to_va   eeprom
     0000005D  Leeprom.eeprom_read_values_to_va   eeprom

ASxxxx Linker V03.00 + NoICE + sdld,  page 3.
Hexadecimal  [32-Bits]

Area                                    Addr        Size        Decimal Bytes (Attributes)
--------------------------------        ----        ----        ------- ----- ------------
INITIALIZED                         0000005F    00000224 =         548. bytes (REL,CON)

      Value  Global                              Global Defined In Module
      -----  --------------------------------   ------------------------
     0000005F  G$ui8_svm_table$0_0$0              motor
     0000005F  _ui8_svm_table                     motor
     0000015F  G$ui8_sin_table$0_0$0              motor
     0000015F  _ui8_sin_table                     motor
     0000019B  G$ui16_PWM_cycles_counter$0_0$0    motor
     0000019B  _ui16_PWM_cycles_counter           motor
     0000019D  G$ui16_PWM_cycles_counter_6$0_0$   motor
     0000019D  _ui16_PWM_cycles_counter_6         motor
     0000019F  G$ui16_PWM_cycles_counter_total$   motor
     0000019F  _ui16_PWM_cycles_counter_total     motor
     000001A1  G$ui16_max_motor_speed_erps$0_0$   motor
     000001A1  _ui16_max_motor_speed_erps         motor
     000001A3  Fmotor$ui16_motor_speed_erps$0_0   motor
     000001A5  G$ui8_svm_table_index$0_0$0        motor
     000001A5  _ui8_svm_table_index               motor
     000001A6  G$ui8_motor_rotor_absolute_angle   motor
     000001A6  _ui8_motor_rotor_absolute_angle    motor
     000001A7  G$ui8_motor_rotor_angle$0_0$0      motor
     000001A7  _ui8_motor_rotor_angle             motor
     000001A8  G$ui8_foc_angle$0_0$0              motor
     000001A8  _ui8_foc_angle                     motor
     000001A9  G$ui8_interpolation_angle$0_0$0    motor
     000001A9  _ui8_interpolation_angle           motor
     000001AA  G$ui16_foc_angle_accumulated$0_0   motor
     000001AA  _ui16_foc_angle_accumulated        motor
     000001AC  G$ui8_motor_commutation_type$0_0   motor
     000001AC  _ui8_motor_commutation_type        motor
     000001AD  G$ui8_motor_controller_state$0_0   motor
     000001AD  _ui8_motor_controller_state        motor
     000001AE  G$ui8_hall_sensors_state$0_0$0     motor
     000001AE  _ui8_hall_sensors_state            motor
     000001AF  G$ui8_hall_sensors_state_last$0_   motor
     000001AF  _ui8_hall_sensors_state_last       motor
     000001B0  G$ui8_half_erps_flag$0_0$0         motor
     000001B0  _ui8_half_erps_flag                motor
     000001B1  G$ui8_duty_cycle$0_0$0             motor
     000001B1  _ui8_duty_cycle                    motor
     000001B2  Fmotor$ui8_duty_cycle_target$0_0   motor
     000001B3  G$ui16_duty_cycle_ramp_up_invers   motor
     000001B3  _ui16_duty_cycle_ramp_up_inverse   motor
     000001B5  G$ui16_duty_cycle_ramp_down_inve   motor
     000001B5  _ui16_duty_cycle_ramp_down_inver   motor
     000001B7  G$ui16_counter_duty_cycle_ramp_u   motor
     000001B7  _ui16_counter_duty_cycle_ramp_up   motor
     000001B9  G$ui16_counter_duty_cycle_ramp_d   motor
     000001B9  _ui16_counter_duty_cycle_ramp_do   motor
     000001BB  G$ui8_phase_a_voltage$0_0$0        motor
     000001BB  _ui8_phase_a_voltage               motor
     000001BC  G$ui8_phase_b_voltage$0_0$0        motor
     000001BC  _ui8_phase_b_voltage               motor
ASxxxx Linker V03.00 + NoICE + sdld,  page 4.
Hexadecimal  [32-Bits]

Area                                    Addr        Size        Decimal Bytes (Attributes)
--------------------------------        ----        ----        ------- ----- ------------
INITIALIZED                         0000005F    00000224 =         548. bytes (REL,CON)

      Value  Global                              Global Defined In Module
      -----  --------------------------------   ------------------------
     000001BD  G$ui8_phase_c_voltage$0_0$0        motor
     000001BD  _ui8_phase_c_voltage               motor
     000001BE  G$ui16_counter_adc_battery_curre   motor
     000001BE  _ui16_counter_adc_battery_curren   motor
     000001C0  G$ui8_controller_adc_battery_max   motor
     000001C0  _ui8_controller_adc_battery_max_   motor
     000001C1  G$ui16_counter_adc_motor_current   motor
     000001C1  _ui16_counter_adc_motor_current_   motor
     000001C3  G$ui8_controller_adc_motor_max_c   motor
     000001C3  _ui8_controller_adc_motor_max_cu   motor
     000001C4  G$ui8_first_time_run_flag$0_0$0    motor
     000001C4  _ui8_first_time_run_flag           motor
     000001C5  G$ui8_adc_battery_voltage_cut_of   motor
     000001C5  _ui8_adc_battery_voltage_cut_off   motor
     000001C6  G$ui16_adc_battery_voltage_accum   motor
     000001C6  _ui16_adc_battery_voltage_accumu   motor
     000001C8  G$ui16_adc_battery_voltage_filte   motor
     000001C8  _ui16_adc_battery_voltage_filter   motor
     000001CA  G$ui16_adc_battery_current_accum   motor
     000001CA  _ui16_adc_battery_current_accumu   motor
     000001CC  G$ui8_adc_battery_current_filter   motor
     000001CC  _ui8_adc_battery_current_filtere   motor
     000001CD  G$ui16_adc_battery_current_10b$0   motor
     000001CD  _ui16_adc_battery_current_10b      motor
     000001CF  G$ui8_adc_battery_current$0_0$0    motor
     000001CF  _ui8_adc_battery_current           motor
     000001D0  Fmotor$ui8_adc_motor_phase_curre   motor
     000001D1  G$ui8_current_controller_counter   motor
     000001D1  _ui8_current_controller_counter    motor
     000001D2  G$ui8_current_controller_flag$0_   motor
     000001D2  _ui8_current_controller_flag       motor
     000001D3  G$ui8_adc_target_motor_phase_max   motor
     000001D3  _ui8_adc_target_motor_phase_max_   motor
     000001D4  G$ui8_adc_motor_phase_current_of   motor
     000001D4  _ui8_adc_motor_phase_current_off   motor
     000001D5  G$ui8_pas_state$0_0$0              motor
     000001D5  _ui8_pas_state                     motor
     000001D6  G$ui8_pas_state_old$0_0$0          motor
     000001D6  _ui8_pas_state_old                 motor
     000001D7  G$ui8_pas_after_first_pulse$0_0$   motor
     000001D7  _ui8_pas_after_first_pulse         motor
     000001D8  G$ui16_pas_counter$0_0$0           motor
     000001D8  _ui16_pas_counter                  motor
     000001DA  G$ui16_torque_sensor_throttle_pr   motor
     000001DA  _ui16_torque_sensor_throttle_pro   motor
     000001DC  G$ui8_torque_sensor_pas_signal_c   motor
     000001DC  _ui8_torque_sensor_pas_signal_ch   motor
     000001DD  G$ui16_torque_sensor_throttle_ma   motor
     000001DD  _ui16_torque_sensor_throttle_max   motor
     000001DF  G$ui16_torque_sensor_throttle_va   motor
     000001DF  _ui16_torque_sensor_throttle_val   motor
ASxxxx Linker V03.00 + NoICE + sdld,  page 5.
Hexadecimal  [32-Bits]

Area                                    Addr        Size        Decimal Bytes (Attributes)
--------------------------------        ----        ----        ------- ----- ------------
INITIALIZED                         0000005F    00000224 =         548. bytes (REL,CON)

      Value  Global                              Global Defined In Module
      -----  --------------------------------   ------------------------
     000001E1  G$ui8_wheel_speed_sensor_state$0   motor
     000001E1  _ui8_wheel_speed_sensor_state      motor
     000001E2  G$ui8_wheel_speed_sensor_state_o   motor
     000001E2  _ui8_wheel_speed_sensor_state_ol   motor
     000001E3  G$ui16_wheel_speed_sensor_counte   motor
     000001E3  _ui16_wheel_speed_sensor_counter   motor
     000001E5  G$ui8_wheel_speed_sensor_change_   motor
     000001E5  _ui8_wheel_speed_sensor_change_c   motor
     000001E6  G$ui8_throttle$0_0$0               ebike_app
     000001E6  _ui8_throttle                      ebike_app
     000001E7  G$ui8_torque_sensor$0_0$0          ebike_app
     000001E7  _ui8_torque_sensor                 ebike_app
     000001E8  G$ui8_torque_sensor_raw$0_0$0      ebike_app
     000001E8  _ui8_torque_sensor_raw             ebike_app
     000001E9  G$f_pedal_torque_sensor_unit$0_0   ebike_app
     000001E9  _f_pedal_torque_sensor_unit        ebike_app
     000001ED  G$ui8_adc_torque_sensor_min_valu   ebike_app
     000001ED  _ui8_adc_torque_sensor_min_value   ebike_app
     000001EE  G$ui8_adc_torque_sensor_max_valu   ebike_app
     000001EE  _ui8_adc_torque_sensor_max_value   ebike_app
     000001EF  G$ui8_adc_battery_current_offset   ebike_app
     000001EF  _ui8_adc_battery_current_offset    ebike_app
     000001F0  G$ui8_ebike_app_state$0_0$0        ebike_app
     000001F0  _ui8_ebike_app_state               ebike_app
     000001F1  G$ui8_adc_target_battery_max_cur   ebike_app
     000001F1  _ui8_adc_target_battery_max_curr   ebike_app
     000001F2  G$ui8_adc_target_motor_max_curre   ebike_app
     000001F2  _ui8_adc_target_motor_max_curren   ebike_app
     000001F3  G$ui8_adc_battery_current_max$0_   ebike_app
     000001F3  _ui8_adc_battery_current_max       ebike_app
     000001F4  G$ui8_adc_motor_current_max$0_0$   ebike_app
     000001F4  _ui8_adc_motor_current_max         ebike_app
     000001F5  G$f_torque_assist_ratio$0_0$0      ebike_app
     000001F5  _f_torque_assist_ratio             ebike_app
     000001F9  G$ui8_system_state$0_0$0           ebike_app
     000001F9  _ui8_system_state                  ebike_app
     000001FA  G$ui16_pas_pwm_cycles_ticks$0_0$   ebike_app
     000001FA  _ui16_pas_pwm_cycles_ticks         ebike_app
     000001FC  Febike_app$ui8_motor_enabled$0_0   ebike_app
     000001FD  G$ui8_pedaling_direction$0_0$0     ebike_app
     000001FD  _ui8_pedaling_direction            ebike_app
     000001FE  G$ui8_pas_direction$0_0$0          ebike_app
     000001FE  _ui8_pas_direction                 ebike_app
     000001FF  G$ui8_assist_level$0_0$0           ebike_app
     000001FF  _ui8_assist_level                  ebike_app
     00000200  G$ui8_pas_cadence_rpm$0_0$0        ebike_app
     00000200  _ui8_pas_cadence_rpm               ebike_app
     00000201  G$ui8_pas_backwards_cadence_rpm$   ebike_app
     00000201  _ui8_pas_backwards_cadence_rpm     ebike_app
     00000202  G$ui16_pedal_torque_x10$0_0$0      ebike_app
     00000202  _ui16_pedal_torque_x10             ebike_app
ASxxxx Linker V03.00 + NoICE + sdld,  page 6.
Hexadecimal  [32-Bits]

Area                                    Addr        Size        Decimal Bytes (Attributes)
--------------------------------        ----        ----        ------- ----- ------------
INITIALIZED                         0000005F    00000224 =         548. bytes (REL,CON)

      Value  Global                              Global Defined In Module
      -----  --------------------------------   ------------------------
     00000204  G$ui16_pedal_torque_x_cadence$0_   ebike_app
     00000204  _ui16_pedal_torque_x_cadence       ebike_app
     00000206  G$ui16_max_pedal_power_x_emtb_mo   ebike_app
     00000206  _ui16_max_pedal_power_x_emtb_mot   ebike_app
     00000208  G$ui8_startup_boost_enable$0_0$0   ebike_app
     00000208  _ui8_startup_boost_enable          ebike_app
     00000209  G$ui8_startup_boost_fade_enable$   ebike_app
     00000209  _ui8_startup_boost_fade_enable     ebike_app
     0000020A  G$ui8_startup_boost_state_machin   ebike_app
     0000020A  _ui8_startup_boost_state_machine   ebike_app
     0000020B  G$ui8_startup_boost_timer$0_0$0    ebike_app
     0000020B  _ui8_startup_boost_timer           ebike_app
     0000020C  G$ui8_startup_boost_fade_steps$0   ebike_app
     0000020C  _ui8_startup_boost_fade_steps      ebike_app
     0000020D  G$ui16_startup_boost_fade_variab   ebike_app
     0000020D  _ui16_startup_boost_fade_variabl   ebike_app
     0000020F  G$ui16_startup_boost_fade_variab   ebike_app
     0000020F  _ui16_startup_boost_fade_variabl   ebike_app
     00000211  G$ui16_wheel_speed_sensor_pwm_cy   ebike_app
     00000211  _ui16_wheel_speed_sensor_pwm_cyc   ebike_app
     00000213  G$f_wheel_speed_x10$0_0$0          ebike_app
     00000213  _f_wheel_speed_x10                 ebike_app
     00000217  Febike_app$ui16_wheel_speed_x10$   ebike_app
     00000219  G$ui32_wheel_speed_sensor_tick_c   ebike_app
     00000219  _ui32_wheel_speed_sensor_tick_co   ebike_app
     0000021D  G$f_oem_wheel_speed$0_0$0          ebike_app
     0000021D  _f_oem_wheel_speed                 ebike_app
     00000221  G$ui16_oem_wheel_speed$0_0$0       ebike_app
     00000221  _ui16_oem_wheel_speed              ebike_app
     00000223  G$ui8_received_package_flag$0_0$   ebike_app
     00000223  _ui8_received_package_flag         ebike_app
     00000224  G$ui8_rx_counter$0_0$0             ebike_app
     00000224  _ui8_rx_counter                    ebike_app
     00000225  G$ui8_tx_counter$0_0$0             ebike_app
     00000225  _ui8_tx_counter                    ebike_app
     00000226  G$ui8_byte_received$0_0$0          ebike_app
     00000226  _ui8_byte_received                 ebike_app
     00000227  G$ui8_state_machine$0_0$0          ebike_app
     00000227  _ui8_state_machine                 ebike_app
     00000228  G$ui8_tstr_state_machine$0_0$0     ebike_app
     00000228  _ui8_tstr_state_machine            ebike_app
     00000229  G$ui8_rtst_counter$0_0$0           ebike_app
     00000229  _ui8_rtst_counter                  ebike_app
     0000022A  G$ui16_adc_motor_temperatured_ac   ebike_app
     0000022A  _ui16_adc_motor_temperatured_acc   ebike_app
     0000022C  G$ui8_overtemperature$0_0$0        ebike_app
     0000022C  _ui8_overtemperature               ebike_app
     0000022D  G$ui8_adc_battery_target_current   ebike_app
     0000022D  _ui8_adc_battery_target_current    ebike_app
     0000022E  G$ui8_adc_motor_target_current$0   ebike_app
     0000022E  _ui8_adc_motor_target_current      ebike_app
ASxxxx Linker V03.00 + NoICE + sdld,  page 7.
Hexadecimal  [32-Bits]

Area                                    Addr        Size        Decimal Bytes (Attributes)
--------------------------------        ----        ----        ------- ----- ------------
INITIALIZED                         0000005F    00000224 =         548. bytes (REL,CON)

      Value  Global                              Global Defined In Module
      -----  --------------------------------   ------------------------
     0000022F  Febike_app$ui8_brake_is_set$0_0$   ebike_app
     00000230  G$ui32_battery_voltage_accumulat   ebike_app
     00000230  _ui32_battery_voltage_accumulate   ebike_app
     00000234  G$ui16_battery_current_accumulat   ebike_app
     00000234  _ui16_battery_current_accumulate   ebike_app
     00000236  G$ui8_battery_state_of_charge$0_   ebike_app
     00000236  _ui8_battery_state_of_charge       ebike_app
     00000237  G$f_soft_start_factor$0_0$0        ebike_app
     00000237  _f_soft_start_factor               ebike_app
     0000023B  G$f_soft_start_factor_old$0_0$0    ebike_app
     0000023B  _f_soft_start_factor_old           ebike_app
     0000023F  G$ui16_soft_start_time$0_0$0       ebike_app
     0000023F  _ui16_soft_start_time              ebike_app
     00000241  G$ui8_timer_counter$0_0$0          ebike_app
     00000241  _ui8_timer_counter                 ebike_app
     00000242  G$ui8_startup_counter$0_0$0        ebike_app
     00000242  _ui8_startup_counter               ebike_app
     00000243  G$ui8_lights_counter$0_0$0         ebike_app
     00000243  _ui8_lights_counter                ebike_app
     00000244  G$ui16_walk_assist_delay_off$0_0   ebike_app
     00000244  _ui16_walk_assist_delay_off        ebike_app
     00000246  G$ui8_walk_assist_delay_off_flag   ebike_app
     00000246  _ui8_walk_assist_delay_off_flag    ebike_app
     00000247  G$ui8_display_ready_flag$0_0$0     ebike_app
     00000247  _ui8_display_ready_flag            ebike_app
     00000248  G$ui8_enable_walk_assist$0_0$0     ebike_app
     00000248  _ui8_enable_walk_assist            ebike_app
     00000249  G$ui8_walk_assist_flag$0_0$0       ebike_app
     00000249  _ui8_walk_assist_flag              ebike_app
     0000024A  G$ui8_walk_assist$0_0$0            ebike_app
     0000024A  _ui8_walk_assist                   ebike_app
     0000024B  G$ui8_walk_assist_current_per_ce   ebike_app
     0000024B  _ui8_walk_assist_current_per_cen   ebike_app
     0000024C  G$ui8_walk_assist_start$0_0$0      ebike_app
     0000024C  _ui8_walk_assist_start             ebike_app
     0000024D  G$ui8_walk_assist_pwm$0_0$0        ebike_app
     0000024D  _ui8_walk_assist_pwm               ebike_app
     0000024E  G$ui8_walk_assist_pwm_step$0_0$0   ebike_app
     0000024E  _ui8_walk_assist_pwm_step          ebike_app
     0000024F  G$ui8_default_flag$0_0$0           ebike_app
     0000024F  _ui8_default_flag                  ebike_app
     00000250  G$ui8_lights_flag$0_0$0            ebike_app
     00000250  _ui8_lights_flag                   ebike_app
     00000251  G$ui8_mode_flag$0_0$0              ebike_app
     00000251  _ui8_mode_flag                     ebike_app
     00000252  G$ui8_boost_flag$0_0$0             ebike_app
     00000252  _ui8_boost_flag                    ebike_app
     00000253  G$ui8_emtb_flag$0_0$0              ebike_app
     00000253  _ui8_emtb_flag                     ebike_app
     00000254  Feeprom$array_default_values$0_0   eeprom

ASxxxx Linker V03.00 + NoICE + sdld,  page 8.
Hexadecimal  [32-Bits]

Area                                    Addr        Size        Decimal Bytes (Attributes)
--------------------------------        ----        ----        ------- ----- ------------
SSEG                                FFFFFFFF    00000001 =           1. bytes (REL,CON)

      Value  Global                              Global Defined In Module
      -----  --------------------------------   ------------------------
ASxxxx Linker V03.00 + NoICE + sdld,  page 9.
Hexadecimal  [32-Bits]

Area                                    Addr        Size        Decimal Bytes (Attributes)
--------------------------------        ----        ----        ------- ----- ------------
HOME                                00008000    00000063 =          99. bytes (REL,CON)

      Value  Global                              Global Defined In Module
      -----  --------------------------------   ------------------------
     00008000  A$main$64                          main
     00008004  A$main$65                          main
     00008008  A$main$66                          main
     0000800C  A$main$67                          main
     00008010  A$main$68                          main
     00008014  A$main$69                          main
     00008018  A$main$70                          main
     0000801C  A$main$71                          main
     00008020  A$main$72                          main
     00008024  A$main$73                          main
     00008028  A$main$74                          main
     0000802C  A$main$75                          main
     00008030  A$main$76                          main
     00008034  A$main$77                          main
     00008038  A$main$78                          main
     0000803C  A$main$79                          main
     00008040  A$main$80                          main
     00008044  A$main$81                          main
     00008048  A$main$82                          main
     0000804C  A$main$83                          main
     00008050  A$main$84                          main
     00008054  A$main$85                          main
     00008058  A$main$86                          main
     0000805C  A$main$87                          main
     00008060  A$main$122                         main

ASxxxx Linker V03.00 + NoICE + sdld,  page 10.
Hexadecimal  [32-Bits]

Area                                    Addr        Size        Decimal Bytes (Attributes)
--------------------------------        ----        ----        ------- ----- ------------
GSINIT                              00008063    0000001E =          30. bytes (REL,CON)

      Value  Global                              Global Defined In Module
      -----  --------------------------------   ------------------------
     00008063  A$main$98                          main
     00008066  A$main$99                          main
     00008068  A$main$101                         main
     0000806C  A$main$102                         main
     0000806D  A$main$103                         main
     0000806F  A$main$105                         main
     00008072  A$main$106                         main
     00008074  A$main$108                         main
     00008077  A$main$109                         main
     0000807A  A$main$110                         main
     0000807B  A$main$111                         main
     0000807D  A$ebike_app$374                    ebike_app
     0000807D  C$ebike_app.c$1350$2_0$508         ebike_app

ASxxxx Linker V03.00 + NoICE + sdld,  page 11.
Hexadecimal  [32-Bits]

Area                                    Addr        Size        Decimal Bytes (Attributes)
--------------------------------        ----        ----        ------- ----- ------------
GSFINAL                             00008081    00000003 =           3. bytes (REL,CON)

      Value  Global                              Global Defined In Module
      -----  --------------------------------   ------------------------
     00008081  A$main$115                         main

ASxxxx Linker V03.00 + NoICE + sdld,  page 12.
Hexadecimal  [32-Bits]

Area                                    Addr        Size        Decimal Bytes (Attributes)
--------------------------------        ----        ----        ------- ----- ------------
CONST                               00008084    0000000C =          12. bytes (REL,CON)

      Value  Global                              Global Defined In Module
      -----  --------------------------------   ------------------------
     00008084  G$HSIDivFactor$0_0$0               stm8s_clk
     00008084  _HSIDivFactor                      stm8s_clk
     00008088  G$CLKPrescTable$0_0$0              stm8s_clk
     00008088  _CLKPrescTable                     stm8s_clk

ASxxxx Linker V03.00 + NoICE + sdld,  page 13.
Hexadecimal  [32-Bits]

Area                                    Addr        Size        Decimal Bytes (Attributes)
--------------------------------        ----        ----        ------- ----- ------------
INITIALIZER                         00008090    00000224 =         548. bytes (REL,CON)

      Value  Global                              Global Defined In Module
      -----  --------------------------------   ------------------------
     00008090  Fmotor$__xinit_ui8_svm_table$0_0   motor
     00008190  Fmotor$__xinit_ui8_sin_table$0_0   motor
     000081CC  Fmotor$__xinit_ui16_PWM_cycles_c   motor
     000081CE  Fmotor$__xinit_ui16_PWM_cycles_c   motor
     000081D0  Fmotor$__xinit_ui16_PWM_cycles_c   motor
     000081D2  Fmotor$__xinit_ui16_max_motor_sp   motor
     000081D4  Fmotor$__xinit_ui16_motor_speed_   motor
     000081D6  Fmotor$__xinit_ui8_svm_table_ind   motor
     000081D7  Fmotor$__xinit_ui8_motor_rotor_a   motor
     000081D8  Fmotor$__xinit_ui8_motor_rotor_a   motor
     000081D9  Fmotor$__xinit_ui8_foc_angle$0_0   motor
     000081DA  Fmotor$__xinit_ui8_interpolation   motor
     000081DB  Fmotor$__xinit_ui16_foc_angle_ac   motor
     000081DD  Fmotor$__xinit_ui8_motor_commuta   motor
     000081DE  Fmotor$__xinit_ui8_motor_control   motor
     000081DF  Fmotor$__xinit_ui8_hall_sensors_   motor
     000081E0  Fmotor$__xinit_ui8_hall_sensors_   motor
     000081E1  Fmotor$__xinit_ui8_half_erps_fla   motor
     000081E2  Fmotor$__xinit_ui8_duty_cycle$0_   motor
     000081E3  Fmotor$__xinit_ui8_duty_cycle_ta   motor
     000081E4  Fmotor$__xinit_ui16_duty_cycle_r   motor
     000081E6  Fmotor$__xinit_ui16_duty_cycle_r   motor
     000081E8  Fmotor$__xinit_ui16_counter_duty   motor
     000081EA  Fmotor$__xinit_ui16_counter_duty   motor
     000081EC  Fmotor$__xinit_ui8_phase_a_volta   motor
     000081ED  Fmotor$__xinit_ui8_phase_b_volta   motor
     000081EE  Fmotor$__xinit_ui8_phase_c_volta   motor
     000081EF  Fmotor$__xinit_ui16_counter_adc_   motor
     000081F1  Fmotor$__xinit_ui8_controller_ad   motor
     000081F2  Fmotor$__xinit_ui16_counter_adc_   motor
     000081F4  Fmotor$__xinit_ui8_controller_ad   motor
     000081F5  Fmotor$__xinit_ui8_first_time_ru   motor
     000081F6  Fmotor$__xinit_ui8_adc_battery_v   motor
     000081F7  Fmotor$__xinit_ui16_adc_battery_   motor
     000081F9  Fmotor$__xinit_ui16_adc_battery_   motor
     000081FB  Fmotor$__xinit_ui16_adc_battery_   motor
     000081FD  Fmotor$__xinit_ui8_adc_battery_c   motor
     000081FE  Fmotor$__xinit_ui16_adc_battery_   motor
     00008200  Fmotor$__xinit_ui8_adc_battery_c   motor
     00008201  Fmotor$__xinit_ui8_adc_motor_pha   motor
     00008202  Fmotor$__xinit_ui8_current_contr   motor
     00008203  Fmotor$__xinit_ui8_current_contr   motor
     00008204  Fmotor$__xinit_ui8_adc_target_mo   motor
     00008205  Fmotor$__xinit_ui8_adc_motor_pha   motor
     00008206  Fmotor$__xinit_ui8_pas_state$0_0   motor
     00008207  Fmotor$__xinit_ui8_pas_state_old   motor
     00008208  Fmotor$__xinit_ui8_pas_after_fir   motor
     00008209  Fmotor$__xinit_ui16_pas_counter$   motor
     0000820B  Fmotor$__xinit_ui16_torque_senso   motor
     0000820D  Fmotor$__xinit_ui8_torque_sensor   motor
ASxxxx Linker V03.00 + NoICE + sdld,  page 14.
Hexadecimal  [32-Bits]

Area                                    Addr        Size        Decimal Bytes (Attributes)
--------------------------------        ----        ----        ------- ----- ------------
INITIALIZER                         00008090    00000224 =         548. bytes (REL,CON)

      Value  Global                              Global Defined In Module
      -----  --------------------------------   ------------------------
     0000820E  Fmotor$__xinit_ui16_torque_senso   motor
     00008210  Fmotor$__xinit_ui16_torque_senso   motor
     00008212  Fmotor$__xinit_ui8_wheel_speed_s   motor
     00008213  Fmotor$__xinit_ui8_wheel_speed_s   motor
     00008214  Fmotor$__xinit_ui16_wheel_speed_   motor
     00008216  Fmotor$__xinit_ui8_wheel_speed_s   motor
     00008217  Febike_app$__xinit_ui8_throttle$   ebike_app
     00008218  Febike_app$__xinit_ui8_torque_se   ebike_app
     00008219  Febike_app$__xinit_ui8_torque_se   ebike_app
     0000821A  Febike_app$__xinit_f_pedal_torqu   ebike_app
     0000821E  Febike_app$__xinit_ui8_adc_torqu   ebike_app
     0000821F  Febike_app$__xinit_ui8_adc_torqu   ebike_app
     00008220  Febike_app$__xinit_ui8_adc_batte   ebike_app
     00008221  Febike_app$__xinit_ui8_ebike_app   ebike_app
     00008222  Febike_app$__xinit_ui8_adc_targe   ebike_app
     00008223  Febike_app$__xinit_ui8_adc_targe   ebike_app
     00008224  Febike_app$__xinit_ui8_adc_batte   ebike_app
     00008225  Febike_app$__xinit_ui8_adc_motor   ebike_app
     00008226  Febike_app$__xinit_f_torque_assi   ebike_app
     0000822A  Febike_app$__xinit_ui8_system_st   ebike_app
     0000822B  Febike_app$__xinit_ui16_pas_pwm_   ebike_app
     0000822D  Febike_app$__xinit_ui8_motor_ena   ebike_app
     0000822E  Febike_app$__xinit_ui8_pedaling_   ebike_app
     0000822F  Febike_app$__xinit_ui8_pas_direc   ebike_app
     00008230  Febike_app$__xinit_ui8_assist_le   ebike_app
     00008231  Febike_app$__xinit_ui8_pas_caden   ebike_app
     00008232  Febike_app$__xinit_ui8_pas_backw   ebike_app
     00008233  Febike_app$__xinit_ui16_pedal_to   ebike_app
     00008235  Febike_app$__xinit_ui16_pedal_to   ebike_app
     00008237  Febike_app$__xinit_ui16_max_peda   ebike_app
     00008239  Febike_app$__xinit_ui8_startup_b   ebike_app
     0000823A  Febike_app$__xinit_ui8_startup_b   ebike_app
     0000823B  Febike_app$__xinit_ui8_startup_b   ebike_app
     0000823C  Febike_app$__xinit_ui8_startup_b   ebike_app
     0000823D  Febike_app$__xinit_ui8_startup_b   ebike_app
     0000823E  Febike_app$__xinit_ui16_startup_   ebike_app
     00008240  Febike_app$__xinit_ui16_startup_   ebike_app
     00008242  Febike_app$__xinit_ui16_wheel_sp   ebike_app
     00008244  Febike_app$__xinit_f_wheel_speed   ebike_app
     00008248  Febike_app$__xinit_ui16_wheel_sp   ebike_app
     0000824A  Febike_app$__xinit_ui32_wheel_sp   ebike_app
     0000824E  Febike_app$__xinit_f_oem_wheel_s   ebike_app
     00008252  Febike_app$__xinit_ui16_oem_whee   ebike_app
     00008254  Febike_app$__xinit_ui8_received_   ebike_app
     00008255  Febike_app$__xinit_ui8_rx_counte   ebike_app
     00008256  Febike_app$__xinit_ui8_tx_counte   ebike_app
     00008257  Febike_app$__xinit_ui8_byte_rece   ebike_app
     00008258  Febike_app$__xinit_ui8_state_mac   ebike_app
     00008259  Febike_app$__xinit_ui8_tstr_stat   ebike_app
     0000825A  Febike_app$__xinit_ui8_rtst_coun   ebike_app
     0000825B  Febike_app$__xinit_ui16_adc_moto   ebike_app
ASxxxx Linker V03.00 + NoICE + sdld,  page 15.
Hexadecimal  [32-Bits]

Area                                    Addr        Size        Decimal Bytes (Attributes)
--------------------------------        ----        ----        ------- ----- ------------
INITIALIZER                         00008090    00000224 =         548. bytes (REL,CON)

      Value  Global                              Global Defined In Module
      -----  --------------------------------   ------------------------
     0000825D  Febike_app$__xinit_ui8_overtempe   ebike_app
     0000825E  Febike_app$__xinit_ui8_adc_batte   ebike_app
     0000825F  Febike_app$__xinit_ui8_adc_motor   ebike_app
     00008260  Febike_app$__xinit_ui8_brake_is_   ebike_app
     00008261  Febike_app$__xinit_ui32_battery_   ebike_app
     00008265  Febike_app$__xinit_ui16_battery_   ebike_app
     00008267  Febike_app$__xinit_ui8_battery_s   ebike_app
     00008268  Febike_app$__xinit_f_soft_start_   ebike_app
     0000826C  Febike_app$__xinit_f_soft_start_   ebike_app
     00008270  Febike_app$__xinit_ui16_soft_sta   ebike_app
     00008272  Febike_app$__xinit_ui8_timer_cou   ebike_app
     00008273  Febike_app$__xinit_ui8_startup_c   ebike_app
     00008274  Febike_app$__xinit_ui8_lights_co   ebike_app
     00008275  Febike_app$__xinit_ui16_walk_ass   ebike_app
     00008277  Febike_app$__xinit_ui8_walk_assi   ebike_app
     00008278  Febike_app$__xinit_ui8_display_r   ebike_app
     00008279  Febike_app$__xinit_ui8_enable_wa   ebike_app
     0000827A  Febike_app$__xinit_ui8_walk_assi   ebike_app
     0000827B  Febike_app$__xinit_ui8_walk_assi   ebike_app
     0000827C  Febike_app$__xinit_ui8_walk_assi   ebike_app
     0000827D  Febike_app$__xinit_ui8_walk_assi   ebike_app
     0000827E  Febike_app$__xinit_ui8_walk_assi   ebike_app
     0000827F  Febike_app$__xinit_ui8_walk_assi   ebike_app
     00008280  Febike_app$__xinit_ui8_default_f   ebike_app
     00008281  Febike_app$__xinit_ui8_lights_fl   ebike_app
     00008282  Febike_app$__xinit_ui8_mode_flag   ebike_app
     00008283  Febike_app$__xinit_ui8_boost_fla   ebike_app
     00008284  Febike_app$__xinit_ui8_emtb_flag   ebike_app
     00008285  Feeprom$__xinit_array_default_va   eeprom

ASxxxx Linker V03.00 + NoICE + sdld,  page 16.
Hexadecimal  [32-Bits]

Area                                    Addr        Size        Decimal Bytes (Attributes)
--------------------------------        ----        ----        ------- ----- ------------
CODE                                000082B4    0000592D =       22829. bytes (REL,CON)

      Value  Global                              Global Defined In Module
      -----  --------------------------------   ------------------------
     000082B4  A$main$135                         main
     000082B4  C$main.c$66$0_0$403                main
     000082B4  G$main$0$0                         main
     000082B4  _main                              main
     000082B6  A$main$138                         main
     000082B6  C$main.c$69$2_0$403                main
     000082B7  A$main$139                         main
     000082B9  A$main$142                         main
     000082B9  C$main.c$70$2_0$403                main
     000082BA  A$main$143                         main
     000082BC  A$main$146                         main
     000082BC  C$main.c$77$1_0$403                main
     000082BE  A$main$147                         main
     000082C1  A$main$148                         main
     000082C2  A$main$151                         main
     000082C2  C$main.c$80$2_0$404                main
     000082C5  A$main$152                         main
     000082C7  A$main$153                         main
     000082CA  A$main$155                         main
     000082CC  A$main$156                         main
     000082D0  A$main$157                         main
     000082D2  A$main$158                         main
     000082D3  A$main$159                         main
     000082D5  A$main$160                         main
     000082D7  A$main$161                         main
     000082D8  A$main$162                         main
     000082DA  A$main$163                         main
     000082DC  A$main$164                         main
     000082DE  A$main$165                         main
     000082E0  A$main$166                         main
     000082E2  A$main$167                         main
     000082E4  A$main$168                         main
     000082E6  A$main$169                         main
     000082E8  A$main$170                         main
     000082EA  A$main$173                         main
     000082EA  C$main.c$88$1_0$403                main
     000082ED  A$main$176                         main
     000082ED  C$main.c$91$1_0$403                main
     000082F0  A$main$179                         main
     000082F0  C$main.c$94$1_0$403                main
     000082F3  A$main$182                         main
     000082F3  C$main.c$101$1_0$403               main
     000082F6  A$main$185                         main
     000082F6  C$main.c$104$1_0$403               main
     000082F9  A$main$188                         main
     000082F9  C$main.c$107$1_0$403               main
     000082FC  A$main$191                         main
     000082FC  C$main.c$110$1_0$403               main
     000082FF  A$main$194                         main
     000082FF  C$main.c$113$1_0$403               main
ASxxxx Linker V03.00 + NoICE + sdld,  page 17.
Hexadecimal  [32-Bits]

Area                                    Addr        Size        Decimal Bytes (Attributes)
--------------------------------        ----        ----        ------- ----- ------------
CODE                                000082B4    0000592D =       22829. bytes (REL,CON)

      Value  Global                              Global Defined In Module
      -----  --------------------------------   ------------------------
     00008302  A$main$197                         main
     00008302  C$main.c$116$1_0$403               main
     00008305  A$main$200                         main
     00008305  C$main.c$119$1_0$403               main
     00008308  A$main$203                         main
     00008308  C$main.c$122$1_0$403               main
     0000830B  A$main$206                         main
     0000830B  C$main.c$125$1_0$403               main
     0000830E  A$main$209                         main
     0000830E  C$main.c$128$1_0$403               main
     00008311  A$main$212                         main
     00008311  C$main.c$131$1_0$403               main
     00008314  A$main$215                         main
     00008314  C$main.c$134$1_0$403               main
     00008317  A$main$218                         main
     00008317  C$main.c$137$2_0$405               main
     00008318  A$main$222                         main
     00008318  C$main.c$144$3_0$407               main
     0000831B  A$main$223                         main
     0000831D  A$main$226                         main
     0000831D  C$main.c$145$3_0$407               main
     0000831F  A$main$227                         main
     00008322  A$main$228                         main
     00008325  A$main$229                         main
     00008327  A$main$232                         main
     00008327  C$main.c$147$4_0$408               main
     00008329  A$main$233                         main
     0000832B  A$main$236                         main
     0000832B  C$main.c$148$4_0$408               main
     0000832E  A$main$239                         main
     0000832E  C$main.c$149$4_0$408               main
     00008330  A$main$243                         main
     00008330  C$main.c$152$3_0$407               main
     00008333  A$main$244                         main
     00008334  A$main$247                         main
     00008334  C$main.c$153$3_0$407               main
     00008335  A$main$248                         main
     00008338  A$main$249                         main
     0000833B  A$main$250                         main
     0000833D  A$main$253                         main
     0000833D  C$main.c$155$4_0$409               main
     0000833F  A$main$256                         main
     0000833F  C$main.c$156$4_0$409               main
     00008342  A$main$259                         main
     00008342  C$main.c$157$4_0$409               main
     00008344  A$main$262                         main
     00008346  A$main$265                         main
     00008346  C$main.c$190$2_0$403               main
     00008346  XG$main$0$0                        main
     00008347  A$stm8s_iwdgSTM8S_StdPeriph_Lib/   stm8s_iwdg
     00008347  C$stm8s_iwdg.c$48$0_0$346          stm8s_iwdg
ASxxxx Linker V03.00 + NoICE + sdld,  page 18.
Hexadecimal  [32-Bits]

Area                                    Addr        Size        Decimal Bytes (Attributes)
--------------------------------        ----        ----        ------- ----- ------------
CODE                                000082B4    0000592D =       22829. bytes (REL,CON)

      Value  Global                              Global Defined In Module
      -----  --------------------------------   ------------------------
     00008347  C$stm8s_iwdg.c$53$1_0$346          stm8s_iwdg
     00008347  G$IWDG_WriteAccessCmd$0$0          stm8s_iwdg
     00008347  _IWDG_WriteAccessCmd               stm8s_iwdg
     0000834A  A$stm8s_iwdgSTM8S_StdPeriph_Lib/   stm8s_iwdg
     0000834C  A$stm8s_iwdgSTM8S_StdPeriph_Lib/   stm8s_iwdg
     0000834D  A$stm8s_iwdgSTM8S_StdPeriph_Lib/   stm8s_iwdg
     0000834D  C$stm8s_iwdg.c$54$1_0$346          stm8s_iwdg
     0000834D  XG$IWDG_WriteAccessCmd$0$0         stm8s_iwdg
     0000834E  A$stm8s_iwdgSTM8S_StdPeriph_Lib/   stm8s_iwdg
     0000834E  C$stm8s_iwdg.c$63$1_0$348          stm8s_iwdg
     0000834E  C$stm8s_iwdg.c$68$1_0$348          stm8s_iwdg
     0000834E  G$IWDG_SetPrescaler$0$0            stm8s_iwdg
     0000834E  _IWDG_SetPrescaler                 stm8s_iwdg
     00008351  A$stm8s_iwdgSTM8S_StdPeriph_Lib/   stm8s_iwdg
     00008353  A$stm8s_iwdgSTM8S_StdPeriph_Lib/   stm8s_iwdg
     00008354  A$stm8s_iwdgSTM8S_StdPeriph_Lib/   stm8s_iwdg
     00008354  C$stm8s_iwdg.c$69$1_0$348          stm8s_iwdg
     00008354  XG$IWDG_SetPrescaler$0$0           stm8s_iwdg
     00008355  A$stm8s_iwdgSTM8S_StdPeriph_Lib/   stm8s_iwdg
     00008355  C$stm8s_iwdg.c$78$1_0$350          stm8s_iwdg
     00008355  C$stm8s_iwdg.c$80$1_0$350          stm8s_iwdg
     00008355  G$IWDG_SetReload$0$0               stm8s_iwdg
     00008355  _IWDG_SetReload                    stm8s_iwdg
     00008358  A$stm8s_iwdgSTM8S_StdPeriph_Lib/   stm8s_iwdg
     0000835A  A$stm8s_iwdgSTM8S_StdPeriph_Lib/   stm8s_iwdg
     0000835B  A$stm8s_iwdgSTM8S_StdPeriph_Lib/   stm8s_iwdg
     0000835B  C$stm8s_iwdg.c$81$1_0$350          stm8s_iwdg
     0000835B  XG$IWDG_SetReload$0$0              stm8s_iwdg
     0000835C  A$stm8s_iwdgSTM8S_StdPeriph_Lib/   stm8s_iwdg
     0000835C  C$stm8s_iwdg.c$89$1_0$352          stm8s_iwdg
     0000835C  C$stm8s_iwdg.c$91$1_0$352          stm8s_iwdg
     0000835C  G$IWDG_ReloadCounter$0$0           stm8s_iwdg
     0000835C  _IWDG_ReloadCounter                stm8s_iwdg
     00008360  A$stm8s_iwdgSTM8S_StdPeriph_Lib/   stm8s_iwdg
     00008360  C$stm8s_iwdg.c$92$1_0$352          stm8s_iwdg
     00008360  XG$IWDG_ReloadCounter$0$0          stm8s_iwdg
     00008361  A$stm8s_iwdgSTM8S_StdPeriph_Lib/   stm8s_iwdg
     00008361  C$stm8s_iwdg.c$101$1_0$354         stm8s_iwdg
     00008361  C$stm8s_iwdg.c$99$1_0$354          stm8s_iwdg
     00008361  G$IWDG_Enable$0$0                  stm8s_iwdg
     00008361  _IWDG_Enable                       stm8s_iwdg
     00008365  A$stm8s_iwdgSTM8S_StdPeriph_Lib/   stm8s_iwdg
     00008365  C$stm8s_iwdg.c$102$1_0$354         stm8s_iwdg
     00008365  XG$IWDG_Enable$0$0                 stm8s_iwdg
     00008366  A$stm8s_itc/STM8S_StdPeriph_Lib/   stm8s_itc
     00008366  C$stm8s_itc.c$54$0_0$346           stm8s_itc
     00008366  C$stm8s_itc.c$63$1_0$346           stm8s_itc
     00008366  G$ITC_GetCPUCC$0$0                 stm8s_itc
     00008366  _ITC_GetCPUCC                      stm8s_itc
     00008367  A$stm8s_itc/STM8S_StdPeriph_Lib/   stm8s_itc
     00008367  C$stm8s_itc.c$64$1_0$346           stm8s_itc
ASxxxx Linker V03.00 + NoICE + sdld,  page 19.
Hexadecimal  [32-Bits]

Area                                    Addr        Size        Decimal Bytes (Attributes)
--------------------------------        ----        ----        ------- ----- ------------
CODE                                000082B4    0000592D =       22829. bytes (REL,CON)

      Value  Global                              Global Defined In Module
      -----  --------------------------------   ------------------------
     00008368  A$stm8s_itc/STM8S_StdPeriph_Lib/   stm8s_itc
     00008368  C$stm8s_itc.c$69$1_0$346           stm8s_itc
     00008368  XG$ITC_GetCPUCC$0$0                stm8s_itc
     00008369  A$stm8s_itc/STM8S_StdPeriph_Lib/   stm8s_itc
     00008369  C$stm8s_itc.c$90$1_0$348           stm8s_itc
     00008369  C$stm8s_itc.c$92$1_0$348           stm8s_itc
     00008369  G$ITC_DeInit$0$0                   stm8s_itc
     00008369  _ITC_DeInit                        stm8s_itc
     0000836D  A$stm8s_itc/STM8S_StdPeriph_Lib/   stm8s_itc
     0000836D  C$stm8s_itc.c$93$1_0$348           stm8s_itc
     00008371  A$stm8s_itc/STM8S_StdPeriph_Lib/   stm8s_itc
     00008371  C$stm8s_itc.c$94$1_0$348           stm8s_itc
     00008375  A$stm8s_itc/STM8S_StdPeriph_Lib/   stm8s_itc
     00008375  C$stm8s_itc.c$95$1_0$348           stm8s_itc
     00008379  A$stm8s_itc/STM8S_StdPeriph_Lib/   stm8s_itc
     00008379  C$stm8s_itc.c$96$1_0$348           stm8s_itc
     0000837D  A$stm8s_itc/STM8S_StdPeriph_Lib/   stm8s_itc
     0000837D  C$stm8s_itc.c$97$1_0$348           stm8s_itc
     00008381  A$stm8s_itc/STM8S_StdPeriph_Lib/   stm8s_itc
     00008381  C$stm8s_itc.c$98$1_0$348           stm8s_itc
     00008385  A$stm8s_itc/STM8S_StdPeriph_Lib/   stm8s_itc
     00008385  C$stm8s_itc.c$99$1_0$348           stm8s_itc
     00008389  A$stm8s_itc/STM8S_StdPeriph_Lib/   stm8s_itc
     00008389  C$stm8s_itc.c$100$1_0$348          stm8s_itc
     00008389  XG$ITC_DeInit$0$0                  stm8s_itc
     0000838A  A$stm8s_itc/STM8S_StdPeriph_Lib/   stm8s_itc
     0000838A  C$stm8s_itc.c$107$1_0$350          stm8s_itc
     0000838A  C$stm8s_itc.c$109$1_0$350          stm8s_itc
     0000838A  G$ITC_GetSoftIntStatus$0$0         stm8s_itc
     0000838A  _ITC_GetSoftIntStatus              stm8s_itc
     0000838D  A$stm8s_itc/STM8S_StdPeriph_Lib/   stm8s_itc
     0000838F  A$stm8s_itc/STM8S_StdPeriph_Lib/   stm8s_itc
     0000838F  C$stm8s_itc.c$110$1_0$350          stm8s_itc
     0000838F  XG$ITC_GetSoftIntStatus$0$0        stm8s_itc
     00008390  A$stm8s_itc/STM8S_StdPeriph_Lib/   stm8s_itc
     00008390  C$stm8s_itc.c$117$1_0$352          stm8s_itc
     00008390  G$ITC_GetSoftwarePriority$0$0      stm8s_itc
     00008390  _ITC_GetSoftwarePriority           stm8s_itc
     00008392  A$stm8s_itc/STM8S_StdPeriph_Lib/   stm8s_itc
     00008392  C$stm8s_itc.c$119$2_0$352          stm8s_itc
     00008394  A$stm8s_itc/STM8S_StdPeriph_Lib/   stm8s_itc
     00008394  C$stm8s_itc.c$126$1_0$352          stm8s_itc
     00008396  A$stm8s_itc/STM8S_StdPeriph_Lib/   stm8s_itc
     00008398  A$stm8s_itc/STM8S_StdPeriph_Lib/   stm8s_itc
     0000839A  A$stm8s_itc/STM8S_StdPeriph_Lib/   stm8s_itc
     0000839B  A$stm8s_itc/STM8S_StdPeriph_Lib/   stm8s_itc
     0000839D  A$stm8s_itc/STM8S_StdPeriph_Lib/   stm8s_itc
     0000839F  A$stm8s_itc/STM8S_StdPeriph_Lib/   stm8s_itc
     000083A1  A$stm8s_itc/STM8S_StdPeriph_Lib/   stm8s_itc
     000083A3  A$stm8s_itc/STM8S_StdPeriph_Lib/   stm8s_itc
     000083A5  A$stm8s_itc/STM8S_StdPeriph_Lib/   stm8s_itc
ASxxxx Linker V03.00 + NoICE + sdld,  page 20.
Hexadecimal  [32-Bits]

Area                                    Addr        Size        Decimal Bytes (Attributes)
--------------------------------        ----        ----        ------- ----- ------------
CODE                                000082B4    0000592D =       22829. bytes (REL,CON)

      Value  Global                              Global Defined In Module
      -----  --------------------------------   ------------------------
     000083A7  A$stm8s_itc/STM8S_StdPeriph_Lib/   stm8s_itc
     000083A8  A$stm8s_itc/STM8S_StdPeriph_Lib/   stm8s_itc
     000083AA  A$stm8s_itc/STM8S_StdPeriph_Lib/   stm8s_itc
     000083AA  C$stm8s_itc.c$128$1_0$352          stm8s_itc
     000083AC  A$stm8s_itc/STM8S_StdPeriph_Lib/   stm8s_itc
     000083AE  A$stm8s_itc/STM8S_StdPeriph_Lib/   stm8s_itc
     000083B0  A$stm8s_itc/STM8S_StdPeriph_Lib/   stm8s_itc
     000083B3  A$stm8s_itc/STM8S_StdPeriph_Lib/   stm8s_itc
     000083B4  A$stm8s_itc/STM8S_StdPeriph_Lib/   stm8s_itc
     000083B6  A$stm8s_itc/STM8S_StdPeriph_Lib/   stm8s_itc
     000083B7  A$stm8s_itc/STM8S_StdPeriph_Lib/   stm8s_itc
     000083B8  A$stm8s_itc/STM8S_StdPeriph_Lib/   stm8s_itc
     000083BB  A$stm8s_itc/STM8S_StdPeriph_Lib/   stm8s_itc
     000083EE  A$stm8s_itc/STM8S_StdPeriph_Lib/   stm8s_itc
     000083EE  C$stm8s_itc.c$133$2_0$353          stm8s_itc
     000083EE  C$stm8s_itc.c$134$2_0$353          stm8s_itc
     000083F1  A$stm8s_itc/STM8S_StdPeriph_Lib/   stm8s_itc
     000083F3  A$stm8s_itc/STM8S_StdPeriph_Lib/   stm8s_itc
     000083F5  A$stm8s_itc/STM8S_StdPeriph_Lib/   stm8s_itc
     000083F5  C$stm8s_itc.c$135$2_0$353          stm8s_itc
     000083F8  A$stm8s_itc/STM8S_StdPeriph_Lib/   stm8s_itc
     000083F8  C$stm8s_itc.c$140$2_0$353          stm8s_itc
     000083F8  C$stm8s_itc.c$141$2_0$353          stm8s_itc
     000083FB  A$stm8s_itc/STM8S_StdPeriph_Lib/   stm8s_itc
     000083FD  A$stm8s_itc/STM8S_StdPeriph_Lib/   stm8s_itc
     000083FF  A$stm8s_itc/STM8S_StdPeriph_Lib/   stm8s_itc
     000083FF  C$stm8s_itc.c$142$2_0$353          stm8s_itc
     00008401  A$stm8s_itc/STM8S_StdPeriph_Lib/   stm8s_itc
     00008401  C$stm8s_itc.c$152$2_0$353          stm8s_itc
     00008401  C$stm8s_itc.c$153$2_0$353          stm8s_itc
     00008404  A$stm8s_itc/STM8S_StdPeriph_Lib/   stm8s_itc
     00008406  A$stm8s_itc/STM8S_StdPeriph_Lib/   stm8s_itc
     00008408  A$stm8s_itc/STM8S_StdPeriph_Lib/   stm8s_itc
     00008408  C$stm8s_itc.c$154$2_0$353          stm8s_itc
     0000840A  A$stm8s_itc/STM8S_StdPeriph_Lib/   stm8s_itc
     0000840A  C$stm8s_itc.c$164$2_0$353          stm8s_itc
     0000840A  C$stm8s_itc.c$165$2_0$353          stm8s_itc
     0000840D  A$stm8s_itc/STM8S_StdPeriph_Lib/   stm8s_itc
     0000840F  A$stm8s_itc/STM8S_StdPeriph_Lib/   stm8s_itc
     00008411  A$stm8s_itc/STM8S_StdPeriph_Lib/   stm8s_itc
     00008411  C$stm8s_itc.c$166$2_0$353          stm8s_itc
     00008413  A$stm8s_itc/STM8S_StdPeriph_Lib/   stm8s_itc
     00008413  C$stm8s_itc.c$178$2_0$353          stm8s_itc
     00008413  C$stm8s_itc.c$179$2_0$353          stm8s_itc
     00008416  A$stm8s_itc/STM8S_StdPeriph_Lib/   stm8s_itc
     00008418  A$stm8s_itc/STM8S_StdPeriph_Lib/   stm8s_itc
     0000841A  A$stm8s_itc/STM8S_StdPeriph_Lib/   stm8s_itc
     0000841A  C$stm8s_itc.c$180$2_0$353          stm8s_itc
     0000841C  A$stm8s_itc/STM8S_StdPeriph_Lib/   stm8s_itc
     0000841C  C$stm8s_itc.c$199$2_0$353          stm8s_itc
     0000841C  C$stm8s_itc.c$201$2_0$353          stm8s_itc
ASxxxx Linker V03.00 + NoICE + sdld,  page 21.
Hexadecimal  [32-Bits]

Area                                    Addr        Size        Decimal Bytes (Attributes)
--------------------------------        ----        ----        ------- ----- ------------
CODE                                000082B4    0000592D =       22829. bytes (REL,CON)

      Value  Global                              Global Defined In Module
      -----  --------------------------------   ------------------------
     0000841F  A$stm8s_itc/STM8S_StdPeriph_Lib/   stm8s_itc
     00008421  A$stm8s_itc/STM8S_StdPeriph_Lib/   stm8s_itc
     00008423  A$stm8s_itc/STM8S_StdPeriph_Lib/   stm8s_itc
     00008423  C$stm8s_itc.c$202$2_0$353          stm8s_itc
     00008425  A$stm8s_itc/STM8S_StdPeriph_Lib/   stm8s_itc
     00008425  C$stm8s_itc.c$204$2_0$353          stm8s_itc
     00008425  C$stm8s_itc.c$205$2_0$353          stm8s_itc
     00008428  A$stm8s_itc/STM8S_StdPeriph_Lib/   stm8s_itc
     0000842A  A$stm8s_itc/STM8S_StdPeriph_Lib/   stm8s_itc
     0000842C  A$stm8s_itc/STM8S_StdPeriph_Lib/   stm8s_itc
     0000842C  C$stm8s_itc.c$210$1_0$352          stm8s_itc
     0000842C  C$stm8s_itc.c$212$1_0$352          stm8s_itc
     0000842E  A$stm8s_itc/STM8S_StdPeriph_Lib/   stm8s_itc
     0000842F  A$stm8s_itc/STM8S_StdPeriph_Lib/   stm8s_itc
     00008431  A$stm8s_itc/STM8S_StdPeriph_Lib/   stm8s_itc
     00008433  A$stm8s_itc/STM8S_StdPeriph_Lib/   stm8s_itc
     00008435  A$stm8s_itc/STM8S_StdPeriph_Lib/   stm8s_itc
     00008436  A$stm8s_itc/STM8S_StdPeriph_Lib/   stm8s_itc
     00008438  A$stm8s_itc/STM8S_StdPeriph_Lib/   stm8s_itc
     00008439  A$stm8s_itc/STM8S_StdPeriph_Lib/   stm8s_itc
     00008439  C$stm8s_itc.c$214$1_0$352          stm8s_itc
     0000843B  A$stm8s_itc/STM8S_StdPeriph_Lib/   stm8s_itc
     0000843B  C$stm8s_itc.c$215$1_0$352          stm8s_itc
     0000843B  XG$ITC_GetSoftwarePriority$0$0     stm8s_itc
     0000843C  A$stm8s_itc/STM8S_StdPeriph_Lib/   stm8s_itc
     0000843C  C$stm8s_itc.c$230$1_0$355          stm8s_itc
     0000843C  G$ITC_SetSoftwarePriority$0$0      stm8s_itc
     0000843C  _ITC_SetSoftwarePriority           stm8s_itc
     0000843E  A$stm8s_itc/STM8S_StdPeriph_Lib/   stm8s_itc
     0000843E  C$stm8s_itc.c$244$1_0$355          stm8s_itc
     00008440  A$stm8s_itc/STM8S_StdPeriph_Lib/   stm8s_itc
     00008442  A$stm8s_itc/STM8S_StdPeriph_Lib/   stm8s_itc
     00008444  A$stm8s_itc/STM8S_StdPeriph_Lib/   stm8s_itc
     00008445  A$stm8s_itc/STM8S_StdPeriph_Lib/   stm8s_itc
     00008446  A$stm8s_itc/STM8S_StdPeriph_Lib/   stm8s_itc
     00008448  A$stm8s_itc/STM8S_StdPeriph_Lib/   stm8s_itc
     00008449  A$stm8s_itc/STM8S_StdPeriph_Lib/   stm8s_itc
     0000844A  A$stm8s_itc/STM8S_StdPeriph_Lib/   stm8s_itc
     0000844B  A$stm8s_itc/STM8S_StdPeriph_Lib/   stm8s_itc
     0000844D  A$stm8s_itc/STM8S_StdPeriph_Lib/   stm8s_itc
     0000844F  A$stm8s_itc/STM8S_StdPeriph_Lib/   stm8s_itc
     00008450  A$stm8s_itc/STM8S_StdPeriph_Lib/   stm8s_itc
     00008452  A$stm8s_itc/STM8S_StdPeriph_Lib/   stm8s_itc
     00008453  A$stm8s_itc/STM8S_StdPeriph_Lib/   stm8s_itc
     00008454  A$stm8s_itc/STM8S_StdPeriph_Lib/   stm8s_itc
     00008456  A$stm8s_itc/STM8S_StdPeriph_Lib/   stm8s_itc
     00008456  C$stm8s_itc.c$247$1_0$355          stm8s_itc
     00008458  A$stm8s_itc/STM8S_StdPeriph_Lib/   stm8s_itc
     00008459  A$stm8s_itc/STM8S_StdPeriph_Lib/   stm8s_itc
     0000845A  A$stm8s_itc/STM8S_StdPeriph_Lib/   stm8s_itc
     0000845B  A$stm8s_itc/STM8S_StdPeriph_Lib/   stm8s_itc
ASxxxx Linker V03.00 + NoICE + sdld,  page 22.
Hexadecimal  [32-Bits]

Area                                    Addr        Size        Decimal Bytes (Attributes)
--------------------------------        ----        ----        ------- ----- ------------
CODE                                000082B4    0000592D =       22829. bytes (REL,CON)

      Value  Global                              Global Defined In Module
      -----  --------------------------------   ------------------------
     0000845D  A$stm8s_itc/STM8S_StdPeriph_Lib/   stm8s_itc
     0000845F  A$stm8s_itc/STM8S_StdPeriph_Lib/   stm8s_itc
     00008460  A$stm8s_itc/STM8S_StdPeriph_Lib/   stm8s_itc
     00008462  A$stm8s_itc/STM8S_StdPeriph_Lib/   stm8s_itc
     00008463  A$stm8s_itc/STM8S_StdPeriph_Lib/   stm8s_itc
     00008465  A$stm8s_itc/STM8S_StdPeriph_Lib/   stm8s_itc
     00008465  C$stm8s_itc.c$249$1_0$355          stm8s_itc
     00008467  A$stm8s_itc/STM8S_StdPeriph_Lib/   stm8s_itc
     00008469  A$stm8s_itc/STM8S_StdPeriph_Lib/   stm8s_itc
     0000846B  A$stm8s_itc/STM8S_StdPeriph_Lib/   stm8s_itc
     0000846E  A$stm8s_itc/STM8S_StdPeriph_Lib/   stm8s_itc
     0000846F  A$stm8s_itc/STM8S_StdPeriph_Lib/   stm8s_itc
     00008471  A$stm8s_itc/STM8S_StdPeriph_Lib/   stm8s_itc
     00008472  A$stm8s_itc/STM8S_StdPeriph_Lib/   stm8s_itc
     00008473  A$stm8s_itc/STM8S_StdPeriph_Lib/   stm8s_itc
     00008476  A$stm8s_itc/STM8S_StdPeriph_Lib/   stm8s_itc
     000084A9  A$stm8s_itc/STM8S_StdPeriph_Lib/   stm8s_itc
     000084A9  C$stm8s_itc.c$254$2_0$356          stm8s_itc
     000084A9  C$stm8s_itc.c$255$2_0$356          stm8s_itc
     000084AC  A$stm8s_itc/STM8S_StdPeriph_Lib/   stm8s_itc
     000084AE  A$stm8s_itc/STM8S_StdPeriph_Lib/   stm8s_itc
     000084B1  A$stm8s_itc/STM8S_StdPeriph_Lib/   stm8s_itc
     000084B1  C$stm8s_itc.c$256$2_0$356          stm8s_itc
     000084B4  A$stm8s_itc/STM8S_StdPeriph_Lib/   stm8s_itc
     000084B6  A$stm8s_itc/STM8S_StdPeriph_Lib/   stm8s_itc
     000084B9  A$stm8s_itc/STM8S_StdPeriph_Lib/   stm8s_itc
     000084B9  C$stm8s_itc.c$257$2_0$356          stm8s_itc
     000084BC  A$stm8s_itc/STM8S_StdPeriph_Lib/   stm8s_itc
     000084BC  C$stm8s_itc.c$262$2_0$356          stm8s_itc
     000084BC  C$stm8s_itc.c$263$2_0$356          stm8s_itc
     000084BF  A$stm8s_itc/STM8S_StdPeriph_Lib/   stm8s_itc
     000084C1  A$stm8s_itc/STM8S_StdPeriph_Lib/   stm8s_itc
     000084C4  A$stm8s_itc/STM8S_StdPeriph_Lib/   stm8s_itc
     000084C4  C$stm8s_itc.c$264$2_0$356          stm8s_itc
     000084C7  A$stm8s_itc/STM8S_StdPeriph_Lib/   stm8s_itc
     000084C9  A$stm8s_itc/STM8S_StdPeriph_Lib/   stm8s_itc
     000084CC  A$stm8s_itc/STM8S_StdPeriph_Lib/   stm8s_itc
     000084CC  C$stm8s_itc.c$265$2_0$356          stm8s_itc
     000084CF  A$stm8s_itc/STM8S_StdPeriph_Lib/   stm8s_itc
     000084CF  C$stm8s_itc.c$275$2_0$356          stm8s_itc
     000084CF  C$stm8s_itc.c$276$2_0$356          stm8s_itc
     000084D2  A$stm8s_itc/STM8S_StdPeriph_Lib/   stm8s_itc
     000084D4  A$stm8s_itc/STM8S_StdPeriph_Lib/   stm8s_itc
     000084D7  A$stm8s_itc/STM8S_StdPeriph_Lib/   stm8s_itc
     000084D7  C$stm8s_itc.c$277$2_0$356          stm8s_itc
     000084DA  A$stm8s_itc/STM8S_StdPeriph_Lib/   stm8s_itc
     000084DC  A$stm8s_itc/STM8S_StdPeriph_Lib/   stm8s_itc
     000084DF  A$stm8s_itc/STM8S_StdPeriph_Lib/   stm8s_itc
     000084DF  C$stm8s_itc.c$278$2_0$356          stm8s_itc
     000084E2  A$stm8s_itc/STM8S_StdPeriph_Lib/   stm8s_itc
     000084E2  C$stm8s_itc.c$288$2_0$356          stm8s_itc
ASxxxx Linker V03.00 + NoICE + sdld,  page 23.
Hexadecimal  [32-Bits]

Area                                    Addr        Size        Decimal Bytes (Attributes)
--------------------------------        ----        ----        ------- ----- ------------
CODE                                000082B4    0000592D =       22829. bytes (REL,CON)

      Value  Global                              Global Defined In Module
      -----  --------------------------------   ------------------------
     000084E2  C$stm8s_itc.c$289$2_0$356          stm8s_itc
     000084E5  A$stm8s_itc/STM8S_StdPeriph_Lib/   stm8s_itc
     000084E7  A$stm8s_itc/STM8S_StdPeriph_Lib/   stm8s_itc
     000084EA  A$stm8s_itc/STM8S_StdPeriph_Lib/   stm8s_itc
     000084EA  C$stm8s_itc.c$290$2_0$356          stm8s_itc
     000084ED  A$stm8s_itc/STM8S_StdPeriph_Lib/   stm8s_itc
     000084EF  A$stm8s_itc/STM8S_StdPeriph_Lib/   stm8s_itc
     000084F2  A$stm8s_itc/STM8S_StdPeriph_Lib/   stm8s_itc
     000084F2  C$stm8s_itc.c$291$2_0$356          stm8s_itc
     000084F4  A$stm8s_itc/STM8S_StdPeriph_Lib/   stm8s_itc
     000084F4  C$stm8s_itc.c$303$2_0$356          stm8s_itc
     000084F4  C$stm8s_itc.c$304$2_0$356          stm8s_itc
     000084F7  A$stm8s_itc/STM8S_StdPeriph_Lib/   stm8s_itc
     000084F9  A$stm8s_itc/STM8S_StdPeriph_Lib/   stm8s_itc
     000084FC  A$stm8s_itc/STM8S_StdPeriph_Lib/   stm8s_itc
     000084FC  C$stm8s_itc.c$305$2_0$356          stm8s_itc
     000084FF  A$stm8s_itc/STM8S_StdPeriph_Lib/   stm8s_itc
     00008501  A$stm8s_itc/STM8S_StdPeriph_Lib/   stm8s_itc
     00008504  A$stm8s_itc/STM8S_StdPeriph_Lib/   stm8s_itc
     00008504  C$stm8s_itc.c$306$2_0$356          stm8s_itc
     00008506  A$stm8s_itc/STM8S_StdPeriph_Lib/   stm8s_itc
     00008506  C$stm8s_itc.c$328$2_0$356          stm8s_itc
     00008506  C$stm8s_itc.c$330$2_0$356          stm8s_itc
     00008509  A$stm8s_itc/STM8S_StdPeriph_Lib/   stm8s_itc
     0000850B  A$stm8s_itc/STM8S_StdPeriph_Lib/   stm8s_itc
     0000850E  A$stm8s_itc/STM8S_StdPeriph_Lib/   stm8s_itc
     0000850E  C$stm8s_itc.c$331$2_0$356          stm8s_itc
     00008511  A$stm8s_itc/STM8S_StdPeriph_Lib/   stm8s_itc
     00008513  A$stm8s_itc/STM8S_StdPeriph_Lib/   stm8s_itc
     00008516  A$stm8s_itc/STM8S_StdPeriph_Lib/   stm8s_itc
     00008516  C$stm8s_itc.c$332$2_0$356          stm8s_itc
     00008518  A$stm8s_itc/STM8S_StdPeriph_Lib/   stm8s_itc
     00008518  C$stm8s_itc.c$334$2_0$356          stm8s_itc
     00008518  C$stm8s_itc.c$335$2_0$356          stm8s_itc
     0000851B  A$stm8s_itc/STM8S_StdPeriph_Lib/   stm8s_itc
     0000851D  A$stm8s_itc/STM8S_StdPeriph_Lib/   stm8s_itc
     00008520  A$stm8s_itc/STM8S_StdPeriph_Lib/   stm8s_itc
     00008520  C$stm8s_itc.c$336$2_0$356          stm8s_itc
     00008523  A$stm8s_itc/STM8S_StdPeriph_Lib/   stm8s_itc
     00008525  A$stm8s_itc/STM8S_StdPeriph_Lib/   stm8s_itc
     00008528  A$stm8s_itc/STM8S_StdPeriph_Lib/   stm8s_itc
     00008528  C$stm8s_itc.c$341$1_0$355          stm8s_itc
     0000852A  A$stm8s_itc/STM8S_StdPeriph_Lib/   stm8s_itc
     0000852A  C$stm8s_itc.c$342$1_0$355          stm8s_itc
     0000852A  XG$ITC_SetSoftwarePriority$0$0     stm8s_itc
     0000852B  A$stm8s_clk/STM8S_StdPeriph_Lib/   stm8s_clk
     0000852B  C$stm8s_clk.c$72$0_0$346           stm8s_clk
     0000852B  C$stm8s_clk.c$74$1_0$346           stm8s_clk
     0000852B  G$CLK_DeInit$0$0                   stm8s_clk
     0000852B  _CLK_DeInit                        stm8s_clk
     0000852F  A$stm8s_clk/STM8S_StdPeriph_Lib/   stm8s_clk
ASxxxx Linker V03.00 + NoICE + sdld,  page 24.
Hexadecimal  [32-Bits]

Area                                    Addr        Size        Decimal Bytes (Attributes)
--------------------------------        ----        ----        ------- ----- ------------
CODE                                000082B4    0000592D =       22829. bytes (REL,CON)

      Value  Global                              Global Defined In Module
      -----  --------------------------------   ------------------------
     0000852F  C$stm8s_clk.c$75$1_0$346           stm8s_clk
     00008533  A$stm8s_clk/STM8S_StdPeriph_Lib/   stm8s_clk
     00008533  C$stm8s_clk.c$76$1_0$346           stm8s_clk
     00008537  A$stm8s_clk/STM8S_StdPeriph_Lib/   stm8s_clk
     00008537  C$stm8s_clk.c$77$1_0$346           stm8s_clk
     0000853B  A$stm8s_clk/STM8S_StdPeriph_Lib/   stm8s_clk
     0000853B  C$stm8s_clk.c$78$1_0$346           stm8s_clk
     0000853F  A$stm8s_clk/STM8S_StdPeriph_Lib/   stm8s_clk
     0000853F  C$stm8s_clk.c$79$1_0$346           stm8s_clk
     00008543  A$stm8s_clk/STM8S_StdPeriph_Lib/   stm8s_clk
     00008543  C$stm8s_clk.c$80$1_0$346           stm8s_clk
     00008547  A$stm8s_clk/STM8S_StdPeriph_Lib/   stm8s_clk
     00008547  C$stm8s_clk.c$81$1_0$346           stm8s_clk
     0000854B  A$stm8s_clk/STM8S_StdPeriph_Lib/   stm8s_clk
     0000854B  C$stm8s_clk.c$82$1_0$346           stm8s_clk
     0000854F  A$stm8s_clk/STM8S_StdPeriph_Lib/   stm8s_clk
     0000854F  C$stm8s_clk.c$83$1_0$346           stm8s_clk
     00008552  A$stm8s_clk/STM8S_StdPeriph_Lib/   stm8s_clk
     00008553  A$stm8s_clk/STM8S_StdPeriph_Lib/   stm8s_clk
     00008555  A$stm8s_clk/STM8S_StdPeriph_Lib/   stm8s_clk
     00008555  C$stm8s_clk.c$85$1_0$346           stm8s_clk
     00008559  A$stm8s_clk/STM8S_StdPeriph_Lib/   stm8s_clk
     00008559  C$stm8s_clk.c$86$1_0$346           stm8s_clk
     0000855D  A$stm8s_clk/STM8S_StdPeriph_Lib/   stm8s_clk
     0000855D  C$stm8s_clk.c$87$1_0$346           stm8s_clk
     00008561  A$stm8s_clk/STM8S_StdPeriph_Lib/   stm8s_clk
     00008561  C$stm8s_clk.c$88$1_0$346           stm8s_clk
     00008561  XG$CLK_DeInit$0$0                  stm8s_clk
     00008562  A$stm8s_clk/STM8S_StdPeriph_Lib/   stm8s_clk
     00008562  C$stm8s_clk.c$104$1_0$349          stm8s_clk
     00008562  C$stm8s_clk.c$99$1_0$349           stm8s_clk
     00008562  G$CLK_FastHaltWakeUpCmd$0$0        stm8s_clk
     00008562  _CLK_FastHaltWakeUpCmd             stm8s_clk
     00008564  A$stm8s_clk/STM8S_StdPeriph_Lib/   stm8s_clk
     00008566  A$stm8s_clk/STM8S_StdPeriph_Lib/   stm8s_clk
     00008566  C$stm8s_clk.c$107$2_0$350          stm8s_clk
     0000856A  A$stm8s_clk/STM8S_StdPeriph_Lib/   stm8s_clk
     0000856C  A$stm8s_clk/STM8S_StdPeriph_Lib/   stm8s_clk
     0000856C  C$stm8s_clk.c$112$2_0$351          stm8s_clk
     00008570  A$stm8s_clk/STM8S_StdPeriph_Lib/   stm8s_clk
     00008570  C$stm8s_clk.c$114$1_0$349          stm8s_clk
     00008570  XG$CLK_FastHaltWakeUpCmd$0$0       stm8s_clk
     00008571  A$stm8s_clk/STM8S_StdPeriph_Lib/   stm8s_clk
     00008571  C$stm8s_clk.c$121$1_0$353          stm8s_clk
     00008571  C$stm8s_clk.c$126$1_0$353          stm8s_clk
     00008571  G$CLK_HSECmd$0$0                   stm8s_clk
     00008571  _CLK_HSECmd                        stm8s_clk
     00008573  A$stm8s_clk/STM8S_StdPeriph_Lib/   stm8s_clk
     00008575  A$stm8s_clk/STM8S_StdPeriph_Lib/   stm8s_clk
     00008575  C$stm8s_clk.c$129$2_0$354          stm8s_clk
     00008579  A$stm8s_clk/STM8S_StdPeriph_Lib/   stm8s_clk
ASxxxx Linker V03.00 + NoICE + sdld,  page 25.
Hexadecimal  [32-Bits]

Area                                    Addr        Size        Decimal Bytes (Attributes)
--------------------------------        ----        ----        ------- ----- ------------
CODE                                000082B4    0000592D =       22829. bytes (REL,CON)

      Value  Global                              Global Defined In Module
      -----  --------------------------------   ------------------------
     0000857B  A$stm8s_clk/STM8S_StdPeriph_Lib/   stm8s_clk
     0000857B  C$stm8s_clk.c$134$2_0$355          stm8s_clk
     0000857F  A$stm8s_clk/STM8S_StdPeriph_Lib/   stm8s_clk
     0000857F  C$stm8s_clk.c$136$1_0$353          stm8s_clk
     0000857F  XG$CLK_HSECmd$0$0                  stm8s_clk
     00008580  A$stm8s_clk/STM8S_StdPeriph_Lib/   stm8s_clk
     00008580  C$stm8s_clk.c$143$1_0$357          stm8s_clk
     00008580  C$stm8s_clk.c$148$1_0$357          stm8s_clk
     00008580  G$CLK_HSICmd$0$0                   stm8s_clk
     00008580  _CLK_HSICmd                        stm8s_clk
     00008582  A$stm8s_clk/STM8S_StdPeriph_Lib/   stm8s_clk
     00008584  A$stm8s_clk/STM8S_StdPeriph_Lib/   stm8s_clk
     00008584  C$stm8s_clk.c$151$2_0$358          stm8s_clk
     00008588  A$stm8s_clk/STM8S_StdPeriph_Lib/   stm8s_clk
     0000858A  A$stm8s_clk/STM8S_StdPeriph_Lib/   stm8s_clk
     0000858A  C$stm8s_clk.c$156$2_0$359          stm8s_clk
     0000858E  A$stm8s_clk/STM8S_StdPeriph_Lib/   stm8s_clk
     0000858E  C$stm8s_clk.c$158$1_0$357          stm8s_clk
     0000858E  XG$CLK_HSICmd$0$0                  stm8s_clk
     0000858F  A$stm8s_clk/STM8S_StdPeriph_Lib/   stm8s_clk
     0000858F  C$stm8s_clk.c$166$1_0$361          stm8s_clk
     0000858F  C$stm8s_clk.c$171$1_0$361          stm8s_clk
     0000858F  G$CLK_LSICmd$0$0                   stm8s_clk
     0000858F  _CLK_LSICmd                        stm8s_clk
     00008591  A$stm8s_clk/STM8S_StdPeriph_Lib/   stm8s_clk
     00008593  A$stm8s_clk/STM8S_StdPeriph_Lib/   stm8s_clk
     00008593  C$stm8s_clk.c$174$2_0$362          stm8s_clk
     00008597  A$stm8s_clk/STM8S_StdPeriph_Lib/   stm8s_clk
     00008599  A$stm8s_clk/STM8S_StdPeriph_Lib/   stm8s_clk
     00008599  C$stm8s_clk.c$179$2_0$363          stm8s_clk
     0000859D  A$stm8s_clk/STM8S_StdPeriph_Lib/   stm8s_clk
     0000859D  C$stm8s_clk.c$181$1_0$361          stm8s_clk
     0000859D  XG$CLK_LSICmd$0$0                  stm8s_clk
     0000859E  A$stm8s_clk/STM8S_StdPeriph_Lib/   stm8s_clk
     0000859E  C$stm8s_clk.c$189$1_0$365          stm8s_clk
     0000859E  C$stm8s_clk.c$194$1_0$365          stm8s_clk
     0000859E  G$CLK_CCOCmd$0$0                   stm8s_clk
     0000859E  _CLK_CCOCmd                        stm8s_clk
     000085A0  A$stm8s_clk/STM8S_StdPeriph_Lib/   stm8s_clk
     000085A2  A$stm8s_clk/STM8S_StdPeriph_Lib/   stm8s_clk
     000085A2  C$stm8s_clk.c$197$2_0$366          stm8s_clk
     000085A6  A$stm8s_clk/STM8S_StdPeriph_Lib/   stm8s_clk
     000085A8  A$stm8s_clk/STM8S_StdPeriph_Lib/   stm8s_clk
     000085A8  C$stm8s_clk.c$202$2_0$367          stm8s_clk
     000085AC  A$stm8s_clk/STM8S_StdPeriph_Lib/   stm8s_clk
     000085AC  C$stm8s_clk.c$204$1_0$365          stm8s_clk
     000085AC  XG$CLK_CCOCmd$0$0                  stm8s_clk
     000085AD  A$stm8s_clk/STM8S_StdPeriph_Lib/   stm8s_clk
     000085AD  C$stm8s_clk.c$213$1_0$369          stm8s_clk
     000085AD  C$stm8s_clk.c$218$1_0$369          stm8s_clk
     000085AD  G$CLK_ClockSwitchCmd$0$0           stm8s_clk
ASxxxx Linker V03.00 + NoICE + sdld,  page 26.
Hexadecimal  [32-Bits]

Area                                    Addr        Size        Decimal Bytes (Attributes)
--------------------------------        ----        ----        ------- ----- ------------
CODE                                000082B4    0000592D =       22829. bytes (REL,CON)

      Value  Global                              Global Defined In Module
      -----  --------------------------------   ------------------------
     000085AD  _CLK_ClockSwitchCmd                stm8s_clk
     000085AF  A$stm8s_clk/STM8S_StdPeriph_Lib/   stm8s_clk
     000085B1  A$stm8s_clk/STM8S_StdPeriph_Lib/   stm8s_clk
     000085B1  C$stm8s_clk.c$221$2_0$370          stm8s_clk
     000085B5  A$stm8s_clk/STM8S_StdPeriph_Lib/   stm8s_clk
     000085B7  A$stm8s_clk/STM8S_StdPeriph_Lib/   stm8s_clk
     000085B7  C$stm8s_clk.c$226$2_0$371          stm8s_clk
     000085BB  A$stm8s_clk/STM8S_StdPeriph_Lib/   stm8s_clk
     000085BB  C$stm8s_clk.c$228$1_0$369          stm8s_clk
     000085BB  XG$CLK_ClockSwitchCmd$0$0          stm8s_clk
     000085BC  A$stm8s_clk/STM8S_StdPeriph_Lib/   stm8s_clk
     000085BC  C$stm8s_clk.c$238$1_0$373          stm8s_clk
     000085BC  C$stm8s_clk.c$243$1_0$373          stm8s_clk
     000085BC  G$CLK_SlowActiveHaltWakeUpCmd$0$   stm8s_clk
     000085BC  _CLK_SlowActiveHaltWakeUpCmd       stm8s_clk
     000085BE  A$stm8s_clk/STM8S_StdPeriph_Lib/   stm8s_clk
     000085C0  A$stm8s_clk/STM8S_StdPeriph_Lib/   stm8s_clk
     000085C0  C$stm8s_clk.c$246$2_0$374          stm8s_clk
     000085C4  A$stm8s_clk/STM8S_StdPeriph_Lib/   stm8s_clk
     000085C6  A$stm8s_clk/STM8S_StdPeriph_Lib/   stm8s_clk
     000085C6  C$stm8s_clk.c$251$2_0$375          stm8s_clk
     000085CA  A$stm8s_clk/STM8S_StdPeriph_Lib/   stm8s_clk
     000085CA  C$stm8s_clk.c$253$1_0$373          stm8s_clk
     000085CA  XG$CLK_SlowActiveHaltWakeUpCmd$0   stm8s_clk
     000085CB  A$stm8s_clk/STM8S_StdPeriph_Lib/   stm8s_clk
     000085CB  C$stm8s_clk.c$263$1_0$377          stm8s_clk
     000085CB  G$CLK_PeripheralClockConfig$0$0    stm8s_clk
     000085CB  _CLK_PeripheralClockConfig         stm8s_clk
     000085CC  A$stm8s_clk/STM8S_StdPeriph_Lib/   stm8s_clk
     000085CC  C$stm8s_clk.c$269$1_0$377          stm8s_clk
     000085CE  A$stm8s_clk/STM8S_StdPeriph_Lib/   stm8s_clk
     000085D0  A$stm8s_clk/STM8S_StdPeriph_Lib/   stm8s_clk
     000085D2  A$stm8s_clk/STM8S_StdPeriph_Lib/   stm8s_clk
     000085D2  C$stm8s_clk.c$271$2_0$378          stm8s_clk
     000085D4  A$stm8s_clk/STM8S_StdPeriph_Lib/   stm8s_clk
     000085D6  A$stm8s_clk/STM8S_StdPeriph_Lib/   stm8s_clk
     000085D6  C$stm8s_clk.c$274$3_0$379          stm8s_clk
     000085D9  A$stm8s_clk/STM8S_StdPeriph_Lib/   stm8s_clk
     000085DA  A$stm8s_clk/STM8S_StdPeriph_Lib/   stm8s_clk
     000085DC  A$stm8s_clk/STM8S_StdPeriph_Lib/   stm8s_clk
     000085DE  A$stm8s_clk/STM8S_StdPeriph_Lib/   stm8s_clk
     000085DF  A$stm8s_clk/STM8S_StdPeriph_Lib/   stm8s_clk
     000085E1  A$stm8s_clk/STM8S_StdPeriph_Lib/   stm8s_clk
     000085E3  A$stm8s_clk/STM8S_StdPeriph_Lib/   stm8s_clk
     000085E4  A$stm8s_clk/STM8S_StdPeriph_Lib/   stm8s_clk
     000085E5  A$stm8s_clk/STM8S_StdPeriph_Lib/   stm8s_clk
     000085E7  A$stm8s_clk/STM8S_StdPeriph_Lib/   stm8s_clk
     000085E9  A$stm8s_clk/STM8S_StdPeriph_Lib/   stm8s_clk
     000085EA  A$stm8s_clk/STM8S_StdPeriph_Lib/   stm8s_clk
     000085EC  A$stm8s_clk/STM8S_StdPeriph_Lib/   stm8s_clk
     000085ED  A$stm8s_clk/STM8S_StdPeriph_Lib/   stm8s_clk
ASxxxx Linker V03.00 + NoICE + sdld,  page 27.
Hexadecimal  [32-Bits]

Area                                    Addr        Size        Decimal Bytes (Attributes)
--------------------------------        ----        ----        ------- ----- ------------
CODE                                000082B4    0000592D =       22829. bytes (REL,CON)

      Value  Global                              Global Defined In Module
      -----  --------------------------------   ------------------------
     000085EF  A$stm8s_clk/STM8S_StdPeriph_Lib/   stm8s_clk
     000085F2  A$stm8s_clk/STM8S_StdPeriph_Lib/   stm8s_clk
     000085F4  A$stm8s_clk/STM8S_StdPeriph_Lib/   stm8s_clk
     000085F4  C$stm8s_clk.c$279$3_0$380          stm8s_clk
     000085F7  A$stm8s_clk/STM8S_StdPeriph_Lib/   stm8s_clk
     000085F9  A$stm8s_clk/STM8S_StdPeriph_Lib/   stm8s_clk
     000085FB  A$stm8s_clk/STM8S_StdPeriph_Lib/   stm8s_clk
     000085FD  A$stm8s_clk/STM8S_StdPeriph_Lib/   stm8s_clk
     000085FE  A$stm8s_clk/STM8S_StdPeriph_Lib/   stm8s_clk
     00008600  A$stm8s_clk/STM8S_StdPeriph_Lib/   stm8s_clk
     00008601  A$stm8s_clk/STM8S_StdPeriph_Lib/   stm8s_clk
     00008602  A$stm8s_clk/STM8S_StdPeriph_Lib/   stm8s_clk
     00008603  A$stm8s_clk/STM8S_StdPeriph_Lib/   stm8s_clk
     00008605  A$stm8s_clk/STM8S_StdPeriph_Lib/   stm8s_clk
     00008607  A$stm8s_clk/STM8S_StdPeriph_Lib/   stm8s_clk
     00008608  A$stm8s_clk/STM8S_StdPeriph_Lib/   stm8s_clk
     0000860A  A$stm8s_clk/STM8S_StdPeriph_Lib/   stm8s_clk
     0000860B  A$stm8s_clk/STM8S_StdPeriph_Lib/   stm8s_clk
     0000860C  A$stm8s_clk/STM8S_StdPeriph_Lib/   stm8s_clk
     0000860E  A$stm8s_clk/STM8S_StdPeriph_Lib/   stm8s_clk
     00008611  A$stm8s_clk/STM8S_StdPeriph_Lib/   stm8s_clk
     00008613  A$stm8s_clk/STM8S_StdPeriph_Lib/   stm8s_clk
     00008613  C$stm8s_clk.c$284$2_0$381          stm8s_clk
     00008615  A$stm8s_clk/STM8S_StdPeriph_Lib/   stm8s_clk
     00008617  A$stm8s_clk/STM8S_StdPeriph_Lib/   stm8s_clk
     00008617  C$stm8s_clk.c$287$3_0$382          stm8s_clk
     0000861A  A$stm8s_clk/STM8S_StdPeriph_Lib/   stm8s_clk
     0000861B  A$stm8s_clk/STM8S_StdPeriph_Lib/   stm8s_clk
     0000861D  A$stm8s_clk/STM8S_StdPeriph_Lib/   stm8s_clk
     0000861F  A$stm8s_clk/STM8S_StdPeriph_Lib/   stm8s_clk
     00008620  A$stm8s_clk/STM8S_StdPeriph_Lib/   stm8s_clk
     00008622  A$stm8s_clk/STM8S_StdPeriph_Lib/   stm8s_clk
     00008624  A$stm8s_clk/STM8S_StdPeriph_Lib/   stm8s_clk
     00008625  A$stm8s_clk/STM8S_StdPeriph_Lib/   stm8s_clk
     00008626  A$stm8s_clk/STM8S_StdPeriph_Lib/   stm8s_clk
     00008628  A$stm8s_clk/STM8S_StdPeriph_Lib/   stm8s_clk
     0000862A  A$stm8s_clk/STM8S_StdPeriph_Lib/   stm8s_clk
     0000862B  A$stm8s_clk/STM8S_StdPeriph_Lib/   stm8s_clk
     0000862D  A$stm8s_clk/STM8S_StdPeriph_Lib/   stm8s_clk
     0000862E  A$stm8s_clk/STM8S_StdPeriph_Lib/   stm8s_clk
     00008630  A$stm8s_clk/STM8S_StdPeriph_Lib/   stm8s_clk
     00008633  A$stm8s_clk/STM8S_StdPeriph_Lib/   stm8s_clk
     00008635  A$stm8s_clk/STM8S_StdPeriph_Lib/   stm8s_clk
     00008635  C$stm8s_clk.c$292$3_0$383          stm8s_clk
     00008638  A$stm8s_clk/STM8S_StdPeriph_Lib/   stm8s_clk
     0000863A  A$stm8s_clk/STM8S_StdPeriph_Lib/   stm8s_clk
     0000863C  A$stm8s_clk/STM8S_StdPeriph_Lib/   stm8s_clk
     0000863E  A$stm8s_clk/STM8S_StdPeriph_Lib/   stm8s_clk
     0000863F  A$stm8s_clk/STM8S_StdPeriph_Lib/   stm8s_clk
     00008641  A$stm8s_clk/STM8S_StdPeriph_Lib/   stm8s_clk
     00008642  A$stm8s_clk/STM8S_StdPeriph_Lib/   stm8s_clk
ASxxxx Linker V03.00 + NoICE + sdld,  page 28.
Hexadecimal  [32-Bits]

Area                                    Addr        Size        Decimal Bytes (Attributes)
--------------------------------        ----        ----        ------- ----- ------------
CODE                                000082B4    0000592D =       22829. bytes (REL,CON)

      Value  Global                              Global Defined In Module
      -----  --------------------------------   ------------------------
     00008643  A$stm8s_clk/STM8S_StdPeriph_Lib/   stm8s_clk
     00008644  A$stm8s_clk/STM8S_StdPeriph_Lib/   stm8s_clk
     00008646  A$stm8s_clk/STM8S_StdPeriph_Lib/   stm8s_clk
     00008648  A$stm8s_clk/STM8S_StdPeriph_Lib/   stm8s_clk
     00008649  A$stm8s_clk/STM8S_StdPeriph_Lib/   stm8s_clk
     0000864B  A$stm8s_clk/STM8S_StdPeriph_Lib/   stm8s_clk
     0000864C  A$stm8s_clk/STM8S_StdPeriph_Lib/   stm8s_clk
     0000864D  A$stm8s_clk/STM8S_StdPeriph_Lib/   stm8s_clk
     0000864F  A$stm8s_clk/STM8S_StdPeriph_Lib/   stm8s_clk
     00008652  A$stm8s_clk/STM8S_StdPeriph_Lib/   stm8s_clk
     00008653  A$stm8s_clk/STM8S_StdPeriph_Lib/   stm8s_clk
     00008653  C$stm8s_clk.c$295$1_0$377          stm8s_clk
     00008653  XG$CLK_PeripheralClockConfig$0$0   stm8s_clk
     00008654  A$stm8s_clk/STM8S_StdPeriph_Lib/   stm8s_clk
     00008654  C$stm8s_clk.c$309$1_0$385          stm8s_clk
     00008654  C$stm8s_clk.c$322$1_0$385          stm8s_clk
     00008654  G$CLK_ClockSwitchConfig$0$0        stm8s_clk
     00008654  _CLK_ClockSwitchConfig             stm8s_clk
     00008657  A$stm8s_clk/STM8S_StdPeriph_Lib/   stm8s_clk
     00008659  A$stm8s_clk/STM8S_StdPeriph_Lib/   stm8s_clk
     00008659  C$stm8s_clk.c$325$1_0$385          stm8s_clk
     0000865B  A$stm8s_clk/STM8S_StdPeriph_Lib/   stm8s_clk
     0000865C  A$stm8s_clk/STM8S_StdPeriph_Lib/   stm8s_clk
     0000865E  A$stm8s_clk/STM8S_StdPeriph_Lib/   stm8s_clk
     0000865E  C$stm8s_clk.c$328$2_0$386          stm8s_clk
     00008662  A$stm8s_clk/STM8S_StdPeriph_Lib/   stm8s_clk
     00008662  C$stm8s_clk.c$331$2_0$386          stm8s_clk
     00008664  A$stm8s_clk/STM8S_StdPeriph_Lib/   stm8s_clk
     00008666  A$stm8s_clk/STM8S_StdPeriph_Lib/   stm8s_clk
     00008666  C$stm8s_clk.c$333$3_0$387          stm8s_clk
     0000866A  A$stm8s_clk/STM8S_StdPeriph_Lib/   stm8s_clk
     0000866C  A$stm8s_clk/STM8S_StdPeriph_Lib/   stm8s_clk
     0000866C  C$stm8s_clk.c$337$3_0$388          stm8s_clk
     00008670  A$stm8s_clk/STM8S_StdPeriph_Lib/   stm8s_clk
     00008670  C$stm8s_clk.c$341$2_0$386          stm8s_clk
     00008673  A$stm8s_clk/STM8S_StdPeriph_Lib/   stm8s_clk
     00008675  A$stm8s_clk/STM8S_StdPeriph_Lib/   stm8s_clk
     00008676  A$stm8s_clk/STM8S_StdPeriph_Lib/   stm8s_clk
     00008676  C$stm8s_clk.c$344$1_0$385          stm8s_clk
     00008677  A$stm8s_clk/STM8S_StdPeriph_Lib/   stm8s_clk
     00008678  A$stm8s_clk/STM8S_StdPeriph_Lib/   stm8s_clk
     0000867B  A$stm8s_clk/STM8S_StdPeriph_Lib/   stm8s_clk
     0000867C  A$stm8s_clk/STM8S_StdPeriph_Lib/   stm8s_clk
     0000867E  A$stm8s_clk/STM8S_StdPeriph_Lib/   stm8s_clk
     0000867F  A$stm8s_clk/STM8S_StdPeriph_Lib/   stm8s_clk
     00008681  A$stm8s_clk/STM8S_StdPeriph_Lib/   stm8s_clk
     00008681  C$stm8s_clk.c$346$3_0$389          stm8s_clk
     00008682  A$stm8s_clk/STM8S_StdPeriph_Lib/   stm8s_clk
     00008684  A$stm8s_clk/STM8S_StdPeriph_Lib/   stm8s_clk
     00008684  C$stm8s_clk.c$349$2_0$386          stm8s_clk
     00008685  A$stm8s_clk/STM8S_StdPeriph_Lib/   stm8s_clk
ASxxxx Linker V03.00 + NoICE + sdld,  page 29.
Hexadecimal  [32-Bits]

Area                                    Addr        Size        Decimal Bytes (Attributes)
--------------------------------        ----        ----        ------- ----- ------------
CODE                                000082B4    0000592D =       22829. bytes (REL,CON)

      Value  Global                              Global Defined In Module
      -----  --------------------------------   ------------------------
     00008687  A$stm8s_clk/STM8S_StdPeriph_Lib/   stm8s_clk
     00008687  C$stm8s_clk.c$351$3_0$390          stm8s_clk
     00008689  A$stm8s_clk/STM8S_StdPeriph_Lib/   stm8s_clk
     0000868A  A$stm8s_clk/STM8S_StdPeriph_Lib/   stm8s_clk
     0000868C  A$stm8s_clk/STM8S_StdPeriph_Lib/   stm8s_clk
     0000868C  C$stm8s_clk.c$355$3_0$391          stm8s_clk
     0000868D  A$stm8s_clk/STM8S_StdPeriph_Lib/   stm8s_clk
     0000868E  A$stm8s_clk/STM8S_StdPeriph_Lib/   stm8s_clk
     00008690  A$stm8s_clk/STM8S_StdPeriph_Lib/   stm8s_clk
     00008690  C$stm8s_clk.c$361$2_0$392          stm8s_clk
     00008692  A$stm8s_clk/STM8S_StdPeriph_Lib/   stm8s_clk
     00008694  A$stm8s_clk/STM8S_StdPeriph_Lib/   stm8s_clk
     00008694  C$stm8s_clk.c$363$3_0$393          stm8s_clk
     00008698  A$stm8s_clk/STM8S_StdPeriph_Lib/   stm8s_clk
     0000869A  A$stm8s_clk/STM8S_StdPeriph_Lib/   stm8s_clk
     0000869A  C$stm8s_clk.c$367$3_0$394          stm8s_clk
     0000869E  A$stm8s_clk/STM8S_StdPeriph_Lib/   stm8s_clk
     0000869E  C$stm8s_clk.c$371$2_0$392          stm8s_clk
     000086A1  A$stm8s_clk/STM8S_StdPeriph_Lib/   stm8s_clk
     000086A3  A$stm8s_clk/STM8S_StdPeriph_Lib/   stm8s_clk
     000086A4  A$stm8s_clk/STM8S_StdPeriph_Lib/   stm8s_clk
     000086A4  C$stm8s_clk.c$374$1_0$385          stm8s_clk
     000086A5  A$stm8s_clk/STM8S_StdPeriph_Lib/   stm8s_clk
     000086A6  A$stm8s_clk/STM8S_StdPeriph_Lib/   stm8s_clk
     000086A9  A$stm8s_clk/STM8S_StdPeriph_Lib/   stm8s_clk
     000086AB  A$stm8s_clk/STM8S_StdPeriph_Lib/   stm8s_clk
     000086AD  A$stm8s_clk/STM8S_StdPeriph_Lib/   stm8s_clk
     000086AE  A$stm8s_clk/STM8S_StdPeriph_Lib/   stm8s_clk
     000086B0  A$stm8s_clk/STM8S_StdPeriph_Lib/   stm8s_clk
     000086B0  C$stm8s_clk.c$376$3_0$395          stm8s_clk
     000086B1  A$stm8s_clk/STM8S_StdPeriph_Lib/   stm8s_clk
     000086B3  A$stm8s_clk/STM8S_StdPeriph_Lib/   stm8s_clk
     000086B3  C$stm8s_clk.c$379$2_0$392          stm8s_clk
     000086B4  A$stm8s_clk/STM8S_StdPeriph_Lib/   stm8s_clk
     000086B6  A$stm8s_clk/STM8S_StdPeriph_Lib/   stm8s_clk
     000086B6  C$stm8s_clk.c$382$3_0$396          stm8s_clk
     000086BA  A$stm8s_clk/STM8S_StdPeriph_Lib/   stm8s_clk
     000086BA  C$stm8s_clk.c$383$3_0$396          stm8s_clk
     000086BC  A$stm8s_clk/STM8S_StdPeriph_Lib/   stm8s_clk
     000086BD  A$stm8s_clk/STM8S_StdPeriph_Lib/   stm8s_clk
     000086BF  A$stm8s_clk/STM8S_StdPeriph_Lib/   stm8s_clk
     000086BF  C$stm8s_clk.c$387$3_0$397          stm8s_clk
     000086C0  A$stm8s_clk/STM8S_StdPeriph_Lib/   stm8s_clk
     000086C1  A$stm8s_clk/STM8S_StdPeriph_Lib/   stm8s_clk
     000086C1  C$stm8s_clk.c$390$1_0$385          stm8s_clk
     000086C2  A$stm8s_clk/STM8S_StdPeriph_Lib/   stm8s_clk
     000086C3  A$stm8s_clk/STM8S_StdPeriph_Lib/   stm8s_clk
     000086C5  A$stm8s_clk/STM8S_StdPeriph_Lib/   stm8s_clk
     000086C5  C$stm8s_clk.c$393$2_0$398          stm8s_clk
     000086C7  A$stm8s_clk/STM8S_StdPeriph_Lib/   stm8s_clk
     000086C9  A$stm8s_clk/STM8S_StdPeriph_Lib/   stm8s_clk
ASxxxx Linker V03.00 + NoICE + sdld,  page 30.
Hexadecimal  [32-Bits]

Area                                    Addr        Size        Decimal Bytes (Attributes)
--------------------------------        ----        ----        ------- ----- ------------
CODE                                000082B4    0000592D =       22829. bytes (REL,CON)

      Value  Global                              Global Defined In Module
      -----  --------------------------------   ------------------------
     000086CB  A$stm8s_clk/STM8S_StdPeriph_Lib/   stm8s_clk
     000086CD  A$stm8s_clk/STM8S_StdPeriph_Lib/   stm8s_clk
     000086CF  A$stm8s_clk/STM8S_StdPeriph_Lib/   stm8s_clk
     000086CF  C$stm8s_clk.c$395$3_0$399          stm8s_clk
     000086D3  A$stm8s_clk/STM8S_StdPeriph_Lib/   stm8s_clk
     000086D5  A$stm8s_clk/STM8S_StdPeriph_Lib/   stm8s_clk
     000086D5  C$stm8s_clk.c$397$2_0$398          stm8s_clk
     000086D7  A$stm8s_clk/STM8S_StdPeriph_Lib/   stm8s_clk
     000086D9  A$stm8s_clk/STM8S_StdPeriph_Lib/   stm8s_clk
     000086DB  A$stm8s_clk/STM8S_StdPeriph_Lib/   stm8s_clk
     000086DD  A$stm8s_clk/STM8S_StdPeriph_Lib/   stm8s_clk
     000086DF  A$stm8s_clk/STM8S_StdPeriph_Lib/   stm8s_clk
     000086DF  C$stm8s_clk.c$399$3_0$400          stm8s_clk
     000086E3  A$stm8s_clk/STM8S_StdPeriph_Lib/   stm8s_clk
     000086E5  A$stm8s_clk/STM8S_StdPeriph_Lib/   stm8s_clk
     000086E5  C$stm8s_clk.c$401$2_0$398          stm8s_clk
     000086E7  A$stm8s_clk/STM8S_StdPeriph_Lib/   stm8s_clk
     000086E9  A$stm8s_clk/STM8S_StdPeriph_Lib/   stm8s_clk
     000086EB  A$stm8s_clk/STM8S_StdPeriph_Lib/   stm8s_clk
     000086ED  A$stm8s_clk/STM8S_StdPeriph_Lib/   stm8s_clk
     000086EF  A$stm8s_clk/STM8S_StdPeriph_Lib/   stm8s_clk
     000086EF  C$stm8s_clk.c$403$3_0$401          stm8s_clk
     000086F3  A$stm8s_clk/STM8S_StdPeriph_Lib/   stm8s_clk
     000086F3  C$stm8s_clk.c$406$1_0$385          stm8s_clk
     000086F4  A$stm8s_clk/STM8S_StdPeriph_Lib/   stm8s_clk
     000086F4  C$stm8s_clk.c$407$1_0$385          stm8s_clk
     000086F4  XG$CLK_ClockSwitchConfig$0$0       stm8s_clk
     000086F5  A$stm8s_clk/STM8S_StdPeriph_Lib/   stm8s_clk
     000086F5  C$stm8s_clk.c$415$1_0$403          stm8s_clk
     000086F5  C$stm8s_clk.c$421$1_0$403          stm8s_clk
     000086F5  G$CLK_HSIPrescalerConfig$0$0       stm8s_clk
     000086F5  _CLK_HSIPrescalerConfig            stm8s_clk
     000086F8  A$stm8s_clk/STM8S_StdPeriph_Lib/   stm8s_clk
     000086FA  A$stm8s_clk/STM8S_StdPeriph_Lib/   stm8s_clk
     000086FD  A$stm8s_clk/STM8S_StdPeriph_Lib/   stm8s_clk
     000086FD  C$stm8s_clk.c$424$1_0$403          stm8s_clk
     00008700  A$stm8s_clk/STM8S_StdPeriph_Lib/   stm8s_clk
     00008702  A$stm8s_clk/STM8S_StdPeriph_Lib/   stm8s_clk
     00008705  A$stm8s_clk/STM8S_StdPeriph_Lib/   stm8s_clk
     00008705  C$stm8s_clk.c$425$1_0$403          stm8s_clk
     00008705  XG$CLK_HSIPrescalerConfig$0$0      stm8s_clk
     00008706  A$stm8s_clk/STM8S_StdPeriph_Lib/   stm8s_clk
     00008706  C$stm8s_clk.c$436$1_0$405          stm8s_clk
     00008706  C$stm8s_clk.c$442$1_0$405          stm8s_clk
     00008706  G$CLK_CCOConfig$0$0                stm8s_clk
     00008706  _CLK_CCOConfig                     stm8s_clk
     00008709  A$stm8s_clk/STM8S_StdPeriph_Lib/   stm8s_clk
     0000870B  A$stm8s_clk/STM8S_StdPeriph_Lib/   stm8s_clk
     0000870E  A$stm8s_clk/STM8S_StdPeriph_Lib/   stm8s_clk
     0000870E  C$stm8s_clk.c$445$1_0$405          stm8s_clk
     00008711  A$stm8s_clk/STM8S_StdPeriph_Lib/   stm8s_clk
ASxxxx Linker V03.00 + NoICE + sdld,  page 31.
Hexadecimal  [32-Bits]

Area                                    Addr        Size        Decimal Bytes (Attributes)
--------------------------------        ----        ----        ------- ----- ------------
CODE                                000082B4    0000592D =       22829. bytes (REL,CON)

      Value  Global                              Global Defined In Module
      -----  --------------------------------   ------------------------
     00008713  A$stm8s_clk/STM8S_StdPeriph_Lib/   stm8s_clk
     00008716  A$stm8s_clk/STM8S_StdPeriph_Lib/   stm8s_clk
     00008716  C$stm8s_clk.c$448$1_0$405          stm8s_clk
     0000871A  A$stm8s_clk/STM8S_StdPeriph_Lib/   stm8s_clk
     0000871A  C$stm8s_clk.c$449$1_0$405          stm8s_clk
     0000871A  XG$CLK_CCOConfig$0$0               stm8s_clk
     0000871B  A$stm8s_clk/STM8S_StdPeriph_Lib/   stm8s_clk
     0000871B  C$stm8s_clk.c$459$1_0$407          stm8s_clk
     0000871B  C$stm8s_clk.c$465$1_0$407          stm8s_clk
     0000871B  G$CLK_ITConfig$0$0                 stm8s_clk
     0000871B  _CLK_ITConfig                      stm8s_clk
     0000871D  A$stm8s_clk/STM8S_StdPeriph_Lib/   stm8s_clk
     0000871F  A$stm8s_clk/STM8S_StdPeriph_Lib/   stm8s_clk
     0000871F  C$stm8s_clk.c$467$2_0$408          stm8s_clk
     00008721  A$stm8s_clk/STM8S_StdPeriph_Lib/   stm8s_clk
     00008723  A$stm8s_clk/STM8S_StdPeriph_Lib/   stm8s_clk
     00008725  A$stm8s_clk/STM8S_StdPeriph_Lib/   stm8s_clk
     00008727  A$stm8s_clk/STM8S_StdPeriph_Lib/   stm8s_clk
     00008729  A$stm8s_clk/STM8S_StdPeriph_Lib/   stm8s_clk
     0000872B  A$stm8s_clk/STM8S_StdPeriph_Lib/   stm8s_clk
     0000872B  C$stm8s_clk.c$470$3_0$409          stm8s_clk
     0000872F  A$stm8s_clk/STM8S_StdPeriph_Lib/   stm8s_clk
     0000872F  C$stm8s_clk.c$471$3_0$409          stm8s_clk
     00008731  A$stm8s_clk/STM8S_StdPeriph_Lib/   stm8s_clk
     00008731  C$stm8s_clk.c$472$3_0$409          stm8s_clk
     00008731  C$stm8s_clk.c$473$3_0$409          stm8s_clk
     00008735  A$stm8s_clk/STM8S_StdPeriph_Lib/   stm8s_clk
     00008735  C$stm8s_clk.c$474$3_0$409          stm8s_clk
     00008737  A$stm8s_clk/STM8S_StdPeriph_Lib/   stm8s_clk
     00008737  C$stm8s_clk.c$477$1_0$407          stm8s_clk
     00008737  C$stm8s_clk.c$481$2_0$410          stm8s_clk
     00008739  A$stm8s_clk/STM8S_StdPeriph_Lib/   stm8s_clk
     0000873B  A$stm8s_clk/STM8S_StdPeriph_Lib/   stm8s_clk
     0000873D  A$stm8s_clk/STM8S_StdPeriph_Lib/   stm8s_clk
     0000873F  A$stm8s_clk/STM8S_StdPeriph_Lib/   stm8s_clk
     00008741  A$stm8s_clk/STM8S_StdPeriph_Lib/   stm8s_clk
     00008743  A$stm8s_clk/STM8S_StdPeriph_Lib/   stm8s_clk
     00008743  C$stm8s_clk.c$484$3_0$411          stm8s_clk
     00008747  A$stm8s_clk/STM8S_StdPeriph_Lib/   stm8s_clk
     00008747  C$stm8s_clk.c$485$3_0$411          stm8s_clk
     00008749  A$stm8s_clk/STM8S_StdPeriph_Lib/   stm8s_clk
     00008749  C$stm8s_clk.c$486$3_0$411          stm8s_clk
     00008749  C$stm8s_clk.c$487$3_0$411          stm8s_clk
     0000874D  A$stm8s_clk/STM8S_StdPeriph_Lib/   stm8s_clk
     0000874D  C$stm8s_clk.c$491$1_0$407          stm8s_clk
     0000874D  C$stm8s_clk.c$493$1_0$407          stm8s_clk
     0000874D  XG$CLK_ITConfig$0$0                stm8s_clk
     0000874E  A$stm8s_clk/STM8S_StdPeriph_Lib/   stm8s_clk
     0000874E  C$stm8s_clk.c$500$1_0$413          stm8s_clk
     0000874E  G$CLK_SYSCLKConfig$0$0             stm8s_clk
     0000874E  _CLK_SYSCLKConfig                  stm8s_clk
ASxxxx Linker V03.00 + NoICE + sdld,  page 32.
Hexadecimal  [32-Bits]

Area                                    Addr        Size        Decimal Bytes (Attributes)
--------------------------------        ----        ----        ------- ----- ------------
CODE                                000082B4    0000592D =       22829. bytes (REL,CON)

      Value  Global                              Global Defined In Module
      -----  --------------------------------   ------------------------
     0000874F  A$stm8s_clk/STM8S_StdPeriph_Lib/   stm8s_clk
     0000874F  C$stm8s_clk.c$505$1_0$413          stm8s_clk
     00008751  A$stm8s_clk/STM8S_StdPeriph_Lib/   stm8s_clk
     00008753  A$stm8s_clk/STM8S_StdPeriph_Lib/   stm8s_clk
     00008753  C$stm8s_clk.c$507$2_0$414          stm8s_clk
     00008756  A$stm8s_clk/STM8S_StdPeriph_Lib/   stm8s_clk
     00008758  A$stm8s_clk/STM8S_StdPeriph_Lib/   stm8s_clk
     0000875B  A$stm8s_clk/STM8S_StdPeriph_Lib/   stm8s_clk
     0000875B  C$stm8s_clk.c$508$2_0$414          stm8s_clk
     0000875E  A$stm8s_clk/STM8S_StdPeriph_Lib/   stm8s_clk
     00008760  A$stm8s_clk/STM8S_StdPeriph_Lib/   stm8s_clk
     00008762  A$stm8s_clk/STM8S_StdPeriph_Lib/   stm8s_clk
     00008764  A$stm8s_clk/STM8S_StdPeriph_Lib/   stm8s_clk
     00008766  A$stm8s_clk/STM8S_StdPeriph_Lib/   stm8s_clk
     00008769  A$stm8s_clk/STM8S_StdPeriph_Lib/   stm8s_clk
     0000876B  A$stm8s_clk/STM8S_StdPeriph_Lib/   stm8s_clk
     0000876B  C$stm8s_clk.c$512$2_0$415          stm8s_clk
     0000876E  A$stm8s_clk/STM8S_StdPeriph_Lib/   stm8s_clk
     00008770  A$stm8s_clk/STM8S_StdPeriph_Lib/   stm8s_clk
     00008773  A$stm8s_clk/STM8S_StdPeriph_Lib/   stm8s_clk
     00008773  C$stm8s_clk.c$513$2_0$415          stm8s_clk
     00008776  A$stm8s_clk/STM8S_StdPeriph_Lib/   stm8s_clk
     00008778  A$stm8s_clk/STM8S_StdPeriph_Lib/   stm8s_clk
     0000877A  A$stm8s_clk/STM8S_StdPeriph_Lib/   stm8s_clk
     0000877C  A$stm8s_clk/STM8S_StdPeriph_Lib/   stm8s_clk
     0000877E  A$stm8s_clk/STM8S_StdPeriph_Lib/   stm8s_clk
     00008781  A$stm8s_clk/STM8S_StdPeriph_Lib/   stm8s_clk
     00008782  A$stm8s_clk/STM8S_StdPeriph_Lib/   stm8s_clk
     00008782  C$stm8s_clk.c$515$1_0$413          stm8s_clk
     00008782  XG$CLK_SYSCLKConfig$0$0            stm8s_clk
     00008783  A$stm8s_clk/STM8S_StdPeriph_Lib/   stm8s_clk
     00008783  C$stm8s_clk.c$523$1_0$417          stm8s_clk
     00008783  C$stm8s_clk.c$528$1_0$417          stm8s_clk
     00008783  G$CLK_SWIMConfig$0$0               stm8s_clk
     00008783  _CLK_SWIMConfig                    stm8s_clk
     00008785  A$stm8s_clk/STM8S_StdPeriph_Lib/   stm8s_clk
     00008787  A$stm8s_clk/STM8S_StdPeriph_Lib/   stm8s_clk
     00008787  C$stm8s_clk.c$531$2_0$418          stm8s_clk
     0000878B  A$stm8s_clk/STM8S_StdPeriph_Lib/   stm8s_clk
     0000878D  A$stm8s_clk/STM8S_StdPeriph_Lib/   stm8s_clk
     0000878D  C$stm8s_clk.c$536$2_0$419          stm8s_clk
     00008791  A$stm8s_clk/STM8S_StdPeriph_Lib/   stm8s_clk
     00008791  C$stm8s_clk.c$538$1_0$417          stm8s_clk
     00008791  XG$CLK_SWIMConfig$0$0              stm8s_clk
     00008792  A$stm8s_clk/STM8S_StdPeriph_Lib/   stm8s_clk
     00008792  C$stm8s_clk.c$547$1_0$421          stm8s_clk
     00008792  C$stm8s_clk.c$550$1_0$421          stm8s_clk
     00008792  G$CLK_ClockSecuritySystemEnable$   stm8s_clk
     00008792  _CLK_ClockSecuritySystemEnable     stm8s_clk
     00008796  A$stm8s_clk/STM8S_StdPeriph_Lib/   stm8s_clk
     00008796  C$stm8s_clk.c$551$1_0$421          stm8s_clk
ASxxxx Linker V03.00 + NoICE + sdld,  page 33.
Hexadecimal  [32-Bits]

Area                                    Addr        Size        Decimal Bytes (Attributes)
--------------------------------        ----        ----        ------- ----- ------------
CODE                                000082B4    0000592D =       22829. bytes (REL,CON)

      Value  Global                              Global Defined In Module
      -----  --------------------------------   ------------------------
     00008796  XG$CLK_ClockSecuritySystemEnable   stm8s_clk
     00008797  A$stm8s_clk/STM8S_StdPeriph_Lib/   stm8s_clk
     00008797  C$stm8s_clk.c$559$1_0$423          stm8s_clk
     00008797  C$stm8s_clk.c$561$1_0$423          stm8s_clk
     00008797  G$CLK_GetSYSCLKSource$0$0          stm8s_clk
     00008797  _CLK_GetSYSCLKSource               stm8s_clk
     0000879A  A$stm8s_clk/STM8S_StdPeriph_Lib/   stm8s_clk
     0000879A  C$stm8s_clk.c$562$1_0$423          stm8s_clk
     0000879A  XG$CLK_GetSYSCLKSource$0$0         stm8s_clk
     0000879B  A$stm8s_clk/STM8S_StdPeriph_Lib/   stm8s_clk
     0000879B  C$stm8s_clk.c$569$1_0$425          stm8s_clk
     0000879B  G$CLK_GetClockFreq$0$0             stm8s_clk
     0000879B  _CLK_GetClockFreq                  stm8s_clk
     0000879D  A$stm8s_clk/STM8S_StdPeriph_Lib/   stm8s_clk
     0000879D  C$stm8s_clk.c$576$1_0$425          stm8s_clk
     000087A0  A$stm8s_clk/STM8S_StdPeriph_Lib/   stm8s_clk
     000087A2  A$stm8s_clk/STM8S_StdPeriph_Lib/   stm8s_clk
     000087A2  C$stm8s_clk.c$578$1_0$425          stm8s_clk
     000087A4  A$stm8s_clk/STM8S_StdPeriph_Lib/   stm8s_clk
     000087A6  A$stm8s_clk/STM8S_StdPeriph_Lib/   stm8s_clk
     000087A8  A$stm8s_clk/STM8S_StdPeriph_Lib/   stm8s_clk
     000087A8  C$stm8s_clk.c$580$2_0$426          stm8s_clk
     000087AB  A$stm8s_clk/STM8S_StdPeriph_Lib/   stm8s_clk
     000087AD  A$stm8s_clk/STM8S_StdPeriph_Lib/   stm8s_clk
     000087AD  C$stm8s_clk.c$581$2_0$426          stm8s_clk
     000087AE  A$stm8s_clk/STM8S_StdPeriph_Lib/   stm8s_clk
     000087AF  A$stm8s_clk/STM8S_StdPeriph_Lib/   stm8s_clk
     000087B0  A$stm8s_clk/STM8S_StdPeriph_Lib/   stm8s_clk
     000087B0  C$stm8s_clk.c$582$2_0$426          stm8s_clk
     000087B1  A$stm8s_clk/STM8S_StdPeriph_Lib/   stm8s_clk
     000087B2  A$stm8s_clk/STM8S_StdPeriph_Lib/   stm8s_clk
     000087B5  A$stm8s_clk/STM8S_StdPeriph_Lib/   stm8s_clk
     000087B6  A$stm8s_clk/STM8S_StdPeriph_Lib/   stm8s_clk
     000087B6  C$stm8s_clk.c$583$2_0$426          stm8s_clk
     000087B7  A$stm8s_clk/STM8S_StdPeriph_Lib/   stm8s_clk
     000087B8  A$stm8s_clk/STM8S_StdPeriph_Lib/   stm8s_clk
     000087BA  A$stm8s_clk/STM8S_StdPeriph_Lib/   stm8s_clk
     000087BB  A$stm8s_clk/STM8S_StdPeriph_Lib/   stm8s_clk
     000087BD  A$stm8s_clk/STM8S_StdPeriph_Lib/   stm8s_clk
     000087BF  A$stm8s_clk/STM8S_StdPeriph_Lib/   stm8s_clk
     000087C1  A$stm8s_clk/STM8S_StdPeriph_Lib/   stm8s_clk
     000087C3  A$stm8s_clk/STM8S_StdPeriph_Lib/   stm8s_clk
     000087C5  A$stm8s_clk/STM8S_StdPeriph_Lib/   stm8s_clk
     000087C8  A$stm8s_clk/STM8S_StdPeriph_Lib/   stm8s_clk
     000087CA  A$stm8s_clk/STM8S_StdPeriph_Lib/   stm8s_clk
     000087CC  A$stm8s_clk/STM8S_StdPeriph_Lib/   stm8s_clk
     000087CE  A$stm8s_clk/STM8S_StdPeriph_Lib/   stm8s_clk
     000087CE  C$stm8s_clk.c$585$1_0$425          stm8s_clk
     000087D0  A$stm8s_clk/STM8S_StdPeriph_Lib/   stm8s_clk
     000087D2  A$stm8s_clk/STM8S_StdPeriph_Lib/   stm8s_clk
     000087D4  A$stm8s_clk/STM8S_StdPeriph_Lib/   stm8s_clk
ASxxxx Linker V03.00 + NoICE + sdld,  page 34.
Hexadecimal  [32-Bits]

Area                                    Addr        Size        Decimal Bytes (Attributes)
--------------------------------        ----        ----        ------- ----- ------------
CODE                                000082B4    0000592D =       22829. bytes (REL,CON)

      Value  Global                              Global Defined In Module
      -----  --------------------------------   ------------------------
     000087D4  C$stm8s_clk.c$587$2_0$427          stm8s_clk
     000087D7  A$stm8s_clk/STM8S_StdPeriph_Lib/   stm8s_clk
     000087D9  A$stm8s_clk/STM8S_StdPeriph_Lib/   stm8s_clk
     000087DD  A$stm8s_clk/STM8S_StdPeriph_Lib/   stm8s_clk
     000087DF  A$stm8s_clk/STM8S_StdPeriph_Lib/   stm8s_clk
     000087DF  C$stm8s_clk.c$591$2_0$428          stm8s_clk
     000087E2  A$stm8s_clk/STM8S_StdPeriph_Lib/   stm8s_clk
     000087E4  A$stm8s_clk/STM8S_StdPeriph_Lib/   stm8s_clk
     000087E8  A$stm8s_clk/STM8S_StdPeriph_Lib/   stm8s_clk
     000087E8  C$stm8s_clk.c$594$1_0$425          stm8s_clk
     000087EA  A$stm8s_clk/STM8S_StdPeriph_Lib/   stm8s_clk
     000087EC  A$stm8s_clk/STM8S_StdPeriph_Lib/   stm8s_clk
     000087EC  C$stm8s_clk.c$595$1_0$425          stm8s_clk
     000087EC  XG$CLK_GetClockFreq$0$0            stm8s_clk
     000087ED  A$stm8s_clk/STM8S_StdPeriph_Lib/   stm8s_clk
     000087ED  C$stm8s_clk.c$604$1_0$430          stm8s_clk
     000087ED  C$stm8s_clk.c$610$1_0$430          stm8s_clk
     000087ED  G$CLK_AdjustHSICalibrationValue$   stm8s_clk
     000087ED  _CLK_AdjustHSICalibrationValue     stm8s_clk
     000087F0  A$stm8s_clk/STM8S_StdPeriph_Lib/   stm8s_clk
     000087F2  A$stm8s_clk/STM8S_StdPeriph_Lib/   stm8s_clk
     000087F4  A$stm8s_clk/STM8S_StdPeriph_Lib/   stm8s_clk
     000087F7  A$stm8s_clk/STM8S_StdPeriph_Lib/   stm8s_clk
     000087F7  C$stm8s_clk.c$611$1_0$430          stm8s_clk
     000087F7  XG$CLK_AdjustHSICalibrationValue   stm8s_clk
     000087F8  A$stm8s_clk/STM8S_StdPeriph_Lib/   stm8s_clk
     000087F8  C$stm8s_clk.c$622$1_0$432          stm8s_clk
     000087F8  C$stm8s_clk.c$624$1_0$432          stm8s_clk
     000087F8  G$CLK_SYSCLKEmergencyClear$0$0     stm8s_clk
     000087F8  _CLK_SYSCLKEmergencyClear          stm8s_clk
     000087FC  A$stm8s_clk/STM8S_StdPeriph_Lib/   stm8s_clk
     000087FC  C$stm8s_clk.c$625$1_0$432          stm8s_clk
     000087FC  XG$CLK_SYSCLKEmergencyClear$0$0    stm8s_clk
     000087FD  A$stm8s_clk/STM8S_StdPeriph_Lib/   stm8s_clk
     000087FD  C$stm8s_clk.c$634$1_0$434          stm8s_clk
     000087FD  G$CLK_GetFlagStatus$0$0            stm8s_clk
     000087FD  _CLK_GetFlagStatus                 stm8s_clk
     000087FE  A$stm8s_clk/STM8S_StdPeriph_Lib/   stm8s_clk
     000087FE  C$stm8s_clk.c$644$1_0$434          stm8s_clk
     000087FF  A$stm8s_clk/STM8S_StdPeriph_Lib/   stm8s_clk
     00008800  A$stm8s_clk/STM8S_StdPeriph_Lib/   stm8s_clk
     00008802  A$stm8s_clk/STM8S_StdPeriph_Lib/   stm8s_clk
     00008803  A$stm8s_clk/STM8S_StdPeriph_Lib/   stm8s_clk
     00008803  C$stm8s_clk.c$647$1_0$434          stm8s_clk
     00008806  A$stm8s_clk/STM8S_StdPeriph_Lib/   stm8s_clk
     00008808  A$stm8s_clk/STM8S_StdPeriph_Lib/   stm8s_clk
     00008808  C$stm8s_clk.c$649$2_0$435          stm8s_clk
     0000880B  A$stm8s_clk/STM8S_StdPeriph_Lib/   stm8s_clk
     0000880D  A$stm8s_clk/STM8S_StdPeriph_Lib/   stm8s_clk
     0000880D  C$stm8s_clk.c$651$1_0$434          stm8s_clk
     00008810  A$stm8s_clk/STM8S_StdPeriph_Lib/   stm8s_clk
ASxxxx Linker V03.00 + NoICE + sdld,  page 35.
Hexadecimal  [32-Bits]

Area                                    Addr        Size        Decimal Bytes (Attributes)
--------------------------------        ----        ----        ------- ----- ------------
CODE                                000082B4    0000592D =       22829. bytes (REL,CON)

      Value  Global                              Global Defined In Module
      -----  --------------------------------   ------------------------
     00008812  A$stm8s_clk/STM8S_StdPeriph_Lib/   stm8s_clk
     00008812  C$stm8s_clk.c$653$2_0$436          stm8s_clk
     00008815  A$stm8s_clk/STM8S_StdPeriph_Lib/   stm8s_clk
     00008817  A$stm8s_clk/STM8S_StdPeriph_Lib/   stm8s_clk
     00008817  C$stm8s_clk.c$655$1_0$434          stm8s_clk
     0000881A  A$stm8s_clk/STM8S_StdPeriph_Lib/   stm8s_clk
     0000881C  A$stm8s_clk/STM8S_StdPeriph_Lib/   stm8s_clk
     0000881C  C$stm8s_clk.c$657$2_0$437          stm8s_clk
     0000881F  A$stm8s_clk/STM8S_StdPeriph_Lib/   stm8s_clk
     00008821  A$stm8s_clk/STM8S_StdPeriph_Lib/   stm8s_clk
     00008821  C$stm8s_clk.c$659$1_0$434          stm8s_clk
     00008824  A$stm8s_clk/STM8S_StdPeriph_Lib/   stm8s_clk
     00008826  A$stm8s_clk/STM8S_StdPeriph_Lib/   stm8s_clk
     00008826  C$stm8s_clk.c$661$2_0$438          stm8s_clk
     00008829  A$stm8s_clk/STM8S_StdPeriph_Lib/   stm8s_clk
     0000882B  A$stm8s_clk/STM8S_StdPeriph_Lib/   stm8s_clk
     0000882B  C$stm8s_clk.c$665$2_0$439          stm8s_clk
     0000882E  A$stm8s_clk/STM8S_StdPeriph_Lib/   stm8s_clk
     0000882E  C$stm8s_clk.c$668$1_0$434          stm8s_clk
     0000882F  A$stm8s_clk/STM8S_StdPeriph_Lib/   stm8s_clk
     00008831  A$stm8s_clk/STM8S_StdPeriph_Lib/   stm8s_clk
     00008833  A$stm8s_clk/STM8S_StdPeriph_Lib/   stm8s_clk
     00008834  A$stm8s_clk/STM8S_StdPeriph_Lib/   stm8s_clk
     00008836  A$stm8s_clk/STM8S_StdPeriph_Lib/   stm8s_clk
     00008838  A$stm8s_clk/STM8S_StdPeriph_Lib/   stm8s_clk
     00008838  C$stm8s_clk.c$670$2_0$440          stm8s_clk
     0000883A  A$stm8s_clk/STM8S_StdPeriph_Lib/   stm8s_clk
     0000883C  A$stm8s_clk/STM8S_StdPeriph_Lib/   stm8s_clk
     0000883C  C$stm8s_clk.c$674$2_0$441          stm8s_clk
     0000883D  A$stm8s_clk/STM8S_StdPeriph_Lib/   stm8s_clk
     0000883D  C$stm8s_clk.c$678$1_0$434          stm8s_clk
     0000883F  A$stm8s_clk/STM8S_StdPeriph_Lib/   stm8s_clk
     0000883F  C$stm8s_clk.c$679$1_0$434          stm8s_clk
     0000883F  XG$CLK_GetFlagStatus$0$0           stm8s_clk
     00008840  A$stm8s_clk/STM8S_StdPeriph_Lib/   stm8s_clk
     00008840  C$stm8s_clk.c$687$1_0$443          stm8s_clk
     00008840  C$stm8s_clk.c$694$1_0$443          stm8s_clk
     00008840  G$CLK_GetITStatus$0$0              stm8s_clk
     00008840  _CLK_GetITStatus                   stm8s_clk
     00008842  A$stm8s_clk/STM8S_StdPeriph_Lib/   stm8s_clk
     00008844  A$stm8s_clk/STM8S_StdPeriph_Lib/   stm8s_clk
     00008846  A$stm8s_clk/STM8S_StdPeriph_Lib/   stm8s_clk
     00008846  C$stm8s_clk.c$697$2_0$444          stm8s_clk
     00008849  A$stm8s_clk/STM8S_StdPeriph_Lib/   stm8s_clk
     0000884B  A$stm8s_clk/STM8S_StdPeriph_Lib/   stm8s_clk
     0000884D  A$stm8s_clk/STM8S_StdPeriph_Lib/   stm8s_clk
     0000884F  A$stm8s_clk/STM8S_StdPeriph_Lib/   stm8s_clk
     0000884F  C$stm8s_clk.c$699$3_0$445          stm8s_clk
     00008851  A$stm8s_clk/STM8S_StdPeriph_Lib/   stm8s_clk
     00008853  A$stm8s_clk/STM8S_StdPeriph_Lib/   stm8s_clk
     00008853  C$stm8s_clk.c$703$3_0$446          stm8s_clk
ASxxxx Linker V03.00 + NoICE + sdld,  page 36.
Hexadecimal  [32-Bits]

Area                                    Addr        Size        Decimal Bytes (Attributes)
--------------------------------        ----        ----        ------- ----- ------------
CODE                                000082B4    0000592D =       22829. bytes (REL,CON)

      Value  Global                              Global Defined In Module
      -----  --------------------------------   ------------------------
     00008854  A$stm8s_clk/STM8S_StdPeriph_Lib/   stm8s_clk
     00008856  A$stm8s_clk/STM8S_StdPeriph_Lib/   stm8s_clk
     00008856  C$stm8s_clk.c$709$2_0$447          stm8s_clk
     00008859  A$stm8s_clk/STM8S_StdPeriph_Lib/   stm8s_clk
     0000885B  A$stm8s_clk/STM8S_StdPeriph_Lib/   stm8s_clk
     0000885D  A$stm8s_clk/STM8S_StdPeriph_Lib/   stm8s_clk
     0000885F  A$stm8s_clk/STM8S_StdPeriph_Lib/   stm8s_clk
     0000885F  C$stm8s_clk.c$711$3_0$448          stm8s_clk
     00008861  A$stm8s_clk/STM8S_StdPeriph_Lib/   stm8s_clk
     00008863  A$stm8s_clk/STM8S_StdPeriph_Lib/   stm8s_clk
     00008863  C$stm8s_clk.c$715$3_0$449          stm8s_clk
     00008864  A$stm8s_clk/STM8S_StdPeriph_Lib/   stm8s_clk
     00008864  C$stm8s_clk.c$720$1_0$443          stm8s_clk
     00008864  C$stm8s_clk.c$721$1_0$443          stm8s_clk
     00008864  XG$CLK_GetITStatus$0$0             stm8s_clk
     00008865  A$stm8s_clk/STM8S_StdPeriph_Lib/   stm8s_clk
     00008865  C$stm8s_clk.c$729$1_0$451          stm8s_clk
     00008865  C$stm8s_clk.c$734$1_0$451          stm8s_clk
     00008865  G$CLK_ClearITPendingBit$0$0        stm8s_clk
     00008865  _CLK_ClearITPendingBit             stm8s_clk
     00008867  A$stm8s_clk/STM8S_StdPeriph_Lib/   stm8s_clk
     00008869  A$stm8s_clk/STM8S_StdPeriph_Lib/   stm8s_clk
     0000886B  A$stm8s_clk/STM8S_StdPeriph_Lib/   stm8s_clk
     0000886B  C$stm8s_clk.c$737$2_0$452          stm8s_clk
     0000886F  A$stm8s_clk/STM8S_StdPeriph_Lib/   stm8s_clk
     00008871  A$stm8s_clk/STM8S_StdPeriph_Lib/   stm8s_clk
     00008871  C$stm8s_clk.c$742$2_0$453          stm8s_clk
     00008875  A$stm8s_clk/STM8S_StdPeriph_Lib/   stm8s_clk
     00008875  C$stm8s_clk.c$745$1_0$451          stm8s_clk
     00008875  XG$CLK_ClearITPendingBit$0$0       stm8s_clk
     00008876  A$stm8s_gpioSTM8S_StdPeriph_Lib/   stm8s_gpio
     00008876  C$stm8s_gpio.c$53$0_0$346          stm8s_gpio
     00008876  C$stm8s_gpio.c$55$1_0$346          stm8s_gpio
     00008876  G$GPIO_DeInit$0$0                  stm8s_gpio
     00008876  _GPIO_DeInit                       stm8s_gpio
     00008878  A$stm8s_gpioSTM8S_StdPeriph_Lib/   stm8s_gpio
     0000887A  A$stm8s_gpioSTM8S_StdPeriph_Lib/   stm8s_gpio
     0000887A  C$stm8s_gpio.c$56$1_0$346          stm8s_gpio
     0000887B  A$stm8s_gpioSTM8S_StdPeriph_Lib/   stm8s_gpio
     0000887C  A$stm8s_gpioSTM8S_StdPeriph_Lib/   stm8s_gpio
     0000887D  A$stm8s_gpioSTM8S_StdPeriph_Lib/   stm8s_gpio
     0000887E  A$stm8s_gpioSTM8S_StdPeriph_Lib/   stm8s_gpio
     0000887E  C$stm8s_gpio.c$57$1_0$346          stm8s_gpio
     0000887F  A$stm8s_gpioSTM8S_StdPeriph_Lib/   stm8s_gpio
     00008881  A$stm8s_gpioSTM8S_StdPeriph_Lib/   stm8s_gpio
     00008881  C$stm8s_gpio.c$58$1_0$346          stm8s_gpio
     00008882  A$stm8s_gpioSTM8S_StdPeriph_Lib/   stm8s_gpio
     00008884  A$stm8s_gpioSTM8S_StdPeriph_Lib/   stm8s_gpio
     00008884  C$stm8s_gpio.c$59$1_0$346          stm8s_gpio
     00008884  XG$GPIO_DeInit$0$0                 stm8s_gpio
     00008885  A$stm8s_gpioSTM8S_StdPeriph_Lib/   stm8s_gpio
ASxxxx Linker V03.00 + NoICE + sdld,  page 37.
Hexadecimal  [32-Bits]

Area                                    Addr        Size        Decimal Bytes (Attributes)
--------------------------------        ----        ----        ------- ----- ------------
CODE                                000082B4    0000592D =       22829. bytes (REL,CON)

      Value  Global                              Global Defined In Module
      -----  --------------------------------   ------------------------
     00008885  C$stm8s_gpio.c$71$1_0$348          stm8s_gpio
     00008885  G$GPIO_Init$0$0                    stm8s_gpio
     00008885  _GPIO_Init                         stm8s_gpio
     00008887  A$stm8s_gpioSTM8S_StdPeriph_Lib/   stm8s_gpio
     00008887  C$stm8s_gpio.c$74$1_0$348          stm8s_gpio
     00008889  A$stm8s_gpioSTM8S_StdPeriph_Lib/   stm8s_gpio
     0000888A  A$stm8s_gpioSTM8S_StdPeriph_Lib/   stm8s_gpio
     0000888D  A$stm8s_gpioSTM8S_StdPeriph_Lib/   stm8s_gpio
     0000888F  A$stm8s_gpioSTM8S_StdPeriph_Lib/   stm8s_gpio
     00008890  A$stm8s_gpioSTM8S_StdPeriph_Lib/   stm8s_gpio
     00008891  A$stm8s_gpioSTM8S_StdPeriph_Lib/   stm8s_gpio
     00008893  A$stm8s_gpioSTM8S_StdPeriph_Lib/   stm8s_gpio
     00008894  A$stm8s_gpioSTM8S_StdPeriph_Lib/   stm8s_gpio
     00008896  A$stm8s_gpioSTM8S_StdPeriph_Lib/   stm8s_gpio
     00008897  A$stm8s_gpioSTM8S_StdPeriph_Lib/   stm8s_gpio
     00008899  A$stm8s_gpioSTM8S_StdPeriph_Lib/   stm8s_gpio
     0000889B  A$stm8s_gpioSTM8S_StdPeriph_Lib/   stm8s_gpio
     0000889C  A$stm8s_gpioSTM8S_StdPeriph_Lib/   stm8s_gpio
     0000889C  C$stm8s_gpio.c$80$1_0$348          stm8s_gpio
     0000889E  A$stm8s_gpioSTM8S_StdPeriph_Lib/   stm8s_gpio
     000088A0  A$stm8s_gpioSTM8S_StdPeriph_Lib/   stm8s_gpio
     000088A0  C$stm8s_gpio.c$82$2_0$349          stm8s_gpio
     000088A2  A$stm8s_gpioSTM8S_StdPeriph_Lib/   stm8s_gpio
     000088A4  A$stm8s_gpioSTM8S_StdPeriph_Lib/   stm8s_gpio
     000088A6  A$stm8s_gpioSTM8S_StdPeriph_Lib/   stm8s_gpio
     000088A6  C$stm8s_gpio.c$84$3_0$350          stm8s_gpio
     000088A8  A$stm8s_gpioSTM8S_StdPeriph_Lib/   stm8s_gpio
     000088AA  A$stm8s_gpioSTM8S_StdPeriph_Lib/   stm8s_gpio
     000088AC  A$stm8s_gpioSTM8S_StdPeriph_Lib/   stm8s_gpio
     000088AE  A$stm8s_gpioSTM8S_StdPeriph_Lib/   stm8s_gpio
     000088AE  C$stm8s_gpio.c$88$3_0$351          stm8s_gpio
     000088B0  A$stm8s_gpioSTM8S_StdPeriph_Lib/   stm8s_gpio
     000088B2  A$stm8s_gpioSTM8S_StdPeriph_Lib/   stm8s_gpio
     000088B4  A$stm8s_gpioSTM8S_StdPeriph_Lib/   stm8s_gpio
     000088B4  C$stm8s_gpio.c$91$2_0$349          stm8s_gpio
     000088B5  A$stm8s_gpioSTM8S_StdPeriph_Lib/   stm8s_gpio
     000088B6  A$stm8s_gpioSTM8S_StdPeriph_Lib/   stm8s_gpio
     000088B7  A$stm8s_gpioSTM8S_StdPeriph_Lib/   stm8s_gpio
     000088B8  A$stm8s_gpioSTM8S_StdPeriph_Lib/   stm8s_gpio
     000088BA  A$stm8s_gpioSTM8S_StdPeriph_Lib/   stm8s_gpio
     000088BB  A$stm8s_gpioSTM8S_StdPeriph_Lib/   stm8s_gpio
     000088BD  A$stm8s_gpioSTM8S_StdPeriph_Lib/   stm8s_gpio
     000088BD  C$stm8s_gpio.c$96$2_0$352          stm8s_gpio
     000088BE  A$stm8s_gpioSTM8S_StdPeriph_Lib/   stm8s_gpio
     000088BF  A$stm8s_gpioSTM8S_StdPeriph_Lib/   stm8s_gpio
     000088C0  A$stm8s_gpioSTM8S_StdPeriph_Lib/   stm8s_gpio
     000088C2  A$stm8s_gpioSTM8S_StdPeriph_Lib/   stm8s_gpio
     000088C3  A$stm8s_gpioSTM8S_StdPeriph_Lib/   stm8s_gpio
     000088C5  A$stm8s_gpioSTM8S_StdPeriph_Lib/   stm8s_gpio
     000088C7  A$stm8s_gpioSTM8S_StdPeriph_Lib/   stm8s_gpio
     000088C8  A$stm8s_gpioSTM8S_StdPeriph_Lib/   stm8s_gpio
ASxxxx Linker V03.00 + NoICE + sdld,  page 38.
Hexadecimal  [32-Bits]

Area                                    Addr        Size        Decimal Bytes (Attributes)
--------------------------------        ----        ----        ------- ----- ------------
CODE                                000082B4    0000592D =       22829. bytes (REL,CON)

      Value  Global                              Global Defined In Module
      -----  --------------------------------   ------------------------
     000088C8  C$stm8s_gpio.c$103$1_0$348         stm8s_gpio
     000088CA  A$stm8s_gpioSTM8S_StdPeriph_Lib/   stm8s_gpio
     000088CC  A$stm8s_gpioSTM8S_StdPeriph_Lib/   stm8s_gpio
     000088CE  A$stm8s_gpioSTM8S_StdPeriph_Lib/   stm8s_gpio
     000088CE  C$stm8s_gpio.c$105$2_0$353         stm8s_gpio
     000088CF  A$stm8s_gpioSTM8S_StdPeriph_Lib/   stm8s_gpio
     000088D2  A$stm8s_gpioSTM8S_StdPeriph_Lib/   stm8s_gpio
     000088D3  A$stm8s_gpioSTM8S_StdPeriph_Lib/   stm8s_gpio
     000088D5  A$stm8s_gpioSTM8S_StdPeriph_Lib/   stm8s_gpio
     000088D6  A$stm8s_gpioSTM8S_StdPeriph_Lib/   stm8s_gpio
     000088D8  A$stm8s_gpioSTM8S_StdPeriph_Lib/   stm8s_gpio
     000088D8  C$stm8s_gpio.c$109$2_0$354         stm8s_gpio
     000088D9  A$stm8s_gpioSTM8S_StdPeriph_Lib/   stm8s_gpio
     000088DC  A$stm8s_gpioSTM8S_StdPeriph_Lib/   stm8s_gpio
     000088DE  A$stm8s_gpioSTM8S_StdPeriph_Lib/   stm8s_gpio
     000088DF  A$stm8s_gpioSTM8S_StdPeriph_Lib/   stm8s_gpio
     000088E1  A$stm8s_gpioSTM8S_StdPeriph_Lib/   stm8s_gpio
     000088E3  A$stm8s_gpioSTM8S_StdPeriph_Lib/   stm8s_gpio
     000088E4  A$stm8s_gpioSTM8S_StdPeriph_Lib/   stm8s_gpio
     000088E4  C$stm8s_gpio.c$116$1_0$348         stm8s_gpio
     000088E6  A$stm8s_gpioSTM8S_StdPeriph_Lib/   stm8s_gpio
     000088E8  A$stm8s_gpioSTM8S_StdPeriph_Lib/   stm8s_gpio
     000088EA  A$stm8s_gpioSTM8S_StdPeriph_Lib/   stm8s_gpio
     000088EA  C$stm8s_gpio.c$118$2_0$355         stm8s_gpio
     000088EC  A$stm8s_gpioSTM8S_StdPeriph_Lib/   stm8s_gpio
     000088ED  A$stm8s_gpioSTM8S_StdPeriph_Lib/   stm8s_gpio
     000088EF  A$stm8s_gpioSTM8S_StdPeriph_Lib/   stm8s_gpio
     000088F1  A$stm8s_gpioSTM8S_StdPeriph_Lib/   stm8s_gpio
     000088F2  A$stm8s_gpioSTM8S_StdPeriph_Lib/   stm8s_gpio
     000088F4  A$stm8s_gpioSTM8S_StdPeriph_Lib/   stm8s_gpio
     000088F4  C$stm8s_gpio.c$122$2_0$356         stm8s_gpio
     000088F6  A$stm8s_gpioSTM8S_StdPeriph_Lib/   stm8s_gpio
     000088F7  A$stm8s_gpioSTM8S_StdPeriph_Lib/   stm8s_gpio
     000088F9  A$stm8s_gpioSTM8S_StdPeriph_Lib/   stm8s_gpio
     000088FB  A$stm8s_gpioSTM8S_StdPeriph_Lib/   stm8s_gpio
     000088FC  A$stm8s_gpioSTM8S_StdPeriph_Lib/   stm8s_gpio
     000088FE  A$stm8s_gpioSTM8S_StdPeriph_Lib/   stm8s_gpio
     000088FE  C$stm8s_gpio.c$124$1_0$348         stm8s_gpio
     000088FE  XG$GPIO_Init$0$0                   stm8s_gpio
     000088FF  A$stm8s_gpioSTM8S_StdPeriph_Lib/   stm8s_gpio
     000088FF  C$stm8s_gpio.c$134$1_0$358         stm8s_gpio
     000088FF  C$stm8s_gpio.c$136$1_0$358         stm8s_gpio
     000088FF  G$GPIO_Write$0$0                   stm8s_gpio
     000088FF  _GPIO_Write                        stm8s_gpio
     00008901  A$stm8s_gpioSTM8S_StdPeriph_Lib/   stm8s_gpio
     00008903  A$stm8s_gpioSTM8S_StdPeriph_Lib/   stm8s_gpio
     00008904  A$stm8s_gpioSTM8S_StdPeriph_Lib/   stm8s_gpio
     00008904  C$stm8s_gpio.c$137$1_0$358         stm8s_gpio
     00008904  XG$GPIO_Write$0$0                  stm8s_gpio
     00008905  A$stm8s_gpioSTM8S_StdPeriph_Lib/   stm8s_gpio
     00008905  C$stm8s_gpio.c$147$1_0$360         stm8s_gpio
ASxxxx Linker V03.00 + NoICE + sdld,  page 39.
Hexadecimal  [32-Bits]

Area                                    Addr        Size        Decimal Bytes (Attributes)
--------------------------------        ----        ----        ------- ----- ------------
CODE                                000082B4    0000592D =       22829. bytes (REL,CON)

      Value  Global                              Global Defined In Module
      -----  --------------------------------   ------------------------
     00008905  C$stm8s_gpio.c$149$1_0$360         stm8s_gpio
     00008905  G$GPIO_WriteHigh$0$0               stm8s_gpio
     00008905  _GPIO_WriteHigh                    stm8s_gpio
     00008907  A$stm8s_gpioSTM8S_StdPeriph_Lib/   stm8s_gpio
     00008908  A$stm8s_gpioSTM8S_StdPeriph_Lib/   stm8s_gpio
     0000890A  A$stm8s_gpioSTM8S_StdPeriph_Lib/   stm8s_gpio
     0000890B  A$stm8s_gpioSTM8S_StdPeriph_Lib/   stm8s_gpio
     0000890B  C$stm8s_gpio.c$150$1_0$360         stm8s_gpio
     0000890B  XG$GPIO_WriteHigh$0$0              stm8s_gpio
     0000890C  A$stm8s_gpioSTM8S_StdPeriph_Lib/   stm8s_gpio
     0000890C  C$stm8s_gpio.c$160$1_0$362         stm8s_gpio
     0000890C  G$GPIO_WriteLow$0$0                stm8s_gpio
     0000890C  _GPIO_WriteLow                     stm8s_gpio
     0000890D  A$stm8s_gpioSTM8S_StdPeriph_Lib/   stm8s_gpio
     0000890D  C$stm8s_gpio.c$162$1_0$362         stm8s_gpio
     0000890F  A$stm8s_gpioSTM8S_StdPeriph_Lib/   stm8s_gpio
     00008910  A$stm8s_gpioSTM8S_StdPeriph_Lib/   stm8s_gpio
     00008912  A$stm8s_gpioSTM8S_StdPeriph_Lib/   stm8s_gpio
     00008914  A$stm8s_gpioSTM8S_StdPeriph_Lib/   stm8s_gpio
     00008915  A$stm8s_gpioSTM8S_StdPeriph_Lib/   stm8s_gpio
     00008917  A$stm8s_gpioSTM8S_StdPeriph_Lib/   stm8s_gpio
     00008918  A$stm8s_gpioSTM8S_StdPeriph_Lib/   stm8s_gpio
     00008919  A$stm8s_gpioSTM8S_StdPeriph_Lib/   stm8s_gpio
     00008919  C$stm8s_gpio.c$163$1_0$362         stm8s_gpio
     00008919  XG$GPIO_WriteLow$0$0               stm8s_gpio
     0000891A  A$stm8s_gpioSTM8S_StdPeriph_Lib/   stm8s_gpio
     0000891A  C$stm8s_gpio.c$173$1_0$364         stm8s_gpio
     0000891A  C$stm8s_gpio.c$175$1_0$364         stm8s_gpio
     0000891A  G$GPIO_WriteReverse$0$0            stm8s_gpio
     0000891A  _GPIO_WriteReverse                 stm8s_gpio
     0000891C  A$stm8s_gpioSTM8S_StdPeriph_Lib/   stm8s_gpio
     0000891D  A$stm8s_gpioSTM8S_StdPeriph_Lib/   stm8s_gpio
     0000891F  A$stm8s_gpioSTM8S_StdPeriph_Lib/   stm8s_gpio
     00008920  A$stm8s_gpioSTM8S_StdPeriph_Lib/   stm8s_gpio
     00008920  C$stm8s_gpio.c$176$1_0$364         stm8s_gpio
     00008920  XG$GPIO_WriteReverse$0$0           stm8s_gpio
     00008921  A$stm8s_gpioSTM8S_StdPeriph_Lib/   stm8s_gpio
     00008921  C$stm8s_gpio.c$184$1_0$366         stm8s_gpio
     00008921  C$stm8s_gpio.c$186$1_0$366         stm8s_gpio
     00008921  G$GPIO_ReadOutputData$0$0          stm8s_gpio
     00008921  _GPIO_ReadOutputData               stm8s_gpio
     00008923  A$stm8s_gpioSTM8S_StdPeriph_Lib/   stm8s_gpio
     00008924  A$stm8s_gpioSTM8S_StdPeriph_Lib/   stm8s_gpio
     00008924  C$stm8s_gpio.c$187$1_0$366         stm8s_gpio
     00008924  XG$GPIO_ReadOutputData$0$0         stm8s_gpio
     00008925  A$stm8s_gpioSTM8S_StdPeriph_Lib/   stm8s_gpio
     00008925  C$stm8s_gpio.c$195$1_0$368         stm8s_gpio
     00008925  C$stm8s_gpio.c$197$1_0$368         stm8s_gpio
     00008925  G$GPIO_ReadInputData$0$0           stm8s_gpio
     00008925  _GPIO_ReadInputData                stm8s_gpio
     00008927  A$stm8s_gpioSTM8S_StdPeriph_Lib/   stm8s_gpio
ASxxxx Linker V03.00 + NoICE + sdld,  page 40.
Hexadecimal  [32-Bits]

Area                                    Addr        Size        Decimal Bytes (Attributes)
--------------------------------        ----        ----        ------- ----- ------------
CODE                                000082B4    0000592D =       22829. bytes (REL,CON)

      Value  Global                              Global Defined In Module
      -----  --------------------------------   ------------------------
     00008929  A$stm8s_gpioSTM8S_StdPeriph_Lib/   stm8s_gpio
     00008929  C$stm8s_gpio.c$198$1_0$368         stm8s_gpio
     00008929  XG$GPIO_ReadInputData$0$0          stm8s_gpio
     0000892A  A$stm8s_gpioSTM8S_StdPeriph_Lib/   stm8s_gpio
     0000892A  C$stm8s_gpio.c$206$1_0$370         stm8s_gpio
     0000892A  C$stm8s_gpio.c$208$1_0$370         stm8s_gpio
     0000892A  G$GPIO_ReadInputPin$0$0            stm8s_gpio
     0000892A  _GPIO_ReadInputPin                 stm8s_gpio
     0000892C  A$stm8s_gpioSTM8S_StdPeriph_Lib/   stm8s_gpio
     0000892E  A$stm8s_gpioSTM8S_StdPeriph_Lib/   stm8s_gpio
     00008930  A$stm8s_gpioSTM8S_StdPeriph_Lib/   stm8s_gpio
     00008930  C$stm8s_gpio.c$209$1_0$370         stm8s_gpio
     00008930  XG$GPIO_ReadInputPin$0$0           stm8s_gpio
     00008931  A$stm8s_gpioSTM8S_StdPeriph_Lib/   stm8s_gpio
     00008931  C$stm8s_gpio.c$218$1_0$372         stm8s_gpio
     00008931  G$GPIO_ExternalPullUpConfig$0$0    stm8s_gpio
     00008931  _GPIO_ExternalPullUpConfig         stm8s_gpio
     00008932  A$stm8s_gpioSTM8S_StdPeriph_Lib/   stm8s_gpio
     00008932  C$stm8s_gpio.c$224$1_0$372         stm8s_gpio
     00008934  A$stm8s_gpioSTM8S_StdPeriph_Lib/   stm8s_gpio
     00008936  A$stm8s_gpioSTM8S_StdPeriph_Lib/   stm8s_gpio
     00008936  C$stm8s_gpio.c$226$2_0$373         stm8s_gpio
     00008938  A$stm8s_gpioSTM8S_StdPeriph_Lib/   stm8s_gpio
     0000893B  A$stm8s_gpioSTM8S_StdPeriph_Lib/   stm8s_gpio
     0000893C  A$stm8s_gpioSTM8S_StdPeriph_Lib/   stm8s_gpio
     0000893E  A$stm8s_gpioSTM8S_StdPeriph_Lib/   stm8s_gpio
     0000893F  A$stm8s_gpioSTM8S_StdPeriph_Lib/   stm8s_gpio
     00008941  A$stm8s_gpioSTM8S_StdPeriph_Lib/   stm8s_gpio
     00008941  C$stm8s_gpio.c$229$2_0$374         stm8s_gpio
     00008943  A$stm8s_gpioSTM8S_StdPeriph_Lib/   stm8s_gpio
     00008946  A$stm8s_gpioSTM8S_StdPeriph_Lib/   stm8s_gpio
     00008947  A$stm8s_gpioSTM8S_StdPeriph_Lib/   stm8s_gpio
     00008949  A$stm8s_gpioSTM8S_StdPeriph_Lib/   stm8s_gpio
     0000894B  A$stm8s_gpioSTM8S_StdPeriph_Lib/   stm8s_gpio
     0000894C  A$stm8s_gpioSTM8S_StdPeriph_Lib/   stm8s_gpio
     0000894E  A$stm8s_gpioSTM8S_StdPeriph_Lib/   stm8s_gpio
     0000894F  A$stm8s_gpioSTM8S_StdPeriph_Lib/   stm8s_gpio
     00008950  A$stm8s_gpioSTM8S_StdPeriph_Lib/   stm8s_gpio
     00008950  C$stm8s_gpio.c$231$1_0$372         stm8s_gpio
     00008950  XG$GPIO_ExternalPullUpConfig$0$0   stm8s_gpio
     00008951  A$stm8s_uart2TM8S_StdPeriph_Lib/   stm8s_uart2
     00008951  C$stm8s_uart2.c$53$0_0$346         stm8s_uart2
     00008951  C$stm8s_uart2.c$57$1_0$346         stm8s_uart2
     00008951  G$UART2_DeInit$0$0                 stm8s_uart2
     00008951  _UART2_DeInit                      stm8s_uart2
     00008954  A$stm8s_uart2TM8S_StdPeriph_Lib/   stm8s_uart2
     00008954  C$stm8s_uart2.c$58$1_0$346         stm8s_uart2
     00008957  A$stm8s_uart2TM8S_StdPeriph_Lib/   stm8s_uart2
     00008957  C$stm8s_uart2.c$60$1_0$346         stm8s_uart2
     0000895B  A$stm8s_uart2TM8S_StdPeriph_Lib/   stm8s_uart2
     0000895B  C$stm8s_uart2.c$61$1_0$346         stm8s_uart2
ASxxxx Linker V03.00 + NoICE + sdld,  page 41.
Hexadecimal  [32-Bits]

Area                                    Addr        Size        Decimal Bytes (Attributes)
--------------------------------        ----        ----        ------- ----- ------------
CODE                                000082B4    0000592D =       22829. bytes (REL,CON)

      Value  Global                              Global Defined In Module
      -----  --------------------------------   ------------------------
     0000895F  A$stm8s_uart2TM8S_StdPeriph_Lib/   stm8s_uart2
     0000895F  C$stm8s_uart2.c$63$1_0$346         stm8s_uart2
     00008963  A$stm8s_uart2TM8S_StdPeriph_Lib/   stm8s_uart2
     00008963  C$stm8s_uart2.c$64$1_0$346         stm8s_uart2
     00008967  A$stm8s_uart2TM8S_StdPeriph_Lib/   stm8s_uart2
     00008967  C$stm8s_uart2.c$65$1_0$346         stm8s_uart2
     0000896B  A$stm8s_uart2TM8S_StdPeriph_Lib/   stm8s_uart2
     0000896B  C$stm8s_uart2.c$66$1_0$346         stm8s_uart2
     0000896F  A$stm8s_uart2TM8S_StdPeriph_Lib/   stm8s_uart2
     0000896F  C$stm8s_uart2.c$67$1_0$346         stm8s_uart2
     00008973  A$stm8s_uart2TM8S_StdPeriph_Lib/   stm8s_uart2
     00008973  C$stm8s_uart2.c$68$1_0$346         stm8s_uart2
     00008977  A$stm8s_uart2TM8S_StdPeriph_Lib/   stm8s_uart2
     00008977  C$stm8s_uart2.c$69$1_0$346         stm8s_uart2
     00008977  XG$UART2_DeInit$0$0                stm8s_uart2
     00008978  A$stm8s_uart2TM8S_StdPeriph_Lib/   stm8s_uart2
     00008978  C$stm8s_uart2.c$85$1_0$348         stm8s_uart2
     00008978  G$UART2_Init$0$0                   stm8s_uart2
     00008978  _UART2_Init                        stm8s_uart2
     0000897A  A$stm8s_uart2TM8S_StdPeriph_Lib/   stm8s_uart2
     0000897A  C$stm8s_uart2.c$99$1_0$348         stm8s_uart2
     0000897E  A$stm8s_uart2TM8S_StdPeriph_Lib/   stm8s_uart2
     0000897E  C$stm8s_uart2.c$101$1_0$348        stm8s_uart2
     00008981  A$stm8s_uart2TM8S_StdPeriph_Lib/   stm8s_uart2
     00008983  A$stm8s_uart2TM8S_StdPeriph_Lib/   stm8s_uart2
     00008986  A$stm8s_uart2TM8S_StdPeriph_Lib/   stm8s_uart2
     00008986  C$stm8s_uart2.c$104$1_0$348        stm8s_uart2
     00008989  A$stm8s_uart2TM8S_StdPeriph_Lib/   stm8s_uart2
     0000898B  A$stm8s_uart2TM8S_StdPeriph_Lib/   stm8s_uart2
     0000898E  A$stm8s_uart2TM8S_StdPeriph_Lib/   stm8s_uart2
     0000898E  C$stm8s_uart2.c$106$1_0$348        stm8s_uart2
     00008991  A$stm8s_uart2TM8S_StdPeriph_Lib/   stm8s_uart2
     00008993  A$stm8s_uart2TM8S_StdPeriph_Lib/   stm8s_uart2
     00008996  A$stm8s_uart2TM8S_StdPeriph_Lib/   stm8s_uart2
     00008996  C$stm8s_uart2.c$109$1_0$348        stm8s_uart2
     00008999  A$stm8s_uart2TM8S_StdPeriph_Lib/   stm8s_uart2
     0000899B  A$stm8s_uart2TM8S_StdPeriph_Lib/   stm8s_uart2
     0000899E  A$stm8s_uart2TM8S_StdPeriph_Lib/   stm8s_uart2
     0000899E  C$stm8s_uart2.c$111$1_0$348        stm8s_uart2
     000089A1  A$stm8s_uart2TM8S_StdPeriph_Lib/   stm8s_uart2
     000089A3  A$stm8s_uart2TM8S_StdPeriph_Lib/   stm8s_uart2
     000089A6  A$stm8s_uart2TM8S_StdPeriph_Lib/   stm8s_uart2
     000089A6  C$stm8s_uart2.c$114$1_0$348        stm8s_uart2
     000089A9  A$stm8s_uart2TM8S_StdPeriph_Lib/   stm8s_uart2
     000089AD  A$stm8s_uart2TM8S_StdPeriph_Lib/   stm8s_uart2
     000089AD  C$stm8s_uart2.c$116$1_0$348        stm8s_uart2
     000089B0  A$stm8s_uart2TM8S_StdPeriph_Lib/   stm8s_uart2
     000089B2  A$stm8s_uart2TM8S_StdPeriph_Lib/   stm8s_uart2
     000089B5  A$stm8s_uart2TM8S_StdPeriph_Lib/   stm8s_uart2
     000089B5  C$stm8s_uart2.c$118$1_0$348        stm8s_uart2
     000089B8  A$stm8s_uart2TM8S_StdPeriph_Lib/   stm8s_uart2
ASxxxx Linker V03.00 + NoICE + sdld,  page 42.
Hexadecimal  [32-Bits]

Area                                    Addr        Size        Decimal Bytes (Attributes)
--------------------------------        ----        ----        ------- ----- ------------
CODE                                000082B4    0000592D =       22829. bytes (REL,CON)

      Value  Global                              Global Defined In Module
      -----  --------------------------------   ------------------------
     000089BA  A$stm8s_uart2TM8S_StdPeriph_Lib/   stm8s_uart2
     000089BD  A$stm8s_uart2TM8S_StdPeriph_Lib/   stm8s_uart2
     000089BD  C$stm8s_uart2.c$121$1_0$348        stm8s_uart2
     000089C0  A$stm8s_uart2TM8S_StdPeriph_Lib/   stm8s_uart2
     000089C2  A$stm8s_uart2TM8S_StdPeriph_Lib/   stm8s_uart2
     000089C4  A$stm8s_uart2TM8S_StdPeriph_Lib/   stm8s_uart2
     000089C6  A$stm8s_uart2TM8S_StdPeriph_Lib/   stm8s_uart2
     000089C8  A$stm8s_uart2TM8S_StdPeriph_Lib/   stm8s_uart2
     000089CA  A$stm8s_uart2TM8S_StdPeriph_Lib/   stm8s_uart2
     000089CB  A$stm8s_uart2TM8S_StdPeriph_Lib/   stm8s_uart2
     000089CD  A$stm8s_uart2TM8S_StdPeriph_Lib/   stm8s_uart2
     000089CF  A$stm8s_uart2TM8S_StdPeriph_Lib/   stm8s_uart2
     000089D0  A$stm8s_uart2TM8S_StdPeriph_Lib/   stm8s_uart2
     000089D2  A$stm8s_uart2TM8S_StdPeriph_Lib/   stm8s_uart2
     000089D4  A$stm8s_uart2TM8S_StdPeriph_Lib/   stm8s_uart2
     000089D5  A$stm8s_uart2TM8S_StdPeriph_Lib/   stm8s_uart2
     000089D7  A$stm8s_uart2TM8S_StdPeriph_Lib/   stm8s_uart2
     000089D8  A$stm8s_uart2TM8S_StdPeriph_Lib/   stm8s_uart2
     000089DA  A$stm8s_uart2TM8S_StdPeriph_Lib/   stm8s_uart2
     000089DB  A$stm8s_uart2TM8S_StdPeriph_Lib/   stm8s_uart2
     000089DD  A$stm8s_uart2TM8S_StdPeriph_Lib/   stm8s_uart2
     000089E0  A$stm8s_uart2TM8S_StdPeriph_Lib/   stm8s_uart2
     000089E2  A$stm8s_uart2TM8S_StdPeriph_Lib/   stm8s_uart2
     000089E4  A$stm8s_uart2TM8S_StdPeriph_Lib/   stm8s_uart2
     000089E6  A$stm8s_uart2TM8S_StdPeriph_Lib/   stm8s_uart2
     000089E8  A$stm8s_uart2TM8S_StdPeriph_Lib/   stm8s_uart2
     000089EA  A$stm8s_uart2TM8S_StdPeriph_Lib/   stm8s_uart2
     000089EC  A$stm8s_uart2TM8S_StdPeriph_Lib/   stm8s_uart2
     000089EE  A$stm8s_uart2TM8S_StdPeriph_Lib/   stm8s_uart2
     000089EE  C$stm8s_uart2.c$122$1_0$348        stm8s_uart2
     000089F1  A$stm8s_uart2TM8S_StdPeriph_Lib/   stm8s_uart2
     000089F3  A$stm8s_uart2TM8S_StdPeriph_Lib/   stm8s_uart2
     000089F5  A$stm8s_uart2TM8S_StdPeriph_Lib/   stm8s_uart2
     000089F7  A$stm8s_uart2TM8S_StdPeriph_Lib/   stm8s_uart2
     000089F8  A$stm8s_uart2TM8S_StdPeriph_Lib/   stm8s_uart2
     000089FA  A$stm8s_uart2TM8S_StdPeriph_Lib/   stm8s_uart2
     000089FB  A$stm8s_uart2TM8S_StdPeriph_Lib/   stm8s_uart2
     000089FD  A$stm8s_uart2TM8S_StdPeriph_Lib/   stm8s_uart2
     000089FE  A$stm8s_uart2TM8S_StdPeriph_Lib/   stm8s_uart2
     000089FF  A$stm8s_uart2TM8S_StdPeriph_Lib/   stm8s_uart2
     00008A01  A$stm8s_uart2TM8S_StdPeriph_Lib/   stm8s_uart2
     00008A04  A$stm8s_uart2TM8S_StdPeriph_Lib/   stm8s_uart2
     00008A06  A$stm8s_uart2TM8S_StdPeriph_Lib/   stm8s_uart2
     00008A08  A$stm8s_uart2TM8S_StdPeriph_Lib/   stm8s_uart2
     00008A0A  A$stm8s_uart2TM8S_StdPeriph_Lib/   stm8s_uart2
     00008A0B  A$stm8s_uart2TM8S_StdPeriph_Lib/   stm8s_uart2
     00008A0D  A$stm8s_uart2TM8S_StdPeriph_Lib/   stm8s_uart2
     00008A0E  A$stm8s_uart2TM8S_StdPeriph_Lib/   stm8s_uart2
     00008A10  A$stm8s_uart2TM8S_StdPeriph_Lib/   stm8s_uart2
     00008A11  A$stm8s_uart2TM8S_StdPeriph_Lib/   stm8s_uart2
     00008A13  A$stm8s_uart2TM8S_StdPeriph_Lib/   stm8s_uart2
ASxxxx Linker V03.00 + NoICE + sdld,  page 43.
Hexadecimal  [32-Bits]

Area                                    Addr        Size        Decimal Bytes (Attributes)
--------------------------------        ----        ----        ------- ----- ------------
CODE                                000082B4    0000592D =       22829. bytes (REL,CON)

      Value  Global                              Global Defined In Module
      -----  --------------------------------   ------------------------
     00008A16  A$stm8s_uart2TM8S_StdPeriph_Lib/   stm8s_uart2
     00008A18  A$stm8s_uart2TM8S_StdPeriph_Lib/   stm8s_uart2
     00008A1A  A$stm8s_uart2TM8S_StdPeriph_Lib/   stm8s_uart2
     00008A1C  A$stm8s_uart2TM8S_StdPeriph_Lib/   stm8s_uart2
     00008A1C  C$stm8s_uart2.c$126$1_0$348        stm8s_uart2
     00008A1E  A$stm8s_uart2TM8S_StdPeriph_Lib/   stm8s_uart2
     00008A1F  A$stm8s_uart2TM8S_StdPeriph_Lib/   stm8s_uart2
     00008A21  A$stm8s_uart2TM8S_StdPeriph_Lib/   stm8s_uart2
     00008A22  A$stm8s_uart2TM8S_StdPeriph_Lib/   stm8s_uart2
     00008A24  A$stm8s_uart2TM8S_StdPeriph_Lib/   stm8s_uart2
     00008A25  A$stm8s_uart2TM8S_StdPeriph_Lib/   stm8s_uart2
     00008A26  A$stm8s_uart2TM8S_StdPeriph_Lib/   stm8s_uart2
     00008A28  A$stm8s_uart2TM8S_StdPeriph_Lib/   stm8s_uart2
     00008A2B  A$stm8s_uart2TM8S_StdPeriph_Lib/   stm8s_uart2
     00008A2D  A$stm8s_uart2TM8S_StdPeriph_Lib/   stm8s_uart2
     00008A2F  A$stm8s_uart2TM8S_StdPeriph_Lib/   stm8s_uart2
     00008A31  A$stm8s_uart2TM8S_StdPeriph_Lib/   stm8s_uart2
     00008A33  A$stm8s_uart2TM8S_StdPeriph_Lib/   stm8s_uart2
     00008A36  A$stm8s_uart2TM8S_StdPeriph_Lib/   stm8s_uart2
     00008A38  A$stm8s_uart2TM8S_StdPeriph_Lib/   stm8s_uart2
     00008A3A  A$stm8s_uart2TM8S_StdPeriph_Lib/   stm8s_uart2
     00008A3C  A$stm8s_uart2TM8S_StdPeriph_Lib/   stm8s_uart2
     00008A3E  A$stm8s_uart2TM8S_StdPeriph_Lib/   stm8s_uart2
     00008A40  A$stm8s_uart2TM8S_StdPeriph_Lib/   stm8s_uart2
     00008A42  A$stm8s_uart2TM8S_StdPeriph_Lib/   stm8s_uart2
     00008A44  A$stm8s_uart2TM8S_StdPeriph_Lib/   stm8s_uart2
     00008A46  A$stm8s_uart2TM8S_StdPeriph_Lib/   stm8s_uart2
     00008A48  A$stm8s_uart2TM8S_StdPeriph_Lib/   stm8s_uart2
     00008A4A  A$stm8s_uart2TM8S_StdPeriph_Lib/   stm8s_uart2
     00008A4B  A$stm8s_uart2TM8S_StdPeriph_Lib/   stm8s_uart2
     00008A4D  A$stm8s_uart2TM8S_StdPeriph_Lib/   stm8s_uart2
     00008A4E  A$stm8s_uart2TM8S_StdPeriph_Lib/   stm8s_uart2
     00008A50  A$stm8s_uart2TM8S_StdPeriph_Lib/   stm8s_uart2
     00008A52  A$stm8s_uart2TM8S_StdPeriph_Lib/   stm8s_uart2
     00008A54  A$stm8s_uart2TM8S_StdPeriph_Lib/   stm8s_uart2
     00008A56  A$stm8s_uart2TM8S_StdPeriph_Lib/   stm8s_uart2
     00008A58  A$stm8s_uart2TM8S_StdPeriph_Lib/   stm8s_uart2
     00008A59  A$stm8s_uart2TM8S_StdPeriph_Lib/   stm8s_uart2
     00008A5B  A$stm8s_uart2TM8S_StdPeriph_Lib/   stm8s_uart2
     00008A5E  A$stm8s_uart2TM8S_StdPeriph_Lib/   stm8s_uart2
     00008A60  A$stm8s_uart2TM8S_StdPeriph_Lib/   stm8s_uart2
     00008A61  A$stm8s_uart2TM8S_StdPeriph_Lib/   stm8s_uart2
     00008A63  A$stm8s_uart2TM8S_StdPeriph_Lib/   stm8s_uart2
     00008A65  A$stm8s_uart2TM8S_StdPeriph_Lib/   stm8s_uart2
     00008A65  C$stm8s_uart2.c$128$1_0$348        stm8s_uart2
     00008A67  A$stm8s_uart2TM8S_StdPeriph_Lib/   stm8s_uart2
     00008A69  A$stm8s_uart2TM8S_StdPeriph_Lib/   stm8s_uart2
     00008A6A  A$stm8s_uart2TM8S_StdPeriph_Lib/   stm8s_uart2
     00008A6B  A$stm8s_uart2TM8S_StdPeriph_Lib/   stm8s_uart2
     00008A6D  A$stm8s_uart2TM8S_StdPeriph_Lib/   stm8s_uart2
     00008A6D  C$stm8s_uart2.c$130$1_0$348        stm8s_uart2
ASxxxx Linker V03.00 + NoICE + sdld,  page 44.
Hexadecimal  [32-Bits]

Area                                    Addr        Size        Decimal Bytes (Attributes)
--------------------------------        ----        ----        ------- ----- ------------
CODE                                000082B4    0000592D =       22829. bytes (REL,CON)

      Value  Global                              Global Defined In Module
      -----  --------------------------------   ------------------------
     00008A6F  A$stm8s_uart2TM8S_StdPeriph_Lib/   stm8s_uart2
     00008A72  A$stm8s_uart2TM8S_StdPeriph_Lib/   stm8s_uart2
     00008A72  C$stm8s_uart2.c$132$1_0$348        stm8s_uart2
     00008A74  A$stm8s_uart2TM8S_StdPeriph_Lib/   stm8s_uart2
     00008A77  A$stm8s_uart2TM8S_StdPeriph_Lib/   stm8s_uart2
     00008A77  C$stm8s_uart2.c$135$1_0$348        stm8s_uart2
     00008A7A  A$stm8s_uart2TM8S_StdPeriph_Lib/   stm8s_uart2
     00008A7C  A$stm8s_uart2TM8S_StdPeriph_Lib/   stm8s_uart2
     00008A7F  A$stm8s_uart2TM8S_StdPeriph_Lib/   stm8s_uart2
     00008A7F  C$stm8s_uart2.c$137$1_0$348        stm8s_uart2
     00008A82  A$stm8s_uart2TM8S_StdPeriph_Lib/   stm8s_uart2
     00008A84  A$stm8s_uart2TM8S_StdPeriph_Lib/   stm8s_uart2
     00008A87  A$stm8s_uart2TM8S_StdPeriph_Lib/   stm8s_uart2
     00008A87  C$stm8s_uart2.c$139$1_0$348        stm8s_uart2
     00008A8A  A$stm8s_uart2TM8S_StdPeriph_Lib/   stm8s_uart2
     00008A8C  A$stm8s_uart2TM8S_StdPeriph_Lib/   stm8s_uart2
     00008A8E  A$stm8s_uart2TM8S_StdPeriph_Lib/   stm8s_uart2
     00008A90  A$stm8s_uart2TM8S_StdPeriph_Lib/   stm8s_uart2
     00008A92  A$stm8s_uart2TM8S_StdPeriph_Lib/   stm8s_uart2
     00008A95  A$stm8s_uart2TM8S_StdPeriph_Lib/   stm8s_uart2
     00008A95  C$stm8s_uart2.c$142$1_0$348        stm8s_uart2
     00008A97  A$stm8s_uart2TM8S_StdPeriph_Lib/   stm8s_uart2
     00008A99  A$stm8s_uart2TM8S_StdPeriph_Lib/   stm8s_uart2
     00008A9B  A$stm8s_uart2TM8S_StdPeriph_Lib/   stm8s_uart2
     00008A9B  C$stm8s_uart2.c$145$2_0$349        stm8s_uart2
     00008A9F  A$stm8s_uart2TM8S_StdPeriph_Lib/   stm8s_uart2
     00008AA1  A$stm8s_uart2TM8S_StdPeriph_Lib/   stm8s_uart2
     00008AA1  C$stm8s_uart2.c$150$2_0$350        stm8s_uart2
     00008AA5  A$stm8s_uart2TM8S_StdPeriph_Lib/   stm8s_uart2
     00008AA5  C$stm8s_uart2.c$152$1_0$348        stm8s_uart2
     00008AA7  A$stm8s_uart2TM8S_StdPeriph_Lib/   stm8s_uart2
     00008AA9  A$stm8s_uart2TM8S_StdPeriph_Lib/   stm8s_uart2
     00008AAB  A$stm8s_uart2TM8S_StdPeriph_Lib/   stm8s_uart2
     00008AAB  C$stm8s_uart2.c$155$2_0$351        stm8s_uart2
     00008AAF  A$stm8s_uart2TM8S_StdPeriph_Lib/   stm8s_uart2
     00008AB1  A$stm8s_uart2TM8S_StdPeriph_Lib/   stm8s_uart2
     00008AB1  C$stm8s_uart2.c$160$2_0$352        stm8s_uart2
     00008AB5  A$stm8s_uart2TM8S_StdPeriph_Lib/   stm8s_uart2
     00008AB5  C$stm8s_uart2.c$164$1_0$348        stm8s_uart2
     00008AB7  A$stm8s_uart2TM8S_StdPeriph_Lib/   stm8s_uart2
     00008AB9  A$stm8s_uart2TM8S_StdPeriph_Lib/   stm8s_uart2
     00008AB9  C$stm8s_uart2.c$167$2_0$353        stm8s_uart2
     00008ABD  A$stm8s_uart2TM8S_StdPeriph_Lib/   stm8s_uart2
     00008ABF  A$stm8s_uart2TM8S_StdPeriph_Lib/   stm8s_uart2
     00008ABF  C$stm8s_uart2.c$171$2_0$354        stm8s_uart2
     00008AC2  A$stm8s_uart2TM8S_StdPeriph_Lib/   stm8s_uart2
     00008AC4  A$stm8s_uart2TM8S_StdPeriph_Lib/   stm8s_uart2
     00008AC6  A$stm8s_uart2TM8S_StdPeriph_Lib/   stm8s_uart2
     00008AC8  A$stm8s_uart2TM8S_StdPeriph_Lib/   stm8s_uart2
     00008ACA  A$stm8s_uart2TM8S_StdPeriph_Lib/   stm8s_uart2
     00008ACD  A$stm8s_uart2TM8S_StdPeriph_Lib/   stm8s_uart2
ASxxxx Linker V03.00 + NoICE + sdld,  page 45.
Hexadecimal  [32-Bits]

Area                                    Addr        Size        Decimal Bytes (Attributes)
--------------------------------        ----        ----        ------- ----- ------------
CODE                                000082B4    0000592D =       22829. bytes (REL,CON)

      Value  Global                              Global Defined In Module
      -----  --------------------------------   ------------------------
     00008ACF  A$stm8s_uart2TM8S_StdPeriph_Lib/   stm8s_uart2
     00008ACF  C$stm8s_uart2.c$173$1_0$348        stm8s_uart2
     00008ACF  XG$UART2_Init$0$0                  stm8s_uart2
     00008AD0  A$stm8s_uart2TM8S_StdPeriph_Lib/   stm8s_uart2
     00008AD0  C$stm8s_uart2.c$181$1_0$356        stm8s_uart2
     00008AD0  C$stm8s_uart2.c$183$1_0$356        stm8s_uart2
     00008AD0  G$UART2_Cmd$0$0                    stm8s_uart2
     00008AD0  _UART2_Cmd                         stm8s_uart2
     00008AD2  A$stm8s_uart2TM8S_StdPeriph_Lib/   stm8s_uart2
     00008AD4  A$stm8s_uart2TM8S_StdPeriph_Lib/   stm8s_uart2
     00008AD4  C$stm8s_uart2.c$186$2_0$357        stm8s_uart2
     00008AD8  A$stm8s_uart2TM8S_StdPeriph_Lib/   stm8s_uart2
     00008ADA  A$stm8s_uart2TM8S_StdPeriph_Lib/   stm8s_uart2
     00008ADA  C$stm8s_uart2.c$191$2_0$358        stm8s_uart2
     00008ADE  A$stm8s_uart2TM8S_StdPeriph_Lib/   stm8s_uart2
     00008ADE  C$stm8s_uart2.c$193$1_0$356        stm8s_uart2
     00008ADE  XG$UART2_Cmd$0$0                   stm8s_uart2
     00008ADF  A$stm8s_uart2TM8S_StdPeriph_Lib/   stm8s_uart2
     00008ADF  C$stm8s_uart2.c$210$1_0$360        stm8s_uart2
     00008ADF  G$UART2_ITConfig$0$0               stm8s_uart2
     00008ADF  _UART2_ITConfig                    stm8s_uart2
     00008AE1  A$stm8s_uart2TM8S_StdPeriph_Lib/   stm8s_uart2
     00008AE1  C$stm8s_uart2.c$219$1_0$360        stm8s_uart2
     00008AE3  A$stm8s_uart2TM8S_StdPeriph_Lib/   stm8s_uart2
     00008AE4  A$stm8s_uart2TM8S_StdPeriph_Lib/   stm8s_uart2
     00008AE4  C$stm8s_uart2.c$222$1_0$360        stm8s_uart2
     00008AE6  A$stm8s_uart2TM8S_StdPeriph_Lib/   stm8s_uart2
     00008AE8  A$stm8s_uart2TM8S_StdPeriph_Lib/   stm8s_uart2
     00008AE9  A$stm8s_uart2TM8S_StdPeriph_Lib/   stm8s_uart2
     00008AEB  A$stm8s_uart2TM8S_StdPeriph_Lib/   stm8s_uart2
     00008AED  A$stm8s_uart2TM8S_StdPeriph_Lib/   stm8s_uart2
     00008AEE  A$stm8s_uart2TM8S_StdPeriph_Lib/   stm8s_uart2
     00008AEF  A$stm8s_uart2TM8S_StdPeriph_Lib/   stm8s_uart2
     00008AF1  A$stm8s_uart2TM8S_StdPeriph_Lib/   stm8s_uart2
     00008AF3  A$stm8s_uart2TM8S_StdPeriph_Lib/   stm8s_uart2
     00008AF4  A$stm8s_uart2TM8S_StdPeriph_Lib/   stm8s_uart2
     00008AF6  A$stm8s_uart2TM8S_StdPeriph_Lib/   stm8s_uart2
     00008AF6  C$stm8s_uart2.c$224$1_0$360        stm8s_uart2
     00008AF8  A$stm8s_uart2TM8S_StdPeriph_Lib/   stm8s_uart2
     00008AFA  A$stm8s_uart2TM8S_StdPeriph_Lib/   stm8s_uart2
     00008AFA  C$stm8s_uart2.c$227$2_0$361        stm8s_uart2
     00008AFB  A$stm8s_uart2TM8S_StdPeriph_Lib/   stm8s_uart2
     00008AFC  A$stm8s_uart2TM8S_StdPeriph_Lib/   stm8s_uart2
     00008AFE  A$stm8s_uart2TM8S_StdPeriph_Lib/   stm8s_uart2
     00008AFE  C$stm8s_uart2.c$229$3_0$362        stm8s_uart2
     00008B01  A$stm8s_uart2TM8S_StdPeriph_Lib/   stm8s_uart2
     00008B03  A$stm8s_uart2TM8S_StdPeriph_Lib/   stm8s_uart2
     00008B06  A$stm8s_uart2TM8S_StdPeriph_Lib/   stm8s_uart2
     00008B09  A$stm8s_uart2TM8S_StdPeriph_Lib/   stm8s_uart2
     00008B09  C$stm8s_uart2.c$231$2_0$361        stm8s_uart2
     00008B0A  A$stm8s_uart2TM8S_StdPeriph_Lib/   stm8s_uart2
ASxxxx Linker V03.00 + NoICE + sdld,  page 46.
Hexadecimal  [32-Bits]

Area                                    Addr        Size        Decimal Bytes (Attributes)
--------------------------------        ----        ----        ------- ----- ------------
CODE                                000082B4    0000592D =       22829. bytes (REL,CON)

      Value  Global                              Global Defined In Module
      -----  --------------------------------   ------------------------
     00008B0C  A$stm8s_uart2TM8S_StdPeriph_Lib/   stm8s_uart2
     00008B0E  A$stm8s_uart2TM8S_StdPeriph_Lib/   stm8s_uart2
     00008B0E  C$stm8s_uart2.c$233$3_0$363        stm8s_uart2
     00008B11  A$stm8s_uart2TM8S_StdPeriph_Lib/   stm8s_uart2
     00008B13  A$stm8s_uart2TM8S_StdPeriph_Lib/   stm8s_uart2
     00008B16  A$stm8s_uart2TM8S_StdPeriph_Lib/   stm8s_uart2
     00008B19  A$stm8s_uart2TM8S_StdPeriph_Lib/   stm8s_uart2
     00008B19  C$stm8s_uart2.c$235$2_0$361        stm8s_uart2
     00008B1A  A$stm8s_uart2TM8S_StdPeriph_Lib/   stm8s_uart2
     00008B1C  A$stm8s_uart2TM8S_StdPeriph_Lib/   stm8s_uart2
     00008B1E  A$stm8s_uart2TM8S_StdPeriph_Lib/   stm8s_uart2
     00008B1E  C$stm8s_uart2.c$237$3_0$364        stm8s_uart2
     00008B21  A$stm8s_uart2TM8S_StdPeriph_Lib/   stm8s_uart2
     00008B23  A$stm8s_uart2TM8S_StdPeriph_Lib/   stm8s_uart2
     00008B26  A$stm8s_uart2TM8S_StdPeriph_Lib/   stm8s_uart2
     00008B28  A$stm8s_uart2TM8S_StdPeriph_Lib/   stm8s_uart2
     00008B28  C$stm8s_uart2.c$241$3_0$365        stm8s_uart2
     00008B2B  A$stm8s_uart2TM8S_StdPeriph_Lib/   stm8s_uart2
     00008B2D  A$stm8s_uart2TM8S_StdPeriph_Lib/   stm8s_uart2
     00008B30  A$stm8s_uart2TM8S_StdPeriph_Lib/   stm8s_uart2
     00008B32  A$stm8s_uart2TM8S_StdPeriph_Lib/   stm8s_uart2
     00008B32  C$stm8s_uart2.c$247$2_0$366        stm8s_uart2
     00008B33  A$stm8s_uart2TM8S_StdPeriph_Lib/   stm8s_uart2
     00008B34  A$stm8s_uart2TM8S_StdPeriph_Lib/   stm8s_uart2
     00008B36  A$stm8s_uart2TM8S_StdPeriph_Lib/   stm8s_uart2
     00008B36  C$stm8s_uart2.c$249$3_0$367        stm8s_uart2
     00008B39  A$stm8s_uart2TM8S_StdPeriph_Lib/   stm8s_uart2
     00008B3B  A$stm8s_uart2TM8S_StdPeriph_Lib/   stm8s_uart2
     00008B3D  A$stm8s_uart2TM8S_StdPeriph_Lib/   stm8s_uart2
     00008B3E  A$stm8s_uart2TM8S_StdPeriph_Lib/   stm8s_uart2
     00008B40  A$stm8s_uart2TM8S_StdPeriph_Lib/   stm8s_uart2
     00008B43  A$stm8s_uart2TM8S_StdPeriph_Lib/   stm8s_uart2
     00008B45  A$stm8s_uart2TM8S_StdPeriph_Lib/   stm8s_uart2
     00008B45  C$stm8s_uart2.c$251$2_0$366        stm8s_uart2
     00008B46  A$stm8s_uart2TM8S_StdPeriph_Lib/   stm8s_uart2
     00008B48  A$stm8s_uart2TM8S_StdPeriph_Lib/   stm8s_uart2
     00008B4A  A$stm8s_uart2TM8S_StdPeriph_Lib/   stm8s_uart2
     00008B4A  C$stm8s_uart2.c$253$3_0$368        stm8s_uart2
     00008B4D  A$stm8s_uart2TM8S_StdPeriph_Lib/   stm8s_uart2
     00008B4F  A$stm8s_uart2TM8S_StdPeriph_Lib/   stm8s_uart2
     00008B51  A$stm8s_uart2TM8S_StdPeriph_Lib/   stm8s_uart2
     00008B52  A$stm8s_uart2TM8S_StdPeriph_Lib/   stm8s_uart2
     00008B54  A$stm8s_uart2TM8S_StdPeriph_Lib/   stm8s_uart2
     00008B57  A$stm8s_uart2TM8S_StdPeriph_Lib/   stm8s_uart2
     00008B59  A$stm8s_uart2TM8S_StdPeriph_Lib/   stm8s_uart2
     00008B59  C$stm8s_uart2.c$255$2_0$366        stm8s_uart2
     00008B5A  A$stm8s_uart2TM8S_StdPeriph_Lib/   stm8s_uart2
     00008B5C  A$stm8s_uart2TM8S_StdPeriph_Lib/   stm8s_uart2
     00008B5E  A$stm8s_uart2TM8S_StdPeriph_Lib/   stm8s_uart2
     00008B5E  C$stm8s_uart2.c$257$3_0$369        stm8s_uart2
     00008B61  A$stm8s_uart2TM8S_StdPeriph_Lib/   stm8s_uart2
ASxxxx Linker V03.00 + NoICE + sdld,  page 47.
Hexadecimal  [32-Bits]

Area                                    Addr        Size        Decimal Bytes (Attributes)
--------------------------------        ----        ----        ------- ----- ------------
CODE                                000082B4    0000592D =       22829. bytes (REL,CON)

      Value  Global                              Global Defined In Module
      -----  --------------------------------   ------------------------
     00008B63  A$stm8s_uart2TM8S_StdPeriph_Lib/   stm8s_uart2
     00008B65  A$stm8s_uart2TM8S_StdPeriph_Lib/   stm8s_uart2
     00008B66  A$stm8s_uart2TM8S_StdPeriph_Lib/   stm8s_uart2
     00008B68  A$stm8s_uart2TM8S_StdPeriph_Lib/   stm8s_uart2
     00008B6B  A$stm8s_uart2TM8S_StdPeriph_Lib/   stm8s_uart2
     00008B6D  A$stm8s_uart2TM8S_StdPeriph_Lib/   stm8s_uart2
     00008B6D  C$stm8s_uart2.c$261$3_0$370        stm8s_uart2
     00008B70  A$stm8s_uart2TM8S_StdPeriph_Lib/   stm8s_uart2
     00008B72  A$stm8s_uart2TM8S_StdPeriph_Lib/   stm8s_uart2
     00008B74  A$stm8s_uart2TM8S_StdPeriph_Lib/   stm8s_uart2
     00008B75  A$stm8s_uart2TM8S_StdPeriph_Lib/   stm8s_uart2
     00008B77  A$stm8s_uart2TM8S_StdPeriph_Lib/   stm8s_uart2
     00008B7A  A$stm8s_uart2TM8S_StdPeriph_Lib/   stm8s_uart2
     00008B7C  A$stm8s_uart2TM8S_StdPeriph_Lib/   stm8s_uart2
     00008B7C  C$stm8s_uart2.c$264$1_0$360        stm8s_uart2
     00008B7C  XG$UART2_ITConfig$0$0              stm8s_uart2
     00008B7D  A$stm8s_uart2TM8S_StdPeriph_Lib/   stm8s_uart2
     00008B7D  C$stm8s_uart2.c$272$1_0$372        stm8s_uart2
     00008B7D  C$stm8s_uart2.c$276$1_0$372        stm8s_uart2
     00008B7D  G$UART2_IrDAConfig$0$0             stm8s_uart2
     00008B7D  _UART2_IrDAConfig                  stm8s_uart2
     00008B7F  A$stm8s_uart2TM8S_StdPeriph_Lib/   stm8s_uart2
     00008B81  A$stm8s_uart2TM8S_StdPeriph_Lib/   stm8s_uart2
     00008B81  C$stm8s_uart2.c$278$2_0$373        stm8s_uart2
     00008B85  A$stm8s_uart2TM8S_StdPeriph_Lib/   stm8s_uart2
     00008B87  A$stm8s_uart2TM8S_StdPeriph_Lib/   stm8s_uart2
     00008B87  C$stm8s_uart2.c$282$2_0$374        stm8s_uart2
     00008B8B  A$stm8s_uart2TM8S_StdPeriph_Lib/   stm8s_uart2
     00008B8B  C$stm8s_uart2.c$284$1_0$372        stm8s_uart2
     00008B8B  XG$UART2_IrDAConfig$0$0            stm8s_uart2
     00008B8C  A$stm8s_uart2TM8S_StdPeriph_Lib/   stm8s_uart2
     00008B8C  C$stm8s_uart2.c$292$1_0$376        stm8s_uart2
     00008B8C  C$stm8s_uart2.c$297$1_0$376        stm8s_uart2
     00008B8C  G$UART2_IrDACmd$0$0                stm8s_uart2
     00008B8C  _UART2_IrDACmd                     stm8s_uart2
     00008B8E  A$stm8s_uart2TM8S_StdPeriph_Lib/   stm8s_uart2
     00008B90  A$stm8s_uart2TM8S_StdPeriph_Lib/   stm8s_uart2
     00008B90  C$stm8s_uart2.c$300$2_0$377        stm8s_uart2
     00008B94  A$stm8s_uart2TM8S_StdPeriph_Lib/   stm8s_uart2
     00008B96  A$stm8s_uart2TM8S_StdPeriph_Lib/   stm8s_uart2
     00008B96  C$stm8s_uart2.c$305$2_0$378        stm8s_uart2
     00008B9A  A$stm8s_uart2TM8S_StdPeriph_Lib/   stm8s_uart2
     00008B9A  C$stm8s_uart2.c$307$1_0$376        stm8s_uart2
     00008B9A  XG$UART2_IrDACmd$0$0               stm8s_uart2
     00008B9B  A$stm8s_uart2TM8S_StdPeriph_Lib/   stm8s_uart2
     00008B9B  C$stm8s_uart2.c$316$1_0$380        stm8s_uart2
     00008B9B  C$stm8s_uart2.c$321$1_0$380        stm8s_uart2
     00008B9B  G$UART2_LINBreakDetectionConfig$   stm8s_uart2
     00008B9B  _UART2_LINBreakDetectionConfig     stm8s_uart2
     00008B9D  A$stm8s_uart2TM8S_StdPeriph_Lib/   stm8s_uart2
     00008B9F  A$stm8s_uart2TM8S_StdPeriph_Lib/   stm8s_uart2
ASxxxx Linker V03.00 + NoICE + sdld,  page 48.
Hexadecimal  [32-Bits]

Area                                    Addr        Size        Decimal Bytes (Attributes)
--------------------------------        ----        ----        ------- ----- ------------
CODE                                000082B4    0000592D =       22829. bytes (REL,CON)

      Value  Global                              Global Defined In Module
      -----  --------------------------------   ------------------------
     00008B9F  C$stm8s_uart2.c$323$2_0$381        stm8s_uart2
     00008BA3  A$stm8s_uart2TM8S_StdPeriph_Lib/   stm8s_uart2
     00008BA5  A$stm8s_uart2TM8S_StdPeriph_Lib/   stm8s_uart2
     00008BA5  C$stm8s_uart2.c$327$2_0$382        stm8s_uart2
     00008BA9  A$stm8s_uart2TM8S_StdPeriph_Lib/   stm8s_uart2
     00008BA9  C$stm8s_uart2.c$329$1_0$380        stm8s_uart2
     00008BA9  XG$UART2_LINBreakDetectionConfig   stm8s_uart2
     00008BAA  A$stm8s_uart2TM8S_StdPeriph_Lib/   stm8s_uart2
     00008BAA  C$stm8s_uart2.c$341$1_0$384        stm8s_uart2
     00008BAA  C$stm8s_uart2.c$350$1_0$384        stm8s_uart2
     00008BAA  G$UART2_LINConfig$0$0              stm8s_uart2
     00008BAA  _UART2_LINConfig                   stm8s_uart2
     00008BAC  A$stm8s_uart2TM8S_StdPeriph_Lib/   stm8s_uart2
     00008BAE  A$stm8s_uart2TM8S_StdPeriph_Lib/   stm8s_uart2
     00008BAE  C$stm8s_uart2.c$352$2_0$385        stm8s_uart2
     00008BB2  A$stm8s_uart2TM8S_StdPeriph_Lib/   stm8s_uart2
     00008BB4  A$stm8s_uart2TM8S_StdPeriph_Lib/   stm8s_uart2
     00008BB4  C$stm8s_uart2.c$356$2_0$386        stm8s_uart2
     00008BB8  A$stm8s_uart2TM8S_StdPeriph_Lib/   stm8s_uart2
     00008BB8  C$stm8s_uart2.c$359$1_0$384        stm8s_uart2
     00008BBA  A$stm8s_uart2TM8S_StdPeriph_Lib/   stm8s_uart2
     00008BBC  A$stm8s_uart2TM8S_StdPeriph_Lib/   stm8s_uart2
     00008BBC  C$stm8s_uart2.c$361$2_0$387        stm8s_uart2
     00008BC0  A$stm8s_uart2TM8S_StdPeriph_Lib/   stm8s_uart2
     00008BC2  A$stm8s_uart2TM8S_StdPeriph_Lib/   stm8s_uart2
     00008BC2  C$stm8s_uart2.c$365$2_0$388        stm8s_uart2
     00008BC6  A$stm8s_uart2TM8S_StdPeriph_Lib/   stm8s_uart2
     00008BC6  C$stm8s_uart2.c$368$1_0$384        stm8s_uart2
     00008BC8  A$stm8s_uart2TM8S_StdPeriph_Lib/   stm8s_uart2
     00008BCA  A$stm8s_uart2TM8S_StdPeriph_Lib/   stm8s_uart2
     00008BCA  C$stm8s_uart2.c$370$2_0$389        stm8s_uart2
     00008BCE  A$stm8s_uart2TM8S_StdPeriph_Lib/   stm8s_uart2
     00008BD0  A$stm8s_uart2TM8S_StdPeriph_Lib/   stm8s_uart2
     00008BD0  C$stm8s_uart2.c$374$2_0$390        stm8s_uart2
     00008BD4  A$stm8s_uart2TM8S_StdPeriph_Lib/   stm8s_uart2
     00008BD4  C$stm8s_uart2.c$376$1_0$384        stm8s_uart2
     00008BD4  XG$UART2_LINConfig$0$0             stm8s_uart2
     00008BD5  A$stm8s_uart2TM8S_StdPeriph_Lib/   stm8s_uart2
     00008BD5  C$stm8s_uart2.c$384$1_0$392        stm8s_uart2
     00008BD5  C$stm8s_uart2.c$388$1_0$392        stm8s_uart2
     00008BD5  G$UART2_LINCmd$0$0                 stm8s_uart2
     00008BD5  _UART2_LINCmd                      stm8s_uart2
     00008BD7  A$stm8s_uart2TM8S_StdPeriph_Lib/   stm8s_uart2
     00008BD9  A$stm8s_uart2TM8S_StdPeriph_Lib/   stm8s_uart2
     00008BD9  C$stm8s_uart2.c$391$2_0$393        stm8s_uart2
     00008BDD  A$stm8s_uart2TM8S_StdPeriph_Lib/   stm8s_uart2
     00008BDF  A$stm8s_uart2TM8S_StdPeriph_Lib/   stm8s_uart2
     00008BDF  C$stm8s_uart2.c$396$2_0$394        stm8s_uart2
     00008BE3  A$stm8s_uart2TM8S_StdPeriph_Lib/   stm8s_uart2
     00008BE3  C$stm8s_uart2.c$398$1_0$392        stm8s_uart2
     00008BE3  XG$UART2_LINCmd$0$0                stm8s_uart2
ASxxxx Linker V03.00 + NoICE + sdld,  page 49.
Hexadecimal  [32-Bits]

Area                                    Addr        Size        Decimal Bytes (Attributes)
--------------------------------        ----        ----        ------- ----- ------------
CODE                                000082B4    0000592D =       22829. bytes (REL,CON)

      Value  Global                              Global Defined In Module
      -----  --------------------------------   ------------------------
     00008BE4  A$stm8s_uart2TM8S_StdPeriph_Lib/   stm8s_uart2
     00008BE4  C$stm8s_uart2.c$406$1_0$396        stm8s_uart2
     00008BE4  C$stm8s_uart2.c$411$1_0$396        stm8s_uart2
     00008BE4  G$UART2_SmartCardCmd$0$0           stm8s_uart2
     00008BE4  _UART2_SmartCardCmd                stm8s_uart2
     00008BE6  A$stm8s_uart2TM8S_StdPeriph_Lib/   stm8s_uart2
     00008BE8  A$stm8s_uart2TM8S_StdPeriph_Lib/   stm8s_uart2
     00008BE8  C$stm8s_uart2.c$414$2_0$397        stm8s_uart2
     00008BEC  A$stm8s_uart2TM8S_StdPeriph_Lib/   stm8s_uart2
     00008BEE  A$stm8s_uart2TM8S_StdPeriph_Lib/   stm8s_uart2
     00008BEE  C$stm8s_uart2.c$419$2_0$398        stm8s_uart2
     00008BF2  A$stm8s_uart2TM8S_StdPeriph_Lib/   stm8s_uart2
     00008BF2  C$stm8s_uart2.c$421$1_0$396        stm8s_uart2
     00008BF2  XG$UART2_SmartCardCmd$0$0          stm8s_uart2
     00008BF3  A$stm8s_uart2TM8S_StdPeriph_Lib/   stm8s_uart2
     00008BF3  C$stm8s_uart2.c$429$1_0$400        stm8s_uart2
     00008BF3  C$stm8s_uart2.c$434$1_0$400        stm8s_uart2
     00008BF3  G$UART2_SmartCardNACKCmd$0$0       stm8s_uart2
     00008BF3  _UART2_SmartCardNACKCmd            stm8s_uart2
     00008BF5  A$stm8s_uart2TM8S_StdPeriph_Lib/   stm8s_uart2
     00008BF7  A$stm8s_uart2TM8S_StdPeriph_Lib/   stm8s_uart2
     00008BF7  C$stm8s_uart2.c$437$2_0$401        stm8s_uart2
     00008BFB  A$stm8s_uart2TM8S_StdPeriph_Lib/   stm8s_uart2
     00008BFD  A$stm8s_uart2TM8S_StdPeriph_Lib/   stm8s_uart2
     00008BFD  C$stm8s_uart2.c$442$2_0$402        stm8s_uart2
     00008C01  A$stm8s_uart2TM8S_StdPeriph_Lib/   stm8s_uart2
     00008C01  C$stm8s_uart2.c$444$1_0$400        stm8s_uart2
     00008C01  XG$UART2_SmartCardNACKCmd$0$0      stm8s_uart2
     00008C02  A$stm8s_uart2TM8S_StdPeriph_Lib/   stm8s_uart2
     00008C02  C$stm8s_uart2.c$452$1_0$404        stm8s_uart2
     00008C02  C$stm8s_uart2.c$456$1_0$404        stm8s_uart2
     00008C02  G$UART2_WakeUpConfig$0$0           stm8s_uart2
     00008C02  _UART2_WakeUpConfig                stm8s_uart2
     00008C06  A$stm8s_uart2TM8S_StdPeriph_Lib/   stm8s_uart2
     00008C06  C$stm8s_uart2.c$457$1_0$404        stm8s_uart2
     00008C09  A$stm8s_uart2TM8S_StdPeriph_Lib/   stm8s_uart2
     00008C0B  A$stm8s_uart2TM8S_StdPeriph_Lib/   stm8s_uart2
     00008C0E  A$stm8s_uart2TM8S_StdPeriph_Lib/   stm8s_uart2
     00008C0E  C$stm8s_uart2.c$458$1_0$404        stm8s_uart2
     00008C0E  XG$UART2_WakeUpConfig$0$0          stm8s_uart2
     00008C0F  A$stm8s_uart2TM8S_StdPeriph_Lib/   stm8s_uart2
     00008C0F  C$stm8s_uart2.c$466$1_0$406        stm8s_uart2
     00008C0F  C$stm8s_uart2.c$470$1_0$406        stm8s_uart2
     00008C0F  G$UART2_ReceiverWakeUpCmd$0$0      stm8s_uart2
     00008C0F  _UART2_ReceiverWakeUpCmd           stm8s_uart2
     00008C11  A$stm8s_uart2TM8S_StdPeriph_Lib/   stm8s_uart2
     00008C13  A$stm8s_uart2TM8S_StdPeriph_Lib/   stm8s_uart2
     00008C13  C$stm8s_uart2.c$473$2_0$407        stm8s_uart2
     00008C17  A$stm8s_uart2TM8S_StdPeriph_Lib/   stm8s_uart2
     00008C19  A$stm8s_uart2TM8S_StdPeriph_Lib/   stm8s_uart2
     00008C19  C$stm8s_uart2.c$478$2_0$408        stm8s_uart2
ASxxxx Linker V03.00 + NoICE + sdld,  page 50.
Hexadecimal  [32-Bits]

Area                                    Addr        Size        Decimal Bytes (Attributes)
--------------------------------        ----        ----        ------- ----- ------------
CODE                                000082B4    0000592D =       22829. bytes (REL,CON)

      Value  Global                              Global Defined In Module
      -----  --------------------------------   ------------------------
     00008C1D  A$stm8s_uart2TM8S_StdPeriph_Lib/   stm8s_uart2
     00008C1D  C$stm8s_uart2.c$480$1_0$406        stm8s_uart2
     00008C1D  XG$UART2_ReceiverWakeUpCmd$0$0     stm8s_uart2
     00008C1E  A$stm8s_uart2TM8S_StdPeriph_Lib/   stm8s_uart2
     00008C1E  C$stm8s_uart2.c$487$1_0$410        stm8s_uart2
     00008C1E  C$stm8s_uart2.c$489$1_0$410        stm8s_uart2
     00008C1E  G$UART2_ReceiveData8$0$0           stm8s_uart2
     00008C1E  _UART2_ReceiveData8                stm8s_uart2
     00008C21  A$stm8s_uart2TM8S_StdPeriph_Lib/   stm8s_uart2
     00008C21  C$stm8s_uart2.c$490$1_0$410        stm8s_uart2
     00008C21  XG$UART2_ReceiveData8$0$0          stm8s_uart2
     00008C22  A$stm8s_uart2TM8S_StdPeriph_Lib/   stm8s_uart2
     00008C22  C$stm8s_uart2.c$497$1_0$412        stm8s_uart2
     00008C22  G$UART2_ReceiveData9$0$0           stm8s_uart2
     00008C22  _UART2_ReceiveData9                stm8s_uart2
     00008C24  A$stm8s_uart2TM8S_StdPeriph_Lib/   stm8s_uart2
     00008C24  C$stm8s_uart2.c$501$1_0$412        stm8s_uart2
     00008C27  A$stm8s_uart2TM8S_StdPeriph_Lib/   stm8s_uart2
     00008C29  A$stm8s_uart2TM8S_StdPeriph_Lib/   stm8s_uart2
     00008C2A  A$stm8s_uart2TM8S_StdPeriph_Lib/   stm8s_uart2
     00008C2B  A$stm8s_uart2TM8S_StdPeriph_Lib/   stm8s_uart2
     00008C2C  A$stm8s_uart2TM8S_StdPeriph_Lib/   stm8s_uart2
     00008C2D  A$stm8s_uart2TM8S_StdPeriph_Lib/   stm8s_uart2
     00008C2D  C$stm8s_uart2.c$503$1_0$412        stm8s_uart2
     00008C30  A$stm8s_uart2TM8S_StdPeriph_Lib/   stm8s_uart2
     00008C32  A$stm8s_uart2TM8S_StdPeriph_Lib/   stm8s_uart2
     00008C34  A$stm8s_uart2TM8S_StdPeriph_Lib/   stm8s_uart2
     00008C35  A$stm8s_uart2TM8S_StdPeriph_Lib/   stm8s_uart2
     00008C37  A$stm8s_uart2TM8S_StdPeriph_Lib/   stm8s_uart2
     00008C38  A$stm8s_uart2TM8S_StdPeriph_Lib/   stm8s_uart2
     00008C3A  A$stm8s_uart2TM8S_StdPeriph_Lib/   stm8s_uart2
     00008C3C  A$stm8s_uart2TM8S_StdPeriph_Lib/   stm8s_uart2
     00008C3D  A$stm8s_uart2TM8S_StdPeriph_Lib/   stm8s_uart2
     00008C3F  A$stm8s_uart2TM8S_StdPeriph_Lib/   stm8s_uart2
     00008C3F  C$stm8s_uart2.c$504$1_0$412        stm8s_uart2
     00008C3F  XG$UART2_ReceiveData9$0$0          stm8s_uart2
     00008C40  A$stm8s_uart2TM8S_StdPeriph_Lib/   stm8s_uart2
     00008C40  C$stm8s_uart2.c$511$1_0$414        stm8s_uart2
     00008C40  C$stm8s_uart2.c$514$1_0$414        stm8s_uart2
     00008C40  G$UART2_SendData8$0$0              stm8s_uart2
     00008C40  _UART2_SendData8                   stm8s_uart2
     00008C43  A$stm8s_uart2TM8S_StdPeriph_Lib/   stm8s_uart2
     00008C45  A$stm8s_uart2TM8S_StdPeriph_Lib/   stm8s_uart2
     00008C46  A$stm8s_uart2TM8S_StdPeriph_Lib/   stm8s_uart2
     00008C46  C$stm8s_uart2.c$515$1_0$414        stm8s_uart2
     00008C46  XG$UART2_SendData8$0$0             stm8s_uart2
     00008C47  A$stm8s_uart2TM8S_StdPeriph_Lib/   stm8s_uart2
     00008C47  C$stm8s_uart2.c$522$1_0$416        stm8s_uart2
     00008C47  G$UART2_SendData9$0$0              stm8s_uart2
     00008C47  _UART2_SendData9                   stm8s_uart2
     00008C48  A$stm8s_uart2TM8S_StdPeriph_Lib/   stm8s_uart2
ASxxxx Linker V03.00 + NoICE + sdld,  page 51.
Hexadecimal  [32-Bits]

Area                                    Addr        Size        Decimal Bytes (Attributes)
--------------------------------        ----        ----        ------- ----- ------------
CODE                                000082B4    0000592D =       22829. bytes (REL,CON)

      Value  Global                              Global Defined In Module
      -----  --------------------------------   ------------------------
     00008C48  C$stm8s_uart2.c$525$1_0$416        stm8s_uart2
     00008C4C  A$stm8s_uart2TM8S_StdPeriph_Lib/   stm8s_uart2
     00008C4C  C$stm8s_uart2.c$528$1_0$416        stm8s_uart2
     00008C4F  A$stm8s_uart2TM8S_StdPeriph_Lib/   stm8s_uart2
     00008C51  A$stm8s_uart2TM8S_StdPeriph_Lib/   stm8s_uart2
     00008C53  A$stm8s_uart2TM8S_StdPeriph_Lib/   stm8s_uart2
     00008C54  A$stm8s_uart2TM8S_StdPeriph_Lib/   stm8s_uart2
     00008C55  A$stm8s_uart2TM8S_StdPeriph_Lib/   stm8s_uart2
     00008C56  A$stm8s_uart2TM8S_StdPeriph_Lib/   stm8s_uart2
     00008C58  A$stm8s_uart2TM8S_StdPeriph_Lib/   stm8s_uart2
     00008C5A  A$stm8s_uart2TM8S_StdPeriph_Lib/   stm8s_uart2
     00008C5D  A$stm8s_uart2TM8S_StdPeriph_Lib/   stm8s_uart2
     00008C5D  C$stm8s_uart2.c$531$1_0$416        stm8s_uart2
     00008C5F  A$stm8s_uart2TM8S_StdPeriph_Lib/   stm8s_uart2
     00008C62  A$stm8s_uart2TM8S_StdPeriph_Lib/   stm8s_uart2
     00008C63  A$stm8s_uart2TM8S_StdPeriph_Lib/   stm8s_uart2
     00008C63  C$stm8s_uart2.c$532$1_0$416        stm8s_uart2
     00008C63  XG$UART2_SendData9$0$0             stm8s_uart2
     00008C64  A$stm8s_uart2TM8S_StdPeriph_Lib/   stm8s_uart2
     00008C64  C$stm8s_uart2.c$539$1_0$418        stm8s_uart2
     00008C64  C$stm8s_uart2.c$541$1_0$418        stm8s_uart2
     00008C64  G$UART2_SendBreak$0$0              stm8s_uart2
     00008C64  _UART2_SendBreak                   stm8s_uart2
     00008C68  A$stm8s_uart2TM8S_StdPeriph_Lib/   stm8s_uart2
     00008C68  C$stm8s_uart2.c$542$1_0$418        stm8s_uart2
     00008C68  XG$UART2_SendBreak$0$0             stm8s_uart2
     00008C69  A$stm8s_uart2TM8S_StdPeriph_Lib/   stm8s_uart2
     00008C69  C$stm8s_uart2.c$549$1_0$420        stm8s_uart2
     00008C69  C$stm8s_uart2.c$555$1_0$420        stm8s_uart2
     00008C69  G$UART2_SetAddress$0$0             stm8s_uart2
     00008C69  _UART2_SetAddress                  stm8s_uart2
     00008C6C  A$stm8s_uart2TM8S_StdPeriph_Lib/   stm8s_uart2
     00008C6E  A$stm8s_uart2TM8S_StdPeriph_Lib/   stm8s_uart2
     00008C71  A$stm8s_uart2TM8S_StdPeriph_Lib/   stm8s_uart2
     00008C71  C$stm8s_uart2.c$557$1_0$420        stm8s_uart2
     00008C74  A$stm8s_uart2TM8S_StdPeriph_Lib/   stm8s_uart2
     00008C76  A$stm8s_uart2TM8S_StdPeriph_Lib/   stm8s_uart2
     00008C79  A$stm8s_uart2TM8S_StdPeriph_Lib/   stm8s_uart2
     00008C79  C$stm8s_uart2.c$558$1_0$420        stm8s_uart2
     00008C79  XG$UART2_SetAddress$0$0            stm8s_uart2
     00008C7A  A$stm8s_uart2TM8S_StdPeriph_Lib/   stm8s_uart2
     00008C7A  C$stm8s_uart2.c$566$1_0$422        stm8s_uart2
     00008C7A  C$stm8s_uart2.c$569$1_0$422        stm8s_uart2
     00008C7A  G$UART2_SetGuardTime$0$0           stm8s_uart2
     00008C7A  _UART2_SetGuardTime                stm8s_uart2
     00008C7D  A$stm8s_uart2TM8S_StdPeriph_Lib/   stm8s_uart2
     00008C7F  A$stm8s_uart2TM8S_StdPeriph_Lib/   stm8s_uart2
     00008C80  A$stm8s_uart2TM8S_StdPeriph_Lib/   stm8s_uart2
     00008C80  C$stm8s_uart2.c$570$1_0$422        stm8s_uart2
     00008C80  XG$UART2_SetGuardTime$0$0          stm8s_uart2
     00008C81  A$stm8s_uart2TM8S_StdPeriph_Lib/   stm8s_uart2
ASxxxx Linker V03.00 + NoICE + sdld,  page 52.
Hexadecimal  [32-Bits]

Area                                    Addr        Size        Decimal Bytes (Attributes)
--------------------------------        ----        ----        ------- ----- ------------
CODE                                000082B4    0000592D =       22829. bytes (REL,CON)

      Value  Global                              Global Defined In Module
      -----  --------------------------------   ------------------------
     00008C81  C$stm8s_uart2.c$594$1_0$424        stm8s_uart2
     00008C81  C$stm8s_uart2.c$597$1_0$424        stm8s_uart2
     00008C81  G$UART2_SetPrescaler$0$0           stm8s_uart2
     00008C81  _UART2_SetPrescaler                stm8s_uart2
     00008C84  A$stm8s_uart2TM8S_StdPeriph_Lib/   stm8s_uart2
     00008C86  A$stm8s_uart2TM8S_StdPeriph_Lib/   stm8s_uart2
     00008C87  A$stm8s_uart2TM8S_StdPeriph_Lib/   stm8s_uart2
     00008C87  C$stm8s_uart2.c$598$1_0$424        stm8s_uart2
     00008C87  XG$UART2_SetPrescaler$0$0          stm8s_uart2
     00008C88  A$stm8s_uart2TM8S_StdPeriph_Lib/   stm8s_uart2
     00008C88  C$stm8s_uart2.c$606$1_0$426        stm8s_uart2
     00008C88  G$UART2_GetFlagStatus$0$0          stm8s_uart2
     00008C88  _UART2_GetFlagStatus               stm8s_uart2
     00008C89  A$stm8s_uart2TM8S_StdPeriph_Lib/   stm8s_uart2
     00008C89  C$stm8s_uart2.c$614$1_0$426        stm8s_uart2
     00008C8B  A$stm8s_uart2TM8S_StdPeriph_Lib/   stm8s_uart2
     00008C8E  A$stm8s_uart2TM8S_StdPeriph_Lib/   stm8s_uart2
     00008C90  A$stm8s_uart2TM8S_StdPeriph_Lib/   stm8s_uart2
     00008C90  C$stm8s_uart2.c$616$2_0$427        stm8s_uart2
     00008C93  A$stm8s_uart2TM8S_StdPeriph_Lib/   stm8s_uart2
     00008C95  A$stm8s_uart2TM8S_StdPeriph_Lib/   stm8s_uart2
     00008C97  A$stm8s_uart2TM8S_StdPeriph_Lib/   stm8s_uart2
     00008C99  A$stm8s_uart2TM8S_StdPeriph_Lib/   stm8s_uart2
     00008C9B  A$stm8s_uart2TM8S_StdPeriph_Lib/   stm8s_uart2
     00008C9B  C$stm8s_uart2.c$619$3_0$428        stm8s_uart2
     00008C9D  A$stm8s_uart2TM8S_StdPeriph_Lib/   stm8s_uart2
     00008CA0  A$stm8s_uart2TM8S_StdPeriph_Lib/   stm8s_uart2
     00008CA0  C$stm8s_uart2.c$624$3_0$429        stm8s_uart2
     00008CA1  A$stm8s_uart2TM8S_StdPeriph_Lib/   stm8s_uart2
     00008CA4  A$stm8s_uart2TM8S_StdPeriph_Lib/   stm8s_uart2
     00008CA4  C$stm8s_uart2.c$627$1_0$426        stm8s_uart2
     00008CA6  A$stm8s_uart2TM8S_StdPeriph_Lib/   stm8s_uart2
     00008CA9  A$stm8s_uart2TM8S_StdPeriph_Lib/   stm8s_uart2
     00008CAB  A$stm8s_uart2TM8S_StdPeriph_Lib/   stm8s_uart2
     00008CAB  C$stm8s_uart2.c$629$2_0$430        stm8s_uart2
     00008CAE  A$stm8s_uart2TM8S_StdPeriph_Lib/   stm8s_uart2
     00008CB0  A$stm8s_uart2TM8S_StdPeriph_Lib/   stm8s_uart2
     00008CB2  A$stm8s_uart2TM8S_StdPeriph_Lib/   stm8s_uart2
     00008CB4  A$stm8s_uart2TM8S_StdPeriph_Lib/   stm8s_uart2
     00008CB6  A$stm8s_uart2TM8S_StdPeriph_Lib/   stm8s_uart2
     00008CB6  C$stm8s_uart2.c$632$3_0$431        stm8s_uart2
     00008CB8  A$stm8s_uart2TM8S_StdPeriph_Lib/   stm8s_uart2
     00008CBA  A$stm8s_uart2TM8S_StdPeriph_Lib/   stm8s_uart2
     00008CBA  C$stm8s_uart2.c$637$3_0$432        stm8s_uart2
     00008CBB  A$stm8s_uart2TM8S_StdPeriph_Lib/   stm8s_uart2
     00008CBD  A$stm8s_uart2TM8S_StdPeriph_Lib/   stm8s_uart2
     00008CBD  C$stm8s_uart2.c$640$1_0$426        stm8s_uart2
     00008CBF  A$stm8s_uart2TM8S_StdPeriph_Lib/   stm8s_uart2
     00008CC2  A$stm8s_uart2TM8S_StdPeriph_Lib/   stm8s_uart2
     00008CC4  A$stm8s_uart2TM8S_StdPeriph_Lib/   stm8s_uart2
     00008CC6  A$stm8s_uart2TM8S_StdPeriph_Lib/   stm8s_uart2
ASxxxx Linker V03.00 + NoICE + sdld,  page 53.
Hexadecimal  [32-Bits]

Area                                    Addr        Size        Decimal Bytes (Attributes)
--------------------------------        ----        ----        ------- ----- ------------
CODE                                000082B4    0000592D =       22829. bytes (REL,CON)

      Value  Global                              Global Defined In Module
      -----  --------------------------------   ------------------------
     00008CC9  A$stm8s_uart2TM8S_StdPeriph_Lib/   stm8s_uart2
     00008CCB  A$stm8s_uart2TM8S_StdPeriph_Lib/   stm8s_uart2
     00008CCB  C$stm8s_uart2.c$642$2_0$433        stm8s_uart2
     00008CCE  A$stm8s_uart2TM8S_StdPeriph_Lib/   stm8s_uart2
     00008CD0  A$stm8s_uart2TM8S_StdPeriph_Lib/   stm8s_uart2
     00008CD2  A$stm8s_uart2TM8S_StdPeriph_Lib/   stm8s_uart2
     00008CD4  A$stm8s_uart2TM8S_StdPeriph_Lib/   stm8s_uart2
     00008CD6  A$stm8s_uart2TM8S_StdPeriph_Lib/   stm8s_uart2
     00008CD6  C$stm8s_uart2.c$645$3_0$434        stm8s_uart2
     00008CD8  A$stm8s_uart2TM8S_StdPeriph_Lib/   stm8s_uart2
     00008CDA  A$stm8s_uart2TM8S_StdPeriph_Lib/   stm8s_uart2
     00008CDA  C$stm8s_uart2.c$650$3_0$435        stm8s_uart2
     00008CDB  A$stm8s_uart2TM8S_StdPeriph_Lib/   stm8s_uart2
     00008CDD  A$stm8s_uart2TM8S_StdPeriph_Lib/   stm8s_uart2
     00008CDD  C$stm8s_uart2.c$655$2_0$436        stm8s_uart2
     00008CE0  A$stm8s_uart2TM8S_StdPeriph_Lib/   stm8s_uart2
     00008CE2  A$stm8s_uart2TM8S_StdPeriph_Lib/   stm8s_uart2
     00008CE4  A$stm8s_uart2TM8S_StdPeriph_Lib/   stm8s_uart2
     00008CE6  A$stm8s_uart2TM8S_StdPeriph_Lib/   stm8s_uart2
     00008CE8  A$stm8s_uart2TM8S_StdPeriph_Lib/   stm8s_uart2
     00008CE8  C$stm8s_uart2.c$658$3_0$437        stm8s_uart2
     00008CEA  A$stm8s_uart2TM8S_StdPeriph_Lib/   stm8s_uart2
     00008CEC  A$stm8s_uart2TM8S_StdPeriph_Lib/   stm8s_uart2
     00008CEC  C$stm8s_uart2.c$663$3_0$438        stm8s_uart2
     00008CED  A$stm8s_uart2TM8S_StdPeriph_Lib/   stm8s_uart2
     00008CED  C$stm8s_uart2.c$668$1_0$426        stm8s_uart2
     00008CEF  A$stm8s_uart2TM8S_StdPeriph_Lib/   stm8s_uart2
     00008CEF  C$stm8s_uart2.c$669$1_0$426        stm8s_uart2
     00008CEF  XG$UART2_GetFlagStatus$0$0         stm8s_uart2
     00008CF0  A$stm8s_uart2TM8S_StdPeriph_Lib/   stm8s_uart2
     00008CF0  C$stm8s_uart2.c$699$1_0$440        stm8s_uart2
     00008CF0  C$stm8s_uart2.c$704$1_0$440        stm8s_uart2
     00008CF0  G$UART2_ClearFlag$0$0              stm8s_uart2
     00008CF0  _UART2_ClearFlag                   stm8s_uart2
     00008CF2  A$stm8s_uart2TM8S_StdPeriph_Lib/   stm8s_uart2
     00008CF5  A$stm8s_uart2TM8S_StdPeriph_Lib/   stm8s_uart2
     00008CF7  A$stm8s_uart2TM8S_StdPeriph_Lib/   stm8s_uart2
     00008CF7  C$stm8s_uart2.c$706$2_0$441        stm8s_uart2
     00008CFB  A$stm8s_uart2TM8S_StdPeriph_Lib/   stm8s_uart2
     00008CFD  A$stm8s_uart2TM8S_StdPeriph_Lib/   stm8s_uart2
     00008CFD  C$stm8s_uart2.c$709$1_0$440        stm8s_uart2
     00008CFF  A$stm8s_uart2TM8S_StdPeriph_Lib/   stm8s_uart2
     00008D02  A$stm8s_uart2TM8S_StdPeriph_Lib/   stm8s_uart2
     00008D04  A$stm8s_uart2TM8S_StdPeriph_Lib/   stm8s_uart2
     00008D04  C$stm8s_uart2.c$711$2_0$442        stm8s_uart2
     00008D08  A$stm8s_uart2TM8S_StdPeriph_Lib/   stm8s_uart2
     00008D0A  A$stm8s_uart2TM8S_StdPeriph_Lib/   stm8s_uart2
     00008D0A  C$stm8s_uart2.c$714$1_0$440        stm8s_uart2
     00008D0C  A$stm8s_uart2TM8S_StdPeriph_Lib/   stm8s_uart2
     00008D0F  A$stm8s_uart2TM8S_StdPeriph_Lib/   stm8s_uart2
     00008D11  A$stm8s_uart2TM8S_StdPeriph_Lib/   stm8s_uart2
ASxxxx Linker V03.00 + NoICE + sdld,  page 54.
Hexadecimal  [32-Bits]

Area                                    Addr        Size        Decimal Bytes (Attributes)
--------------------------------        ----        ----        ------- ----- ------------
CODE                                000082B4    0000592D =       22829. bytes (REL,CON)

      Value  Global                              Global Defined In Module
      -----  --------------------------------   ------------------------
     00008D11  C$stm8s_uart2.c$716$2_0$443        stm8s_uart2
     00008D15  A$stm8s_uart2TM8S_StdPeriph_Lib/   stm8s_uart2
     00008D17  A$stm8s_uart2TM8S_StdPeriph_Lib/   stm8s_uart2
     00008D17  C$stm8s_uart2.c$721$2_0$444        stm8s_uart2
     00008D1B  A$stm8s_uart2TM8S_StdPeriph_Lib/   stm8s_uart2
     00008D1B  C$stm8s_uart2.c$723$1_0$440        stm8s_uart2
     00008D1B  XG$UART2_ClearFlag$0$0             stm8s_uart2
     00008D1C  A$stm8s_uart2TM8S_StdPeriph_Lib/   stm8s_uart2
     00008D1C  C$stm8s_uart2.c$738$1_0$446        stm8s_uart2
     00008D1C  G$UART2_GetITStatus$0$0            stm8s_uart2
     00008D1C  _UART2_GetITStatus                 stm8s_uart2
     00008D1E  A$stm8s_uart2TM8S_StdPeriph_Lib/   stm8s_uart2
     00008D1E  C$stm8s_uart2.c$750$1_0$446        stm8s_uart2
     00008D20  A$stm8s_uart2TM8S_StdPeriph_Lib/   stm8s_uart2
     00008D21  A$stm8s_uart2TM8S_StdPeriph_Lib/   stm8s_uart2
     00008D23  A$stm8s_uart2TM8S_StdPeriph_Lib/   stm8s_uart2
     00008D24  A$stm8s_uart2TM8S_StdPeriph_Lib/   stm8s_uart2
     00008D26  A$stm8s_uart2TM8S_StdPeriph_Lib/   stm8s_uart2
     00008D28  A$stm8s_uart2TM8S_StdPeriph_Lib/   stm8s_uart2
     00008D29  A$stm8s_uart2TM8S_StdPeriph_Lib/   stm8s_uart2
     00008D2A  A$stm8s_uart2TM8S_StdPeriph_Lib/   stm8s_uart2
     00008D2C  A$stm8s_uart2TM8S_StdPeriph_Lib/   stm8s_uart2
     00008D2E  A$stm8s_uart2TM8S_StdPeriph_Lib/   stm8s_uart2
     00008D2F  A$stm8s_uart2TM8S_StdPeriph_Lib/   stm8s_uart2
     00008D31  A$stm8s_uart2TM8S_StdPeriph_Lib/   stm8s_uart2
     00008D31  C$stm8s_uart2.c$752$1_0$446        stm8s_uart2
     00008D32  A$stm8s_uart2TM8S_StdPeriph_Lib/   stm8s_uart2
     00008D33  A$stm8s_uart2TM8S_StdPeriph_Lib/   stm8s_uart2
     00008D35  A$stm8s_uart2TM8S_StdPeriph_Lib/   stm8s_uart2
     00008D35  C$stm8s_uart2.c$754$1_0$446        stm8s_uart2
     00008D36  A$stm8s_uart2TM8S_StdPeriph_Lib/   stm8s_uart2
     00008D38  A$stm8s_uart2TM8S_StdPeriph_Lib/   stm8s_uart2
     00008D3A  A$stm8s_uart2TM8S_StdPeriph_Lib/   stm8s_uart2
     00008D3B  A$stm8s_uart2TM8S_StdPeriph_Lib/   stm8s_uart2
     00008D3C  A$stm8s_uart2TM8S_StdPeriph_Lib/   stm8s_uart2
     00008D3E  A$stm8s_uart2TM8S_StdPeriph_Lib/   stm8s_uart2
     00008D40  A$stm8s_uart2TM8S_StdPeriph_Lib/   stm8s_uart2
     00008D41  A$stm8s_uart2TM8S_StdPeriph_Lib/   stm8s_uart2
     00008D43  A$stm8s_uart2TM8S_StdPeriph_Lib/   stm8s_uart2
     00008D43  C$stm8s_uart2.c$757$1_0$446        stm8s_uart2
     00008D45  A$stm8s_uart2TM8S_StdPeriph_Lib/   stm8s_uart2
     00008D48  A$stm8s_uart2TM8S_StdPeriph_Lib/   stm8s_uart2
     00008D4A  A$stm8s_uart2TM8S_StdPeriph_Lib/   stm8s_uart2
     00008D4A  C$stm8s_uart2.c$760$2_0$447        stm8s_uart2
     00008D4D  A$stm8s_uart2TM8S_StdPeriph_Lib/   stm8s_uart2
     00008D4F  A$stm8s_uart2TM8S_StdPeriph_Lib/   stm8s_uart2
     00008D50  A$stm8s_uart2TM8S_StdPeriph_Lib/   stm8s_uart2
     00008D50  C$stm8s_uart2.c$763$2_0$447        stm8s_uart2
     00008D53  A$stm8s_uart2TM8S_StdPeriph_Lib/   stm8s_uart2
     00008D55  A$stm8s_uart2TM8S_StdPeriph_Lib/   stm8s_uart2
     00008D57  A$stm8s_uart2TM8S_StdPeriph_Lib/   stm8s_uart2
ASxxxx Linker V03.00 + NoICE + sdld,  page 55.
Hexadecimal  [32-Bits]

Area                                    Addr        Size        Decimal Bytes (Attributes)
--------------------------------        ----        ----        ------- ----- ------------
CODE                                000082B4    0000592D =       22829. bytes (REL,CON)

      Value  Global                              Global Defined In Module
      -----  --------------------------------   ------------------------
     00008D58  A$stm8s_uart2TM8S_StdPeriph_Lib/   stm8s_uart2
     00008D59  A$stm8s_uart2TM8S_StdPeriph_Lib/   stm8s_uart2
     00008D5B  A$stm8s_uart2TM8S_StdPeriph_Lib/   stm8s_uart2
     00008D5B  C$stm8s_uart2.c$766$3_0$448        stm8s_uart2
     00008D5D  A$stm8s_uart2TM8S_StdPeriph_Lib/   stm8s_uart2
     00008D60  A$stm8s_uart2TM8S_StdPeriph_Lib/   stm8s_uart2
     00008D60  C$stm8s_uart2.c$771$3_0$449        stm8s_uart2
     00008D61  A$stm8s_uart2TM8S_StdPeriph_Lib/   stm8s_uart2
     00008D64  A$stm8s_uart2TM8S_StdPeriph_Lib/   stm8s_uart2
     00008D64  C$stm8s_uart2.c$774$1_0$446        stm8s_uart2
     00008D66  A$stm8s_uart2TM8S_StdPeriph_Lib/   stm8s_uart2
     00008D69  A$stm8s_uart2TM8S_StdPeriph_Lib/   stm8s_uart2
     00008D6B  A$stm8s_uart2TM8S_StdPeriph_Lib/   stm8s_uart2
     00008D6B  C$stm8s_uart2.c$777$2_0$450        stm8s_uart2
     00008D6E  A$stm8s_uart2TM8S_StdPeriph_Lib/   stm8s_uart2
     00008D70  A$stm8s_uart2TM8S_StdPeriph_Lib/   stm8s_uart2
     00008D71  A$stm8s_uart2TM8S_StdPeriph_Lib/   stm8s_uart2
     00008D71  C$stm8s_uart2.c$779$2_0$450        stm8s_uart2
     00008D74  A$stm8s_uart2TM8S_StdPeriph_Lib/   stm8s_uart2
     00008D76  A$stm8s_uart2TM8S_StdPeriph_Lib/   stm8s_uart2
     00008D78  A$stm8s_uart2TM8S_StdPeriph_Lib/   stm8s_uart2
     00008D79  A$stm8s_uart2TM8S_StdPeriph_Lib/   stm8s_uart2
     00008D7A  A$stm8s_uart2TM8S_StdPeriph_Lib/   stm8s_uart2
     00008D7C  A$stm8s_uart2TM8S_StdPeriph_Lib/   stm8s_uart2
     00008D7C  C$stm8s_uart2.c$782$3_0$451        stm8s_uart2
     00008D7E  A$stm8s_uart2TM8S_StdPeriph_Lib/   stm8s_uart2
     00008D80  A$stm8s_uart2TM8S_StdPeriph_Lib/   stm8s_uart2
     00008D80  C$stm8s_uart2.c$787$3_0$452        stm8s_uart2
     00008D81  A$stm8s_uart2TM8S_StdPeriph_Lib/   stm8s_uart2
     00008D83  A$stm8s_uart2TM8S_StdPeriph_Lib/   stm8s_uart2
     00008D83  C$stm8s_uart2.c$790$1_0$446        stm8s_uart2
     00008D85  A$stm8s_uart2TM8S_StdPeriph_Lib/   stm8s_uart2
     00008D88  A$stm8s_uart2TM8S_StdPeriph_Lib/   stm8s_uart2
     00008D8A  A$stm8s_uart2TM8S_StdPeriph_Lib/   stm8s_uart2
     00008D8A  C$stm8s_uart2.c$793$2_0$453        stm8s_uart2
     00008D8D  A$stm8s_uart2TM8S_StdPeriph_Lib/   stm8s_uart2
     00008D8F  A$stm8s_uart2TM8S_StdPeriph_Lib/   stm8s_uart2
     00008D90  A$stm8s_uart2TM8S_StdPeriph_Lib/   stm8s_uart2
     00008D90  C$stm8s_uart2.c$795$2_0$453        stm8s_uart2
     00008D93  A$stm8s_uart2TM8S_StdPeriph_Lib/   stm8s_uart2
     00008D95  A$stm8s_uart2TM8S_StdPeriph_Lib/   stm8s_uart2
     00008D97  A$stm8s_uart2TM8S_StdPeriph_Lib/   stm8s_uart2
     00008D98  A$stm8s_uart2TM8S_StdPeriph_Lib/   stm8s_uart2
     00008D99  A$stm8s_uart2TM8S_StdPeriph_Lib/   stm8s_uart2
     00008D9B  A$stm8s_uart2TM8S_StdPeriph_Lib/   stm8s_uart2
     00008D9B  C$stm8s_uart2.c$798$3_0$454        stm8s_uart2
     00008D9D  A$stm8s_uart2TM8S_StdPeriph_Lib/   stm8s_uart2
     00008D9F  A$stm8s_uart2TM8S_StdPeriph_Lib/   stm8s_uart2
     00008D9F  C$stm8s_uart2.c$803$3_0$455        stm8s_uart2
     00008DA0  A$stm8s_uart2TM8S_StdPeriph_Lib/   stm8s_uart2
     00008DA2  A$stm8s_uart2TM8S_StdPeriph_Lib/   stm8s_uart2
ASxxxx Linker V03.00 + NoICE + sdld,  page 56.
Hexadecimal  [32-Bits]

Area                                    Addr        Size        Decimal Bytes (Attributes)
--------------------------------        ----        ----        ------- ----- ------------
CODE                                000082B4    0000592D =       22829. bytes (REL,CON)

      Value  Global                              Global Defined In Module
      -----  --------------------------------   ------------------------
     00008DA2  C$stm8s_uart2.c$809$2_0$456        stm8s_uart2
     00008DA5  A$stm8s_uart2TM8S_StdPeriph_Lib/   stm8s_uart2
     00008DA7  A$stm8s_uart2TM8S_StdPeriph_Lib/   stm8s_uart2
     00008DA8  A$stm8s_uart2TM8S_StdPeriph_Lib/   stm8s_uart2
     00008DA8  C$stm8s_uart2.c$811$2_0$456        stm8s_uart2
     00008DAB  A$stm8s_uart2TM8S_StdPeriph_Lib/   stm8s_uart2
     00008DAD  A$stm8s_uart2TM8S_StdPeriph_Lib/   stm8s_uart2
     00008DAF  A$stm8s_uart2TM8S_StdPeriph_Lib/   stm8s_uart2
     00008DB0  A$stm8s_uart2TM8S_StdPeriph_Lib/   stm8s_uart2
     00008DB1  A$stm8s_uart2TM8S_StdPeriph_Lib/   stm8s_uart2
     00008DB3  A$stm8s_uart2TM8S_StdPeriph_Lib/   stm8s_uart2
     00008DB3  C$stm8s_uart2.c$814$3_0$457        stm8s_uart2
     00008DB5  A$stm8s_uart2TM8S_StdPeriph_Lib/   stm8s_uart2
     00008DB7  A$stm8s_uart2TM8S_StdPeriph_Lib/   stm8s_uart2
     00008DB7  C$stm8s_uart2.c$819$3_0$458        stm8s_uart2
     00008DB8  A$stm8s_uart2TM8S_StdPeriph_Lib/   stm8s_uart2
     00008DB8  C$stm8s_uart2.c$823$1_0$446        stm8s_uart2
     00008DBA  A$stm8s_uart2TM8S_StdPeriph_Lib/   stm8s_uart2
     00008DBA  C$stm8s_uart2.c$824$1_0$446        stm8s_uart2
     00008DBA  XG$UART2_GetITStatus$0$0           stm8s_uart2
     00008DBB  A$stm8s_uart2TM8S_StdPeriph_Lib/   stm8s_uart2
     00008DBB  C$stm8s_uart2.c$852$1_0$460        stm8s_uart2
     00008DBB  C$stm8s_uart2.c$857$1_0$460        stm8s_uart2
     00008DBB  G$UART2_ClearITPendingBit$0$0      stm8s_uart2
     00008DBB  _UART2_ClearITPendingBit           stm8s_uart2
     00008DBD  A$stm8s_uart2TM8S_StdPeriph_Lib/   stm8s_uart2
     00008DC0  A$stm8s_uart2TM8S_StdPeriph_Lib/   stm8s_uart2
     00008DC2  A$stm8s_uart2TM8S_StdPeriph_Lib/   stm8s_uart2
     00008DC2  C$stm8s_uart2.c$859$2_0$461        stm8s_uart2
     00008DC6  A$stm8s_uart2TM8S_StdPeriph_Lib/   stm8s_uart2
     00008DC8  A$stm8s_uart2TM8S_StdPeriph_Lib/   stm8s_uart2
     00008DC8  C$stm8s_uart2.c$862$1_0$460        stm8s_uart2
     00008DCA  A$stm8s_uart2TM8S_StdPeriph_Lib/   stm8s_uart2
     00008DCD  A$stm8s_uart2TM8S_StdPeriph_Lib/   stm8s_uart2
     00008DCF  A$stm8s_uart2TM8S_StdPeriph_Lib/   stm8s_uart2
     00008DCF  C$stm8s_uart2.c$864$2_0$462        stm8s_uart2
     00008DD3  A$stm8s_uart2TM8S_StdPeriph_Lib/   stm8s_uart2
     00008DD5  A$stm8s_uart2TM8S_StdPeriph_Lib/   stm8s_uart2
     00008DD5  C$stm8s_uart2.c$869$2_0$463        stm8s_uart2
     00008DD9  A$stm8s_uart2TM8S_StdPeriph_Lib/   stm8s_uart2
     00008DD9  C$stm8s_uart2.c$871$1_0$460        stm8s_uart2
     00008DD9  XG$UART2_ClearITPendingBit$0$0     stm8s_uart2
     00008DDA  A$stm8s_tim1STM8S_StdPeriph_Lib/   stm8s_tim1
     00008DDA  C$stm8s_tim1.c$58$0_0$350          stm8s_tim1
     00008DDA  C$stm8s_tim1.c$60$1_0$350          stm8s_tim1
     00008DDA  G$TIM1_DeInit$0$0                  stm8s_tim1
     00008DDA  _TIM1_DeInit                       stm8s_tim1
     00008DDE  A$stm8s_tim1STM8S_StdPeriph_Lib/   stm8s_tim1
     00008DDE  C$stm8s_tim1.c$61$1_0$350          stm8s_tim1
     00008DE2  A$stm8s_tim1STM8S_StdPeriph_Lib/   stm8s_tim1
     00008DE2  C$stm8s_tim1.c$62$1_0$350          stm8s_tim1
ASxxxx Linker V03.00 + NoICE + sdld,  page 57.
Hexadecimal  [32-Bits]

Area                                    Addr        Size        Decimal Bytes (Attributes)
--------------------------------        ----        ----        ------- ----- ------------
CODE                                000082B4    0000592D =       22829. bytes (REL,CON)

      Value  Global                              Global Defined In Module
      -----  --------------------------------   ------------------------
     00008DE6  A$stm8s_tim1STM8S_StdPeriph_Lib/   stm8s_tim1
     00008DE6  C$stm8s_tim1.c$63$1_0$350          stm8s_tim1
     00008DEA  A$stm8s_tim1STM8S_StdPeriph_Lib/   stm8s_tim1
     00008DEA  C$stm8s_tim1.c$64$1_0$350          stm8s_tim1
     00008DEE  A$stm8s_tim1STM8S_StdPeriph_Lib/   stm8s_tim1
     00008DEE  C$stm8s_tim1.c$65$1_0$350          stm8s_tim1
     00008DF2  A$stm8s_tim1STM8S_StdPeriph_Lib/   stm8s_tim1
     00008DF2  C$stm8s_tim1.c$67$1_0$350          stm8s_tim1
     00008DF6  A$stm8s_tim1STM8S_StdPeriph_Lib/   stm8s_tim1
     00008DF6  C$stm8s_tim1.c$68$1_0$350          stm8s_tim1
     00008DFA  A$stm8s_tim1STM8S_StdPeriph_Lib/   stm8s_tim1
     00008DFA  C$stm8s_tim1.c$70$1_0$350          stm8s_tim1
     00008DFE  A$stm8s_tim1STM8S_StdPeriph_Lib/   stm8s_tim1
     00008DFE  C$stm8s_tim1.c$71$1_0$350          stm8s_tim1
     00008E02  A$stm8s_tim1STM8S_StdPeriph_Lib/   stm8s_tim1
     00008E02  C$stm8s_tim1.c$72$1_0$350          stm8s_tim1
     00008E06  A$stm8s_tim1STM8S_StdPeriph_Lib/   stm8s_tim1
     00008E06  C$stm8s_tim1.c$73$1_0$350          stm8s_tim1
     00008E0A  A$stm8s_tim1STM8S_StdPeriph_Lib/   stm8s_tim1
     00008E0A  C$stm8s_tim1.c$75$1_0$350          stm8s_tim1
     00008E0E  A$stm8s_tim1STM8S_StdPeriph_Lib/   stm8s_tim1
     00008E0E  C$stm8s_tim1.c$76$1_0$350          stm8s_tim1
     00008E12  A$stm8s_tim1STM8S_StdPeriph_Lib/   stm8s_tim1
     00008E12  C$stm8s_tim1.c$77$1_0$350          stm8s_tim1
     00008E16  A$stm8s_tim1STM8S_StdPeriph_Lib/   stm8s_tim1
     00008E16  C$stm8s_tim1.c$78$1_0$350          stm8s_tim1
     00008E1A  A$stm8s_tim1STM8S_StdPeriph_Lib/   stm8s_tim1
     00008E1A  C$stm8s_tim1.c$79$1_0$350          stm8s_tim1
     00008E1E  A$stm8s_tim1STM8S_StdPeriph_Lib/   stm8s_tim1
     00008E1E  C$stm8s_tim1.c$80$1_0$350          stm8s_tim1
     00008E22  A$stm8s_tim1STM8S_StdPeriph_Lib/   stm8s_tim1
     00008E22  C$stm8s_tim1.c$81$1_0$350          stm8s_tim1
     00008E26  A$stm8s_tim1STM8S_StdPeriph_Lib/   stm8s_tim1
     00008E26  C$stm8s_tim1.c$82$1_0$350          stm8s_tim1
     00008E2A  A$stm8s_tim1STM8S_StdPeriph_Lib/   stm8s_tim1
     00008E2A  C$stm8s_tim1.c$83$1_0$350          stm8s_tim1
     00008E2E  A$stm8s_tim1STM8S_StdPeriph_Lib/   stm8s_tim1
     00008E2E  C$stm8s_tim1.c$84$1_0$350          stm8s_tim1
     00008E32  A$stm8s_tim1STM8S_StdPeriph_Lib/   stm8s_tim1
     00008E32  C$stm8s_tim1.c$85$1_0$350          stm8s_tim1
     00008E36  A$stm8s_tim1STM8S_StdPeriph_Lib/   stm8s_tim1
     00008E36  C$stm8s_tim1.c$86$1_0$350          stm8s_tim1
     00008E3A  A$stm8s_tim1STM8S_StdPeriph_Lib/   stm8s_tim1
     00008E3A  C$stm8s_tim1.c$87$1_0$350          stm8s_tim1
     00008E3E  A$stm8s_tim1STM8S_StdPeriph_Lib/   stm8s_tim1
     00008E3E  C$stm8s_tim1.c$88$1_0$350          stm8s_tim1
     00008E42  A$stm8s_tim1STM8S_StdPeriph_Lib/   stm8s_tim1
     00008E42  C$stm8s_tim1.c$89$1_0$350          stm8s_tim1
     00008E46  A$stm8s_tim1STM8S_StdPeriph_Lib/   stm8s_tim1
     00008E46  C$stm8s_tim1.c$90$1_0$350          stm8s_tim1
     00008E4A  A$stm8s_tim1STM8S_StdPeriph_Lib/   stm8s_tim1
ASxxxx Linker V03.00 + NoICE + sdld,  page 58.
Hexadecimal  [32-Bits]

Area                                    Addr        Size        Decimal Bytes (Attributes)
--------------------------------        ----        ----        ------- ----- ------------
CODE                                000082B4    0000592D =       22829. bytes (REL,CON)

      Value  Global                              Global Defined In Module
      -----  --------------------------------   ------------------------
     00008E4A  C$stm8s_tim1.c$91$1_0$350          stm8s_tim1
     00008E4E  A$stm8s_tim1STM8S_StdPeriph_Lib/   stm8s_tim1
     00008E4E  C$stm8s_tim1.c$92$1_0$350          stm8s_tim1
     00008E52  A$stm8s_tim1STM8S_StdPeriph_Lib/   stm8s_tim1
     00008E52  C$stm8s_tim1.c$93$1_0$350          stm8s_tim1
     00008E56  A$stm8s_tim1STM8S_StdPeriph_Lib/   stm8s_tim1
     00008E56  C$stm8s_tim1.c$94$1_0$350          stm8s_tim1
     00008E5A  A$stm8s_tim1STM8S_StdPeriph_Lib/   stm8s_tim1
     00008E5A  C$stm8s_tim1.c$95$1_0$350          stm8s_tim1
     00008E5E  A$stm8s_tim1STM8S_StdPeriph_Lib/   stm8s_tim1
     00008E5E  C$stm8s_tim1.c$96$1_0$350          stm8s_tim1
     00008E62  A$stm8s_tim1STM8S_StdPeriph_Lib/   stm8s_tim1
     00008E62  C$stm8s_tim1.c$97$1_0$350          stm8s_tim1
     00008E66  A$stm8s_tim1STM8S_StdPeriph_Lib/   stm8s_tim1
     00008E66  C$stm8s_tim1.c$98$1_0$350          stm8s_tim1
     00008E6A  A$stm8s_tim1STM8S_StdPeriph_Lib/   stm8s_tim1
     00008E6A  C$stm8s_tim1.c$99$1_0$350          stm8s_tim1
     00008E6E  A$stm8s_tim1STM8S_StdPeriph_Lib/   stm8s_tim1
     00008E6E  C$stm8s_tim1.c$100$1_0$350         stm8s_tim1
     00008E72  A$stm8s_tim1STM8S_StdPeriph_Lib/   stm8s_tim1
     00008E72  C$stm8s_tim1.c$101$1_0$350         stm8s_tim1
     00008E72  XG$TIM1_DeInit$0$0                 stm8s_tim1
     00008E73  A$stm8s_tim1STM8S_StdPeriph_Lib/   stm8s_tim1
     00008E73  C$stm8s_tim1.c$111$1_0$352         stm8s_tim1
     00008E73  G$TIM1_TimeBaseInit$0$0            stm8s_tim1
     00008E73  _TIM1_TimeBaseInit                 stm8s_tim1
     00008E75  A$stm8s_tim1STM8S_StdPeriph_Lib/   stm8s_tim1
     00008E75  C$stm8s_tim1.c$120$1_0$352         stm8s_tim1
     00008E77  A$stm8s_tim1STM8S_StdPeriph_Lib/   stm8s_tim1
     00008E79  A$stm8s_tim1STM8S_StdPeriph_Lib/   stm8s_tim1
     00008E7B  A$stm8s_tim1STM8S_StdPeriph_Lib/   stm8s_tim1
     00008E7D  A$stm8s_tim1STM8S_StdPeriph_Lib/   stm8s_tim1
     00008E80  A$stm8s_tim1STM8S_StdPeriph_Lib/   stm8s_tim1
     00008E80  C$stm8s_tim1.c$121$1_0$352         stm8s_tim1
     00008E82  A$stm8s_tim1STM8S_StdPeriph_Lib/   stm8s_tim1
     00008E85  A$stm8s_tim1STM8S_StdPeriph_Lib/   stm8s_tim1
     00008E85  C$stm8s_tim1.c$124$1_0$352         stm8s_tim1
     00008E87  A$stm8s_tim1STM8S_StdPeriph_Lib/   stm8s_tim1
     00008E89  A$stm8s_tim1STM8S_StdPeriph_Lib/   stm8s_tim1
     00008E8B  A$stm8s_tim1STM8S_StdPeriph_Lib/   stm8s_tim1
     00008E8D  A$stm8s_tim1STM8S_StdPeriph_Lib/   stm8s_tim1
     00008E90  A$stm8s_tim1STM8S_StdPeriph_Lib/   stm8s_tim1
     00008E90  C$stm8s_tim1.c$125$1_0$352         stm8s_tim1
     00008E92  A$stm8s_tim1STM8S_StdPeriph_Lib/   stm8s_tim1
     00008E95  A$stm8s_tim1STM8S_StdPeriph_Lib/   stm8s_tim1
     00008E95  C$stm8s_tim1.c$128$1_0$352         stm8s_tim1
     00008E98  A$stm8s_tim1STM8S_StdPeriph_Lib/   stm8s_tim1
     00008E9A  A$stm8s_tim1STM8S_StdPeriph_Lib/   stm8s_tim1
     00008E9A  C$stm8s_tim1.c$129$1_0$352         stm8s_tim1
     00008E9C  A$stm8s_tim1STM8S_StdPeriph_Lib/   stm8s_tim1
     00008E9F  A$stm8s_tim1STM8S_StdPeriph_Lib/   stm8s_tim1
ASxxxx Linker V03.00 + NoICE + sdld,  page 59.
Hexadecimal  [32-Bits]

Area                                    Addr        Size        Decimal Bytes (Attributes)
--------------------------------        ----        ----        ------- ----- ------------
CODE                                000082B4    0000592D =       22829. bytes (REL,CON)

      Value  Global                              Global Defined In Module
      -----  --------------------------------   ------------------------
     00008E9F  C$stm8s_tim1.c$132$1_0$352         stm8s_tim1
     00008EA2  A$stm8s_tim1STM8S_StdPeriph_Lib/   stm8s_tim1
     00008EA4  A$stm8s_tim1STM8S_StdPeriph_Lib/   stm8s_tim1
     00008EA5  A$stm8s_tim1STM8S_StdPeriph_Lib/   stm8s_tim1
     00008EA7  A$stm8s_tim1STM8S_StdPeriph_Lib/   stm8s_tim1
     00008EA7  C$stm8s_tim1.c$133$1_0$352         stm8s_tim1
     00008EA7  XG$TIM1_TimeBaseInit$0$0           stm8s_tim1
     00008EA8  A$stm8s_tim1STM8S_StdPeriph_Lib/   stm8s_tim1
     00008EA8  C$stm8s_tim1.c$154$1_0$354         stm8s_tim1
     00008EA8  G$TIM1_OC1Init$0$0                 stm8s_tim1
     00008EA8  _TIM1_OC1Init                      stm8s_tim1
     00008EAA  A$stm8s_tim1STM8S_StdPeriph_Lib/   stm8s_tim1
     00008EAA  C$stm8s_tim1.c$174$1_0$354         stm8s_tim1
     00008EAD  A$stm8s_tim1STM8S_StdPeriph_Lib/   stm8s_tim1
     00008EAF  A$stm8s_tim1STM8S_StdPeriph_Lib/   stm8s_tim1
     00008EB2  A$stm8s_tim1STM8S_StdPeriph_Lib/   stm8s_tim1
     00008EB2  C$stm8s_tim1.c$178$1_0$354         stm8s_tim1
     00008EB5  A$stm8s_tim1STM8S_StdPeriph_Lib/   stm8s_tim1
     00008EB7  A$stm8s_tim1STM8S_StdPeriph_Lib/   stm8s_tim1
     00008EB9  A$stm8s_tim1STM8S_StdPeriph_Lib/   stm8s_tim1
     00008EBB  A$stm8s_tim1STM8S_StdPeriph_Lib/   stm8s_tim1
     00008EBD  A$stm8s_tim1STM8S_StdPeriph_Lib/   stm8s_tim1
     00008EBD  C$stm8s_tim1.c$179$1_0$354         stm8s_tim1
     00008EBF  A$stm8s_tim1STM8S_StdPeriph_Lib/   stm8s_tim1
     00008EC1  A$stm8s_tim1STM8S_StdPeriph_Lib/   stm8s_tim1
     00008EC3  A$stm8s_tim1STM8S_StdPeriph_Lib/   stm8s_tim1
     00008EC5  A$stm8s_tim1STM8S_StdPeriph_Lib/   stm8s_tim1
     00008EC5  C$stm8s_tim1.c$180$1_0$354         stm8s_tim1
     00008EC7  A$stm8s_tim1STM8S_StdPeriph_Lib/   stm8s_tim1
     00008EC9  A$stm8s_tim1STM8S_StdPeriph_Lib/   stm8s_tim1
     00008ECB  A$stm8s_tim1STM8S_StdPeriph_Lib/   stm8s_tim1
     00008ECB  C$stm8s_tim1.c$181$1_0$354         stm8s_tim1
     00008ECD  A$stm8s_tim1STM8S_StdPeriph_Lib/   stm8s_tim1
     00008ECF  A$stm8s_tim1STM8S_StdPeriph_Lib/   stm8s_tim1
     00008ED1  A$stm8s_tim1STM8S_StdPeriph_Lib/   stm8s_tim1
     00008ED3  A$stm8s_tim1STM8S_StdPeriph_Lib/   stm8s_tim1
     00008ED5  A$stm8s_tim1STM8S_StdPeriph_Lib/   stm8s_tim1
     00008ED8  A$stm8s_tim1STM8S_StdPeriph_Lib/   stm8s_tim1
     00008ED8  C$stm8s_tim1.c$184$1_0$354         stm8s_tim1
     00008EDB  A$stm8s_tim1STM8S_StdPeriph_Lib/   stm8s_tim1
     00008EDD  A$stm8s_tim1STM8S_StdPeriph_Lib/   stm8s_tim1
     00008EDD  C$stm8s_tim1.c$185$1_0$354         stm8s_tim1
     00008EDF  A$stm8s_tim1STM8S_StdPeriph_Lib/   stm8s_tim1
     00008EE2  A$stm8s_tim1STM8S_StdPeriph_Lib/   stm8s_tim1
     00008EE2  C$stm8s_tim1.c$188$1_0$354         stm8s_tim1
     00008EE5  A$stm8s_tim1STM8S_StdPeriph_Lib/   stm8s_tim1
     00008EE7  A$stm8s_tim1STM8S_StdPeriph_Lib/   stm8s_tim1
     00008EEA  A$stm8s_tim1STM8S_StdPeriph_Lib/   stm8s_tim1
     00008EEA  C$stm8s_tim1.c$190$1_0$354         stm8s_tim1
     00008EED  A$stm8s_tim1STM8S_StdPeriph_Lib/   stm8s_tim1
     00008EEF  A$stm8s_tim1STM8S_StdPeriph_Lib/   stm8s_tim1
ASxxxx Linker V03.00 + NoICE + sdld,  page 60.
Hexadecimal  [32-Bits]

Area                                    Addr        Size        Decimal Bytes (Attributes)
--------------------------------        ----        ----        ------- ----- ------------
CODE                                000082B4    0000592D =       22829. bytes (REL,CON)

      Value  Global                              Global Defined In Module
      -----  --------------------------------   ------------------------
     00008EF1  A$stm8s_tim1STM8S_StdPeriph_Lib/   stm8s_tim1
     00008EF3  A$stm8s_tim1STM8S_StdPeriph_Lib/   stm8s_tim1
     00008EF5  A$stm8s_tim1STM8S_StdPeriph_Lib/   stm8s_tim1
     00008EF5  C$stm8s_tim1.c$191$1_0$354         stm8s_tim1
     00008EF7  A$stm8s_tim1STM8S_StdPeriph_Lib/   stm8s_tim1
     00008EF9  A$stm8s_tim1STM8S_StdPeriph_Lib/   stm8s_tim1
     00008EFB  A$stm8s_tim1STM8S_StdPeriph_Lib/   stm8s_tim1
     00008EFD  A$stm8s_tim1STM8S_StdPeriph_Lib/   stm8s_tim1
     00008F00  A$stm8s_tim1STM8S_StdPeriph_Lib/   stm8s_tim1
     00008F00  C$stm8s_tim1.c$194$1_0$354         stm8s_tim1
     00008F02  A$stm8s_tim1STM8S_StdPeriph_Lib/   stm8s_tim1
     00008F05  A$stm8s_tim1STM8S_StdPeriph_Lib/   stm8s_tim1
     00008F05  C$stm8s_tim1.c$195$1_0$354         stm8s_tim1
     00008F07  A$stm8s_tim1STM8S_StdPeriph_Lib/   stm8s_tim1
     00008F0A  A$stm8s_tim1STM8S_StdPeriph_Lib/   stm8s_tim1
     00008F0C  A$stm8s_tim1STM8S_StdPeriph_Lib/   stm8s_tim1
     00008F0C  C$stm8s_tim1.c$196$1_0$354         stm8s_tim1
     00008F0C  XG$TIM1_OC1Init$0$0                stm8s_tim1
     00008F0D  A$stm8s_tim1STM8S_StdPeriph_Lib/   stm8s_tim1
     00008F0D  C$stm8s_tim1.c$217$1_0$356         stm8s_tim1
     00008F0D  G$TIM1_OC2Init$0$0                 stm8s_tim1
     00008F0D  _TIM1_OC2Init                      stm8s_tim1
     00008F0F  A$stm8s_tim1STM8S_StdPeriph_Lib/   stm8s_tim1
     00008F0F  C$stm8s_tim1.c$237$1_0$356         stm8s_tim1
     00008F12  A$stm8s_tim1STM8S_StdPeriph_Lib/   stm8s_tim1
     00008F14  A$stm8s_tim1STM8S_StdPeriph_Lib/   stm8s_tim1
     00008F17  A$stm8s_tim1STM8S_StdPeriph_Lib/   stm8s_tim1
     00008F17  C$stm8s_tim1.c$242$1_0$356         stm8s_tim1
     00008F1A  A$stm8s_tim1STM8S_StdPeriph_Lib/   stm8s_tim1
     00008F1C  A$stm8s_tim1STM8S_StdPeriph_Lib/   stm8s_tim1
     00008F1E  A$stm8s_tim1STM8S_StdPeriph_Lib/   stm8s_tim1
     00008F20  A$stm8s_tim1STM8S_StdPeriph_Lib/   stm8s_tim1
     00008F22  A$stm8s_tim1STM8S_StdPeriph_Lib/   stm8s_tim1
     00008F22  C$stm8s_tim1.c$243$1_0$356         stm8s_tim1
     00008F24  A$stm8s_tim1STM8S_StdPeriph_Lib/   stm8s_tim1
     00008F26  A$stm8s_tim1STM8S_StdPeriph_Lib/   stm8s_tim1
     00008F28  A$stm8s_tim1STM8S_StdPeriph_Lib/   stm8s_tim1
     00008F2A  A$stm8s_tim1STM8S_StdPeriph_Lib/   stm8s_tim1
     00008F2A  C$stm8s_tim1.c$244$1_0$356         stm8s_tim1
     00008F2C  A$stm8s_tim1STM8S_StdPeriph_Lib/   stm8s_tim1
     00008F2E  A$stm8s_tim1STM8S_StdPeriph_Lib/   stm8s_tim1
     00008F30  A$stm8s_tim1STM8S_StdPeriph_Lib/   stm8s_tim1
     00008F30  C$stm8s_tim1.c$245$1_0$356         stm8s_tim1
     00008F32  A$stm8s_tim1STM8S_StdPeriph_Lib/   stm8s_tim1
     00008F34  A$stm8s_tim1STM8S_StdPeriph_Lib/   stm8s_tim1
     00008F36  A$stm8s_tim1STM8S_StdPeriph_Lib/   stm8s_tim1
     00008F38  A$stm8s_tim1STM8S_StdPeriph_Lib/   stm8s_tim1
     00008F3A  A$stm8s_tim1STM8S_StdPeriph_Lib/   stm8s_tim1
     00008F3D  A$stm8s_tim1STM8S_StdPeriph_Lib/   stm8s_tim1
     00008F3D  C$stm8s_tim1.c$248$1_0$356         stm8s_tim1
     00008F40  A$stm8s_tim1STM8S_StdPeriph_Lib/   stm8s_tim1
ASxxxx Linker V03.00 + NoICE + sdld,  page 61.
Hexadecimal  [32-Bits]

Area                                    Addr        Size        Decimal Bytes (Attributes)
--------------------------------        ----        ----        ------- ----- ------------
CODE                                000082B4    0000592D =       22829. bytes (REL,CON)

      Value  Global                              Global Defined In Module
      -----  --------------------------------   ------------------------
     00008F42  A$stm8s_tim1STM8S_StdPeriph_Lib/   stm8s_tim1
     00008F42  C$stm8s_tim1.c$249$1_0$356         stm8s_tim1
     00008F44  A$stm8s_tim1STM8S_StdPeriph_Lib/   stm8s_tim1
     00008F47  A$stm8s_tim1STM8S_StdPeriph_Lib/   stm8s_tim1
     00008F47  C$stm8s_tim1.c$252$1_0$356         stm8s_tim1
     00008F4A  A$stm8s_tim1STM8S_StdPeriph_Lib/   stm8s_tim1
     00008F4C  A$stm8s_tim1STM8S_StdPeriph_Lib/   stm8s_tim1
     00008F4F  A$stm8s_tim1STM8S_StdPeriph_Lib/   stm8s_tim1
     00008F4F  C$stm8s_tim1.c$254$1_0$356         stm8s_tim1
     00008F52  A$stm8s_tim1STM8S_StdPeriph_Lib/   stm8s_tim1
     00008F54  A$stm8s_tim1STM8S_StdPeriph_Lib/   stm8s_tim1
     00008F56  A$stm8s_tim1STM8S_StdPeriph_Lib/   stm8s_tim1
     00008F58  A$stm8s_tim1STM8S_StdPeriph_Lib/   stm8s_tim1
     00008F5A  A$stm8s_tim1STM8S_StdPeriph_Lib/   stm8s_tim1
     00008F5A  C$stm8s_tim1.c$255$1_0$356         stm8s_tim1
     00008F5C  A$stm8s_tim1STM8S_StdPeriph_Lib/   stm8s_tim1
     00008F5E  A$stm8s_tim1STM8S_StdPeriph_Lib/   stm8s_tim1
     00008F60  A$stm8s_tim1STM8S_StdPeriph_Lib/   stm8s_tim1
     00008F62  A$stm8s_tim1STM8S_StdPeriph_Lib/   stm8s_tim1
     00008F65  A$stm8s_tim1STM8S_StdPeriph_Lib/   stm8s_tim1
     00008F65  C$stm8s_tim1.c$258$1_0$356         stm8s_tim1
     00008F67  A$stm8s_tim1STM8S_StdPeriph_Lib/   stm8s_tim1
     00008F6A  A$stm8s_tim1STM8S_StdPeriph_Lib/   stm8s_tim1
     00008F6A  C$stm8s_tim1.c$259$1_0$356         stm8s_tim1
     00008F6C  A$stm8s_tim1STM8S_StdPeriph_Lib/   stm8s_tim1
     00008F6F  A$stm8s_tim1STM8S_StdPeriph_Lib/   stm8s_tim1
     00008F71  A$stm8s_tim1STM8S_StdPeriph_Lib/   stm8s_tim1
     00008F71  C$stm8s_tim1.c$260$1_0$356         stm8s_tim1
     00008F71  XG$TIM1_OC2Init$0$0                stm8s_tim1
     00008F72  A$stm8s_tim1STM8S_StdPeriph_Lib/   stm8s_tim1
     00008F72  C$stm8s_tim1.c$281$1_0$358         stm8s_tim1
     00008F72  G$TIM1_OC3Init$0$0                 stm8s_tim1
     00008F72  _TIM1_OC3Init                      stm8s_tim1
     00008F74  A$stm8s_tim1STM8S_StdPeriph_Lib/   stm8s_tim1
     00008F74  C$stm8s_tim1.c$301$1_0$358         stm8s_tim1
     00008F77  A$stm8s_tim1STM8S_StdPeriph_Lib/   stm8s_tim1
     00008F79  A$stm8s_tim1STM8S_StdPeriph_Lib/   stm8s_tim1
     00008F7C  A$stm8s_tim1STM8S_StdPeriph_Lib/   stm8s_tim1
     00008F7C  C$stm8s_tim1.c$305$1_0$358         stm8s_tim1
     00008F7F  A$stm8s_tim1STM8S_StdPeriph_Lib/   stm8s_tim1
     00008F81  A$stm8s_tim1STM8S_StdPeriph_Lib/   stm8s_tim1
     00008F83  A$stm8s_tim1STM8S_StdPeriph_Lib/   stm8s_tim1
     00008F85  A$stm8s_tim1STM8S_StdPeriph_Lib/   stm8s_tim1
     00008F87  A$stm8s_tim1STM8S_StdPeriph_Lib/   stm8s_tim1
     00008F87  C$stm8s_tim1.c$306$1_0$358         stm8s_tim1
     00008F89  A$stm8s_tim1STM8S_StdPeriph_Lib/   stm8s_tim1
     00008F8B  A$stm8s_tim1STM8S_StdPeriph_Lib/   stm8s_tim1
     00008F8D  A$stm8s_tim1STM8S_StdPeriph_Lib/   stm8s_tim1
     00008F8F  A$stm8s_tim1STM8S_StdPeriph_Lib/   stm8s_tim1
     00008F8F  C$stm8s_tim1.c$307$1_0$358         stm8s_tim1
     00008F91  A$stm8s_tim1STM8S_StdPeriph_Lib/   stm8s_tim1
ASxxxx Linker V03.00 + NoICE + sdld,  page 62.
Hexadecimal  [32-Bits]

Area                                    Addr        Size        Decimal Bytes (Attributes)
--------------------------------        ----        ----        ------- ----- ------------
CODE                                000082B4    0000592D =       22829. bytes (REL,CON)

      Value  Global                              Global Defined In Module
      -----  --------------------------------   ------------------------
     00008F93  A$stm8s_tim1STM8S_StdPeriph_Lib/   stm8s_tim1
     00008F95  A$stm8s_tim1STM8S_StdPeriph_Lib/   stm8s_tim1
     00008F95  C$stm8s_tim1.c$308$1_0$358         stm8s_tim1
     00008F97  A$stm8s_tim1STM8S_StdPeriph_Lib/   stm8s_tim1
     00008F99  A$stm8s_tim1STM8S_StdPeriph_Lib/   stm8s_tim1
     00008F9B  A$stm8s_tim1STM8S_StdPeriph_Lib/   stm8s_tim1
     00008F9D  A$stm8s_tim1STM8S_StdPeriph_Lib/   stm8s_tim1
     00008F9F  A$stm8s_tim1STM8S_StdPeriph_Lib/   stm8s_tim1
     00008FA2  A$stm8s_tim1STM8S_StdPeriph_Lib/   stm8s_tim1
     00008FA2  C$stm8s_tim1.c$311$1_0$358         stm8s_tim1
     00008FA5  A$stm8s_tim1STM8S_StdPeriph_Lib/   stm8s_tim1
     00008FA7  A$stm8s_tim1STM8S_StdPeriph_Lib/   stm8s_tim1
     00008FA7  C$stm8s_tim1.c$312$1_0$358         stm8s_tim1
     00008FA9  A$stm8s_tim1STM8S_StdPeriph_Lib/   stm8s_tim1
     00008FAC  A$stm8s_tim1STM8S_StdPeriph_Lib/   stm8s_tim1
     00008FAC  C$stm8s_tim1.c$315$1_0$358         stm8s_tim1
     00008FAF  A$stm8s_tim1STM8S_StdPeriph_Lib/   stm8s_tim1
     00008FB1  A$stm8s_tim1STM8S_StdPeriph_Lib/   stm8s_tim1
     00008FB4  A$stm8s_tim1STM8S_StdPeriph_Lib/   stm8s_tim1
     00008FB4  C$stm8s_tim1.c$317$1_0$358         stm8s_tim1
     00008FB7  A$stm8s_tim1STM8S_StdPeriph_Lib/   stm8s_tim1
     00008FB9  A$stm8s_tim1STM8S_StdPeriph_Lib/   stm8s_tim1
     00008FBB  A$stm8s_tim1STM8S_StdPeriph_Lib/   stm8s_tim1
     00008FBD  A$stm8s_tim1STM8S_StdPeriph_Lib/   stm8s_tim1
     00008FBF  A$stm8s_tim1STM8S_StdPeriph_Lib/   stm8s_tim1
     00008FBF  C$stm8s_tim1.c$318$1_0$358         stm8s_tim1
     00008FC1  A$stm8s_tim1STM8S_StdPeriph_Lib/   stm8s_tim1
     00008FC3  A$stm8s_tim1STM8S_StdPeriph_Lib/   stm8s_tim1
     00008FC5  A$stm8s_tim1STM8S_StdPeriph_Lib/   stm8s_tim1
     00008FC7  A$stm8s_tim1STM8S_StdPeriph_Lib/   stm8s_tim1
     00008FCA  A$stm8s_tim1STM8S_StdPeriph_Lib/   stm8s_tim1
     00008FCA  C$stm8s_tim1.c$321$1_0$358         stm8s_tim1
     00008FCC  A$stm8s_tim1STM8S_StdPeriph_Lib/   stm8s_tim1
     00008FCF  A$stm8s_tim1STM8S_StdPeriph_Lib/   stm8s_tim1
     00008FCF  C$stm8s_tim1.c$322$1_0$358         stm8s_tim1
     00008FD1  A$stm8s_tim1STM8S_StdPeriph_Lib/   stm8s_tim1
     00008FD4  A$stm8s_tim1STM8S_StdPeriph_Lib/   stm8s_tim1
     00008FD6  A$stm8s_tim1STM8S_StdPeriph_Lib/   stm8s_tim1
     00008FD6  C$stm8s_tim1.c$323$1_0$358         stm8s_tim1
     00008FD6  XG$TIM1_OC3Init$0$0                stm8s_tim1
     00008FD7  A$stm8s_tim1STM8S_StdPeriph_Lib/   stm8s_tim1
     00008FD7  C$stm8s_tim1.c$338$1_0$360         stm8s_tim1
     00008FD7  G$TIM1_OC4Init$0$0                 stm8s_tim1
     00008FD7  _TIM1_OC4Init                      stm8s_tim1
     00008FD9  A$stm8s_tim1STM8S_StdPeriph_Lib/   stm8s_tim1
     00008FD9  C$stm8s_tim1.c$351$1_0$360         stm8s_tim1
     00008FDC  A$stm8s_tim1STM8S_StdPeriph_Lib/   stm8s_tim1
     00008FDE  A$stm8s_tim1STM8S_StdPeriph_Lib/   stm8s_tim1
     00008FE1  A$stm8s_tim1STM8S_StdPeriph_Lib/   stm8s_tim1
     00008FE1  C$stm8s_tim1.c$353$1_0$360         stm8s_tim1
     00008FE4  A$stm8s_tim1STM8S_StdPeriph_Lib/   stm8s_tim1
ASxxxx Linker V03.00 + NoICE + sdld,  page 63.
Hexadecimal  [32-Bits]

Area                                    Addr        Size        Decimal Bytes (Attributes)
--------------------------------        ----        ----        ------- ----- ------------
CODE                                000082B4    0000592D =       22829. bytes (REL,CON)

      Value  Global                              Global Defined In Module
      -----  --------------------------------   ------------------------
     00008FE6  A$stm8s_tim1STM8S_StdPeriph_Lib/   stm8s_tim1
     00008FE8  A$stm8s_tim1STM8S_StdPeriph_Lib/   stm8s_tim1
     00008FEA  A$stm8s_tim1STM8S_StdPeriph_Lib/   stm8s_tim1
     00008FEC  A$stm8s_tim1STM8S_StdPeriph_Lib/   stm8s_tim1
     00008FEC  C$stm8s_tim1.c$354$1_0$360         stm8s_tim1
     00008FEE  A$stm8s_tim1STM8S_StdPeriph_Lib/   stm8s_tim1
     00008FF0  A$stm8s_tim1STM8S_StdPeriph_Lib/   stm8s_tim1
     00008FF2  A$stm8s_tim1STM8S_StdPeriph_Lib/   stm8s_tim1
     00008FF4  A$stm8s_tim1STM8S_StdPeriph_Lib/   stm8s_tim1
     00008FF7  A$stm8s_tim1STM8S_StdPeriph_Lib/   stm8s_tim1
     00008FF7  C$stm8s_tim1.c$357$1_0$360         stm8s_tim1
     00008FFA  A$stm8s_tim1STM8S_StdPeriph_Lib/   stm8s_tim1
     00008FFC  A$stm8s_tim1STM8S_StdPeriph_Lib/   stm8s_tim1
     00008FFE  A$stm8s_tim1STM8S_StdPeriph_Lib/   stm8s_tim1
     00009001  A$stm8s_tim1STM8S_StdPeriph_Lib/   stm8s_tim1
     00009001  C$stm8s_tim1.c$361$1_0$360         stm8s_tim1
     00009003  A$stm8s_tim1STM8S_StdPeriph_Lib/   stm8s_tim1
     00009005  A$stm8s_tim1STM8S_StdPeriph_Lib/   stm8s_tim1
     00009005  C$stm8s_tim1.c$363$2_0$361         stm8s_tim1
     00009008  A$stm8s_tim1STM8S_StdPeriph_Lib/   stm8s_tim1
     0000900A  A$stm8s_tim1STM8S_StdPeriph_Lib/   stm8s_tim1
     0000900D  A$stm8s_tim1STM8S_StdPeriph_Lib/   stm8s_tim1
     0000900F  A$stm8s_tim1STM8S_StdPeriph_Lib/   stm8s_tim1
     0000900F  C$stm8s_tim1.c$367$2_0$362         stm8s_tim1
     00009013  A$stm8s_tim1STM8S_StdPeriph_Lib/   stm8s_tim1
     00009013  C$stm8s_tim1.c$371$1_0$360         stm8s_tim1
     00009015  A$stm8s_tim1STM8S_StdPeriph_Lib/   stm8s_tim1
     00009018  A$stm8s_tim1STM8S_StdPeriph_Lib/   stm8s_tim1
     00009018  C$stm8s_tim1.c$372$1_0$360         stm8s_tim1
     0000901A  A$stm8s_tim1STM8S_StdPeriph_Lib/   stm8s_tim1
     0000901D  A$stm8s_tim1STM8S_StdPeriph_Lib/   stm8s_tim1
     0000901F  A$stm8s_tim1STM8S_StdPeriph_Lib/   stm8s_tim1
     0000901F  C$stm8s_tim1.c$373$1_0$360         stm8s_tim1
     0000901F  XG$TIM1_OC4Init$0$0                stm8s_tim1
     00009020  A$stm8s_tim1STM8S_StdPeriph_Lib/   stm8s_tim1
     00009020  C$stm8s_tim1.c$388$1_0$364         stm8s_tim1
     00009020  G$TIM1_BDTRConfig$0$0              stm8s_tim1
     00009020  _TIM1_BDTRConfig                   stm8s_tim1
     00009021  A$stm8s_tim1STM8S_StdPeriph_Lib/   stm8s_tim1
     00009021  C$stm8s_tim1.c$402$1_0$364         stm8s_tim1
     00009024  A$stm8s_tim1STM8S_StdPeriph_Lib/   stm8s_tim1
     00009026  A$stm8s_tim1STM8S_StdPeriph_Lib/   stm8s_tim1
     00009027  A$stm8s_tim1STM8S_StdPeriph_Lib/   stm8s_tim1
     00009027  C$stm8s_tim1.c$406$1_0$364         stm8s_tim1
     00009029  A$stm8s_tim1STM8S_StdPeriph_Lib/   stm8s_tim1
     0000902B  A$stm8s_tim1STM8S_StdPeriph_Lib/   stm8s_tim1
     0000902D  A$stm8s_tim1STM8S_StdPeriph_Lib/   stm8s_tim1
     0000902D  C$stm8s_tim1.c$407$1_0$364         stm8s_tim1
     0000902F  A$stm8s_tim1STM8S_StdPeriph_Lib/   stm8s_tim1
     00009031  A$stm8s_tim1STM8S_StdPeriph_Lib/   stm8s_tim1
     00009031  C$stm8s_tim1.c$408$1_0$364         stm8s_tim1
ASxxxx Linker V03.00 + NoICE + sdld,  page 64.
Hexadecimal  [32-Bits]

Area                                    Addr        Size        Decimal Bytes (Attributes)
--------------------------------        ----        ----        ------- ----- ------------
CODE                                000082B4    0000592D =       22829. bytes (REL,CON)

      Value  Global                              Global Defined In Module
      -----  --------------------------------   ------------------------
     00009033  A$stm8s_tim1STM8S_StdPeriph_Lib/   stm8s_tim1
     00009035  A$stm8s_tim1STM8S_StdPeriph_Lib/   stm8s_tim1
     00009038  A$stm8s_tim1STM8S_StdPeriph_Lib/   stm8s_tim1
     00009039  A$stm8s_tim1STM8S_StdPeriph_Lib/   stm8s_tim1
     00009039  C$stm8s_tim1.c$409$1_0$364         stm8s_tim1
     00009039  XG$TIM1_BDTRConfig$0$0             stm8s_tim1
     0000903A  A$stm8s_tim1STM8S_StdPeriph_Lib/   stm8s_tim1
     0000903A  C$stm8s_tim1.c$423$1_0$366         stm8s_tim1
     0000903A  C$stm8s_tim1.c$436$1_0$366         stm8s_tim1
     0000903A  G$TIM1_ICInit$0$0                  stm8s_tim1
     0000903A  _TIM1_ICInit                       stm8s_tim1
     0000903C  A$stm8s_tim1STM8S_StdPeriph_Lib/   stm8s_tim1
     0000903E  A$stm8s_tim1STM8S_StdPeriph_Lib/   stm8s_tim1
     0000903E  C$stm8s_tim1.c$439$2_0$367         stm8s_tim1
     00009040  A$stm8s_tim1STM8S_StdPeriph_Lib/   stm8s_tim1
     00009041  A$stm8s_tim1STM8S_StdPeriph_Lib/   stm8s_tim1
     00009043  A$stm8s_tim1STM8S_StdPeriph_Lib/   stm8s_tim1
     00009044  A$stm8s_tim1STM8S_StdPeriph_Lib/   stm8s_tim1
     00009046  A$stm8s_tim1STM8S_StdPeriph_Lib/   stm8s_tim1
     00009047  A$stm8s_tim1STM8S_StdPeriph_Lib/   stm8s_tim1
     0000904A  A$stm8s_tim1STM8S_StdPeriph_Lib/   stm8s_tim1
     0000904C  A$stm8s_tim1STM8S_StdPeriph_Lib/   stm8s_tim1
     0000904C  C$stm8s_tim1.c$443$2_0$367         stm8s_tim1
     0000904E  A$stm8s_tim1STM8S_StdPeriph_Lib/   stm8s_tim1
     0000904F  A$stm8s_tim1STM8S_StdPeriph_Lib/   stm8s_tim1
     00009052  A$stm8s_tim1STM8S_StdPeriph_Lib/   stm8s_tim1
     00009053  A$stm8s_tim1STM8S_StdPeriph_Lib/   stm8s_tim1
     00009055  A$stm8s_tim1STM8S_StdPeriph_Lib/   stm8s_tim1
     00009055  C$stm8s_tim1.c$445$1_0$366         stm8s_tim1
     00009057  A$stm8s_tim1STM8S_StdPeriph_Lib/   stm8s_tim1
     00009058  A$stm8s_tim1STM8S_StdPeriph_Lib/   stm8s_tim1
     0000905A  A$stm8s_tim1STM8S_StdPeriph_Lib/   stm8s_tim1
     0000905A  C$stm8s_tim1.c$448$2_0$368         stm8s_tim1
     0000905C  A$stm8s_tim1STM8S_StdPeriph_Lib/   stm8s_tim1
     0000905D  A$stm8s_tim1STM8S_StdPeriph_Lib/   stm8s_tim1
     0000905F  A$stm8s_tim1STM8S_StdPeriph_Lib/   stm8s_tim1
     00009060  A$stm8s_tim1STM8S_StdPeriph_Lib/   stm8s_tim1
     00009062  A$stm8s_tim1STM8S_StdPeriph_Lib/   stm8s_tim1
     00009063  A$stm8s_tim1STM8S_StdPeriph_Lib/   stm8s_tim1
     00009066  A$stm8s_tim1STM8S_StdPeriph_Lib/   stm8s_tim1
     00009068  A$stm8s_tim1STM8S_StdPeriph_Lib/   stm8s_tim1
     00009068  C$stm8s_tim1.c$452$2_0$368         stm8s_tim1
     0000906A  A$stm8s_tim1STM8S_StdPeriph_Lib/   stm8s_tim1
     0000906B  A$stm8s_tim1STM8S_StdPeriph_Lib/   stm8s_tim1
     0000906E  A$stm8s_tim1STM8S_StdPeriph_Lib/   stm8s_tim1
     0000906F  A$stm8s_tim1STM8S_StdPeriph_Lib/   stm8s_tim1
     00009071  A$stm8s_tim1STM8S_StdPeriph_Lib/   stm8s_tim1
     00009071  C$stm8s_tim1.c$454$1_0$366         stm8s_tim1
     00009073  A$stm8s_tim1STM8S_StdPeriph_Lib/   stm8s_tim1
     00009075  A$stm8s_tim1STM8S_StdPeriph_Lib/   stm8s_tim1
     00009077  A$stm8s_tim1STM8S_StdPeriph_Lib/   stm8s_tim1
ASxxxx Linker V03.00 + NoICE + sdld,  page 65.
Hexadecimal  [32-Bits]

Area                                    Addr        Size        Decimal Bytes (Attributes)
--------------------------------        ----        ----        ------- ----- ------------
CODE                                000082B4    0000592D =       22829. bytes (REL,CON)

      Value  Global                              Global Defined In Module
      -----  --------------------------------   ------------------------
     00009077  C$stm8s_tim1.c$457$2_0$369         stm8s_tim1
     00009079  A$stm8s_tim1STM8S_StdPeriph_Lib/   stm8s_tim1
     0000907A  A$stm8s_tim1STM8S_StdPeriph_Lib/   stm8s_tim1
     0000907C  A$stm8s_tim1STM8S_StdPeriph_Lib/   stm8s_tim1
     0000907D  A$stm8s_tim1STM8S_StdPeriph_Lib/   stm8s_tim1
     0000907F  A$stm8s_tim1STM8S_StdPeriph_Lib/   stm8s_tim1
     00009080  A$stm8s_tim1STM8S_StdPeriph_Lib/   stm8s_tim1
     00009083  A$stm8s_tim1STM8S_StdPeriph_Lib/   stm8s_tim1
     00009085  A$stm8s_tim1STM8S_StdPeriph_Lib/   stm8s_tim1
     00009085  C$stm8s_tim1.c$461$2_0$369         stm8s_tim1
     00009087  A$stm8s_tim1STM8S_StdPeriph_Lib/   stm8s_tim1
     00009088  A$stm8s_tim1STM8S_StdPeriph_Lib/   stm8s_tim1
     0000908B  A$stm8s_tim1STM8S_StdPeriph_Lib/   stm8s_tim1
     0000908C  A$stm8s_tim1STM8S_StdPeriph_Lib/   stm8s_tim1
     0000908E  A$stm8s_tim1STM8S_StdPeriph_Lib/   stm8s_tim1
     0000908E  C$stm8s_tim1.c$466$2_0$370         stm8s_tim1
     00009090  A$stm8s_tim1STM8S_StdPeriph_Lib/   stm8s_tim1
     00009091  A$stm8s_tim1STM8S_StdPeriph_Lib/   stm8s_tim1
     00009093  A$stm8s_tim1STM8S_StdPeriph_Lib/   stm8s_tim1
     00009094  A$stm8s_tim1STM8S_StdPeriph_Lib/   stm8s_tim1
     00009096  A$stm8s_tim1STM8S_StdPeriph_Lib/   stm8s_tim1
     00009097  A$stm8s_tim1STM8S_StdPeriph_Lib/   stm8s_tim1
     0000909A  A$stm8s_tim1STM8S_StdPeriph_Lib/   stm8s_tim1
     0000909C  A$stm8s_tim1STM8S_StdPeriph_Lib/   stm8s_tim1
     0000909C  C$stm8s_tim1.c$470$2_0$370         stm8s_tim1
     0000909E  A$stm8s_tim1STM8S_StdPeriph_Lib/   stm8s_tim1
     0000909F  A$stm8s_tim1STM8S_StdPeriph_Lib/   stm8s_tim1
     000090A2  A$stm8s_tim1STM8S_StdPeriph_Lib/   stm8s_tim1
     000090A3  A$stm8s_tim1STM8S_StdPeriph_Lib/   stm8s_tim1
     000090A3  C$stm8s_tim1.c$472$1_0$366         stm8s_tim1
     000090A3  XG$TIM1_ICInit$0$0                 stm8s_tim1
     000090A4  A$stm8s_tim1STM8S_StdPeriph_Lib/   stm8s_tim1
     000090A4  C$stm8s_tim1.c$488$1_0$372         stm8s_tim1
     000090A4  G$TIM1_PWMIConfig$0$0              stm8s_tim1
     000090A4  _TIM1_PWMIConfig                   stm8s_tim1
     000090A6  A$stm8s_tim1STM8S_StdPeriph_Lib/   stm8s_tim1
     000090A6  C$stm8s_tim1.c$504$1_0$372         stm8s_tim1
     000090A8  A$stm8s_tim1STM8S_StdPeriph_Lib/   stm8s_tim1
     000090A9  A$stm8s_tim1STM8S_StdPeriph_Lib/   stm8s_tim1
     000090AB  A$stm8s_tim1STM8S_StdPeriph_Lib/   stm8s_tim1
     000090AB  C$stm8s_tim1.c$506$2_0$373         stm8s_tim1
     000090AD  A$stm8s_tim1STM8S_StdPeriph_Lib/   stm8s_tim1
     000090AF  A$stm8s_tim1STM8S_StdPeriph_Lib/   stm8s_tim1
     000090B1  A$stm8s_tim1STM8S_StdPeriph_Lib/   stm8s_tim1
     000090B1  C$stm8s_tim1.c$510$2_0$374         stm8s_tim1
     000090B3  A$stm8s_tim1STM8S_StdPeriph_Lib/   stm8s_tim1
     000090B3  C$stm8s_tim1.c$514$1_0$372         stm8s_tim1
     000090B5  A$stm8s_tim1STM8S_StdPeriph_Lib/   stm8s_tim1
     000090B6  A$stm8s_tim1STM8S_StdPeriph_Lib/   stm8s_tim1
     000090B8  A$stm8s_tim1STM8S_StdPeriph_Lib/   stm8s_tim1
     000090B8  C$stm8s_tim1.c$516$2_0$375         stm8s_tim1
ASxxxx Linker V03.00 + NoICE + sdld,  page 66.
Hexadecimal  [32-Bits]

Area                                    Addr        Size        Decimal Bytes (Attributes)
--------------------------------        ----        ----        ------- ----- ------------
CODE                                000082B4    0000592D =       22829. bytes (REL,CON)

      Value  Global                              Global Defined In Module
      -----  --------------------------------   ------------------------
     000090BA  A$stm8s_tim1STM8S_StdPeriph_Lib/   stm8s_tim1
     000090BC  A$stm8s_tim1STM8S_StdPeriph_Lib/   stm8s_tim1
     000090BE  A$stm8s_tim1STM8S_StdPeriph_Lib/   stm8s_tim1
     000090BE  C$stm8s_tim1.c$520$2_0$376         stm8s_tim1
     000090C0  A$stm8s_tim1STM8S_StdPeriph_Lib/   stm8s_tim1
     000090C2  A$stm8s_tim1STM8S_StdPeriph_Lib/   stm8s_tim1
     000090C2  C$stm8s_tim1.c$523$1_0$372         stm8s_tim1
     000090C4  A$stm8s_tim1STM8S_StdPeriph_Lib/   stm8s_tim1
     000090C6  A$stm8s_tim1STM8S_StdPeriph_Lib/   stm8s_tim1
     000090C6  C$stm8s_tim1.c$526$2_0$377         stm8s_tim1
     000090C8  A$stm8s_tim1STM8S_StdPeriph_Lib/   stm8s_tim1
     000090C9  A$stm8s_tim1STM8S_StdPeriph_Lib/   stm8s_tim1
     000090CB  A$stm8s_tim1STM8S_StdPeriph_Lib/   stm8s_tim1
     000090CC  A$stm8s_tim1STM8S_StdPeriph_Lib/   stm8s_tim1
     000090CE  A$stm8s_tim1STM8S_StdPeriph_Lib/   stm8s_tim1
     000090CF  A$stm8s_tim1STM8S_StdPeriph_Lib/   stm8s_tim1
     000090D2  A$stm8s_tim1STM8S_StdPeriph_Lib/   stm8s_tim1
     000090D4  A$stm8s_tim1STM8S_StdPeriph_Lib/   stm8s_tim1
     000090D4  C$stm8s_tim1.c$530$2_0$377         stm8s_tim1
     000090D6  A$stm8s_tim1STM8S_StdPeriph_Lib/   stm8s_tim1
     000090D7  A$stm8s_tim1STM8S_StdPeriph_Lib/   stm8s_tim1
     000090DA  A$stm8s_tim1STM8S_StdPeriph_Lib/   stm8s_tim1
     000090DB  A$stm8s_tim1STM8S_StdPeriph_Lib/   stm8s_tim1
     000090DB  C$stm8s_tim1.c$533$2_0$377         stm8s_tim1
     000090DD  A$stm8s_tim1STM8S_StdPeriph_Lib/   stm8s_tim1
     000090DE  A$stm8s_tim1STM8S_StdPeriph_Lib/   stm8s_tim1
     000090E0  A$stm8s_tim1STM8S_StdPeriph_Lib/   stm8s_tim1
     000090E1  A$stm8s_tim1STM8S_StdPeriph_Lib/   stm8s_tim1
     000090E3  A$stm8s_tim1STM8S_StdPeriph_Lib/   stm8s_tim1
     000090E4  A$stm8s_tim1STM8S_StdPeriph_Lib/   stm8s_tim1
     000090E7  A$stm8s_tim1STM8S_StdPeriph_Lib/   stm8s_tim1
     000090E9  A$stm8s_tim1STM8S_StdPeriph_Lib/   stm8s_tim1
     000090E9  C$stm8s_tim1.c$536$2_0$377         stm8s_tim1
     000090EB  A$stm8s_tim1STM8S_StdPeriph_Lib/   stm8s_tim1
     000090EC  A$stm8s_tim1STM8S_StdPeriph_Lib/   stm8s_tim1
     000090EF  A$stm8s_tim1STM8S_StdPeriph_Lib/   stm8s_tim1
     000090F0  A$stm8s_tim1STM8S_StdPeriph_Lib/   stm8s_tim1
     000090F2  A$stm8s_tim1STM8S_StdPeriph_Lib/   stm8s_tim1
     000090F2  C$stm8s_tim1.c$541$2_0$378         stm8s_tim1
     000090F4  A$stm8s_tim1STM8S_StdPeriph_Lib/   stm8s_tim1
     000090F5  A$stm8s_tim1STM8S_StdPeriph_Lib/   stm8s_tim1
     000090F7  A$stm8s_tim1STM8S_StdPeriph_Lib/   stm8s_tim1
     000090F8  A$stm8s_tim1STM8S_StdPeriph_Lib/   stm8s_tim1
     000090FA  A$stm8s_tim1STM8S_StdPeriph_Lib/   stm8s_tim1
     000090FB  A$stm8s_tim1STM8S_StdPeriph_Lib/   stm8s_tim1
     000090FE  A$stm8s_tim1STM8S_StdPeriph_Lib/   stm8s_tim1
     00009100  A$stm8s_tim1STM8S_StdPeriph_Lib/   stm8s_tim1
     00009100  C$stm8s_tim1.c$545$2_0$378         stm8s_tim1
     00009102  A$stm8s_tim1STM8S_StdPeriph_Lib/   stm8s_tim1
     00009103  A$stm8s_tim1STM8S_StdPeriph_Lib/   stm8s_tim1
     00009106  A$stm8s_tim1STM8S_StdPeriph_Lib/   stm8s_tim1
ASxxxx Linker V03.00 + NoICE + sdld,  page 67.
Hexadecimal  [32-Bits]

Area                                    Addr        Size        Decimal Bytes (Attributes)
--------------------------------        ----        ----        ------- ----- ------------
CODE                                000082B4    0000592D =       22829. bytes (REL,CON)

      Value  Global                              Global Defined In Module
      -----  --------------------------------   ------------------------
     00009107  A$stm8s_tim1STM8S_StdPeriph_Lib/   stm8s_tim1
     00009107  C$stm8s_tim1.c$548$2_0$378         stm8s_tim1
     00009109  A$stm8s_tim1STM8S_StdPeriph_Lib/   stm8s_tim1
     0000910A  A$stm8s_tim1STM8S_StdPeriph_Lib/   stm8s_tim1
     0000910C  A$stm8s_tim1STM8S_StdPeriph_Lib/   stm8s_tim1
     0000910D  A$stm8s_tim1STM8S_StdPeriph_Lib/   stm8s_tim1
     0000910F  A$stm8s_tim1STM8S_StdPeriph_Lib/   stm8s_tim1
     00009110  A$stm8s_tim1STM8S_StdPeriph_Lib/   stm8s_tim1
     00009113  A$stm8s_tim1STM8S_StdPeriph_Lib/   stm8s_tim1
     00009115  A$stm8s_tim1STM8S_StdPeriph_Lib/   stm8s_tim1
     00009115  C$stm8s_tim1.c$551$2_0$378         stm8s_tim1
     00009117  A$stm8s_tim1STM8S_StdPeriph_Lib/   stm8s_tim1
     00009118  A$stm8s_tim1STM8S_StdPeriph_Lib/   stm8s_tim1
     0000911B  A$stm8s_tim1STM8S_StdPeriph_Lib/   stm8s_tim1
     0000911C  A$stm8s_tim1STM8S_StdPeriph_Lib/   stm8s_tim1
     0000911E  A$stm8s_tim1STM8S_StdPeriph_Lib/   stm8s_tim1
     0000911E  C$stm8s_tim1.c$553$1_0$372         stm8s_tim1
     0000911E  XG$TIM1_PWMIConfig$0$0             stm8s_tim1
     0000911F  A$stm8s_tim1STM8S_StdPeriph_Lib/   stm8s_tim1
     0000911F  C$stm8s_tim1.c$561$1_0$380         stm8s_tim1
     0000911F  C$stm8s_tim1.c$567$1_0$380         stm8s_tim1
     0000911F  G$TIM1_Cmd$0$0                     stm8s_tim1
     0000911F  _TIM1_Cmd                          stm8s_tim1
     00009121  A$stm8s_tim1STM8S_StdPeriph_Lib/   stm8s_tim1
     00009123  A$stm8s_tim1STM8S_StdPeriph_Lib/   stm8s_tim1
     00009123  C$stm8s_tim1.c$569$2_0$381         stm8s_tim1
     00009127  A$stm8s_tim1STM8S_StdPeriph_Lib/   stm8s_tim1
     00009129  A$stm8s_tim1STM8S_StdPeriph_Lib/   stm8s_tim1
     00009129  C$stm8s_tim1.c$573$2_0$382         stm8s_tim1
     0000912D  A$stm8s_tim1STM8S_StdPeriph_Lib/   stm8s_tim1
     0000912D  C$stm8s_tim1.c$575$1_0$380         stm8s_tim1
     0000912D  XG$TIM1_Cmd$0$0                    stm8s_tim1
     0000912E  A$stm8s_tim1STM8S_StdPeriph_Lib/   stm8s_tim1
     0000912E  C$stm8s_tim1.c$583$1_0$384         stm8s_tim1
     0000912E  C$stm8s_tim1.c$590$1_0$384         stm8s_tim1
     0000912E  G$TIM1_CtrlPWMOutputs$0$0          stm8s_tim1
     0000912E  _TIM1_CtrlPWMOutputs               stm8s_tim1
     00009130  A$stm8s_tim1STM8S_StdPeriph_Lib/   stm8s_tim1
     00009132  A$stm8s_tim1STM8S_StdPeriph_Lib/   stm8s_tim1
     00009132  C$stm8s_tim1.c$592$2_0$385         stm8s_tim1
     00009136  A$stm8s_tim1STM8S_StdPeriph_Lib/   stm8s_tim1
     00009138  A$stm8s_tim1STM8S_StdPeriph_Lib/   stm8s_tim1
     00009138  C$stm8s_tim1.c$596$2_0$386         stm8s_tim1
     0000913C  A$stm8s_tim1STM8S_StdPeriph_Lib/   stm8s_tim1
     0000913C  C$stm8s_tim1.c$598$1_0$384         stm8s_tim1
     0000913C  XG$TIM1_CtrlPWMOutputs$0$0         stm8s_tim1
     0000913D  A$stm8s_tim1STM8S_StdPeriph_Lib/   stm8s_tim1
     0000913D  C$stm8s_tim1.c$617$1_0$388         stm8s_tim1
     0000913D  G$TIM1_ITConfig$0$0                stm8s_tim1
     0000913D  _TIM1_ITConfig                     stm8s_tim1
     0000913E  A$stm8s_tim1STM8S_StdPeriph_Lib/   stm8s_tim1
ASxxxx Linker V03.00 + NoICE + sdld,  page 68.
Hexadecimal  [32-Bits]

Area                                    Addr        Size        Decimal Bytes (Attributes)
--------------------------------        ----        ----        ------- ----- ------------
CODE                                000082B4    0000592D =       22829. bytes (REL,CON)

      Value  Global                              Global Defined In Module
      -----  --------------------------------   ------------------------
     0000913E  C$stm8s_tim1.c$623$1_0$388         stm8s_tim1
     00009140  A$stm8s_tim1STM8S_StdPeriph_Lib/   stm8s_tim1
     00009142  A$stm8s_tim1STM8S_StdPeriph_Lib/   stm8s_tim1
     00009142  C$stm8s_tim1.c$626$2_0$389         stm8s_tim1
     00009145  A$stm8s_tim1STM8S_StdPeriph_Lib/   stm8s_tim1
     00009147  A$stm8s_tim1STM8S_StdPeriph_Lib/   stm8s_tim1
     0000914A  A$stm8s_tim1STM8S_StdPeriph_Lib/   stm8s_tim1
     0000914C  A$stm8s_tim1STM8S_StdPeriph_Lib/   stm8s_tim1
     0000914C  C$stm8s_tim1.c$631$2_0$390         stm8s_tim1
     0000914F  A$stm8s_tim1STM8S_StdPeriph_Lib/   stm8s_tim1
     00009151  A$stm8s_tim1STM8S_StdPeriph_Lib/   stm8s_tim1
     00009153  A$stm8s_tim1STM8S_StdPeriph_Lib/   stm8s_tim1
     00009154  A$stm8s_tim1STM8S_StdPeriph_Lib/   stm8s_tim1
     00009156  A$stm8s_tim1STM8S_StdPeriph_Lib/   stm8s_tim1
     00009159  A$stm8s_tim1STM8S_StdPeriph_Lib/   stm8s_tim1
     0000915A  A$stm8s_tim1STM8S_StdPeriph_Lib/   stm8s_tim1
     0000915A  C$stm8s_tim1.c$633$1_0$388         stm8s_tim1
     0000915A  XG$TIM1_ITConfig$0$0               stm8s_tim1
     0000915B  A$stm8s_tim1STM8S_StdPeriph_Lib/   stm8s_tim1
     0000915B  C$stm8s_tim1.c$640$1_0$392         stm8s_tim1
     0000915B  C$stm8s_tim1.c$643$1_0$392         stm8s_tim1
     0000915B  G$TIM1_InternalClockConfig$0$0     stm8s_tim1
     0000915B  _TIM1_InternalClockConfig          stm8s_tim1
     0000915E  A$stm8s_tim1STM8S_StdPeriph_Lib/   stm8s_tim1
     00009160  A$stm8s_tim1STM8S_StdPeriph_Lib/   stm8s_tim1
     00009163  A$stm8s_tim1STM8S_StdPeriph_Lib/   stm8s_tim1
     00009163  C$stm8s_tim1.c$644$1_0$392         stm8s_tim1
     00009163  XG$TIM1_InternalClockConfig$0$0    stm8s_tim1
     00009164  A$stm8s_tim1STM8S_StdPeriph_Lib/   stm8s_tim1
     00009164  C$stm8s_tim1.c$662$1_0$394         stm8s_tim1
     00009164  C$stm8s_tim1.c$671$1_0$394         stm8s_tim1
     00009164  G$TIM1_ETRClockMode1Config$0$0     stm8s_tim1
     00009164  _TIM1_ETRClockMode1Config          stm8s_tim1
     00009166  A$stm8s_tim1STM8S_StdPeriph_Lib/   stm8s_tim1
     00009167  A$stm8s_tim1STM8S_StdPeriph_Lib/   stm8s_tim1
     00009169  A$stm8s_tim1STM8S_StdPeriph_Lib/   stm8s_tim1
     0000916A  A$stm8s_tim1STM8S_StdPeriph_Lib/   stm8s_tim1
     0000916C  A$stm8s_tim1STM8S_StdPeriph_Lib/   stm8s_tim1
     0000916D  A$stm8s_tim1STM8S_StdPeriph_Lib/   stm8s_tim1
     00009170  A$stm8s_tim1STM8S_StdPeriph_Lib/   stm8s_tim1
     00009172  A$stm8s_tim1STM8S_StdPeriph_Lib/   stm8s_tim1
     00009172  C$stm8s_tim1.c$674$1_0$394         stm8s_tim1
     00009175  A$stm8s_tim1STM8S_StdPeriph_Lib/   stm8s_tim1
     00009177  A$stm8s_tim1STM8S_StdPeriph_Lib/   stm8s_tim1
     00009179  A$stm8s_tim1STM8S_StdPeriph_Lib/   stm8s_tim1
     0000917C  A$stm8s_tim1STM8S_StdPeriph_Lib/   stm8s_tim1
     0000917C  C$stm8s_tim1.c$676$1_0$394         stm8s_tim1
     0000917C  XG$TIM1_ETRClockMode1Config$0$0    stm8s_tim1
     0000917D  A$stm8s_tim1STM8S_StdPeriph_Lib/   stm8s_tim1
     0000917D  C$stm8s_tim1.c$694$1_0$396         stm8s_tim1
     0000917D  C$stm8s_tim1.c$703$1_0$396         stm8s_tim1
ASxxxx Linker V03.00 + NoICE + sdld,  page 69.
Hexadecimal  [32-Bits]

Area                                    Addr        Size        Decimal Bytes (Attributes)
--------------------------------        ----        ----        ------- ----- ------------
CODE                                000082B4    0000592D =       22829. bytes (REL,CON)

      Value  Global                              Global Defined In Module
      -----  --------------------------------   ------------------------
     0000917D  G$TIM1_ETRClockMode2Config$0$0     stm8s_tim1
     0000917D  _TIM1_ETRClockMode2Config          stm8s_tim1
     0000917F  A$stm8s_tim1STM8S_StdPeriph_Lib/   stm8s_tim1
     00009180  A$stm8s_tim1STM8S_StdPeriph_Lib/   stm8s_tim1
     00009182  A$stm8s_tim1STM8S_StdPeriph_Lib/   stm8s_tim1
     00009183  A$stm8s_tim1STM8S_StdPeriph_Lib/   stm8s_tim1
     00009185  A$stm8s_tim1STM8S_StdPeriph_Lib/   stm8s_tim1
     00009186  A$stm8s_tim1STM8S_StdPeriph_Lib/   stm8s_tim1
     00009189  A$stm8s_tim1STM8S_StdPeriph_Lib/   stm8s_tim1
     0000918B  A$stm8s_tim1STM8S_StdPeriph_Lib/   stm8s_tim1
     0000918B  C$stm8s_tim1.c$706$1_0$396         stm8s_tim1
     0000918F  A$stm8s_tim1STM8S_StdPeriph_Lib/   stm8s_tim1
     0000918F  C$stm8s_tim1.c$707$1_0$396         stm8s_tim1
     0000918F  XG$TIM1_ETRClockMode2Config$0$0    stm8s_tim1
     00009190  A$stm8s_tim1STM8S_StdPeriph_Lib/   stm8s_tim1
     00009190  C$stm8s_tim1.c$725$1_0$398         stm8s_tim1
     00009190  G$TIM1_ETRConfig$0$0               stm8s_tim1
     00009190  _TIM1_ETRConfig                    stm8s_tim1
     00009191  A$stm8s_tim1STM8S_StdPeriph_Lib/   stm8s_tim1
     00009191  C$stm8s_tim1.c$732$1_0$398         stm8s_tim1
     00009194  A$stm8s_tim1STM8S_StdPeriph_Lib/   stm8s_tim1
     00009196  A$stm8s_tim1STM8S_StdPeriph_Lib/   stm8s_tim1
     00009198  A$stm8s_tim1STM8S_StdPeriph_Lib/   stm8s_tim1
     0000919A  A$stm8s_tim1STM8S_StdPeriph_Lib/   stm8s_tim1
     0000919A  C$stm8s_tim1.c$733$1_0$398         stm8s_tim1
     0000919C  A$stm8s_tim1STM8S_StdPeriph_Lib/   stm8s_tim1
     0000919E  A$stm8s_tim1STM8S_StdPeriph_Lib/   stm8s_tim1
     000091A1  A$stm8s_tim1STM8S_StdPeriph_Lib/   stm8s_tim1
     000091A2  A$stm8s_tim1STM8S_StdPeriph_Lib/   stm8s_tim1
     000091A2  C$stm8s_tim1.c$734$1_0$398         stm8s_tim1
     000091A2  XG$TIM1_ETRConfig$0$0              stm8s_tim1
     000091A3  A$stm8s_tim1STM8S_StdPeriph_Lib/   stm8s_tim1
     000091A3  C$stm8s_tim1.c$751$1_0$400         stm8s_tim1
     000091A3  C$stm8s_tim1.c$761$1_0$400         stm8s_tim1
     000091A3  G$TIM1_TIxExternalClockConfig$0$   stm8s_tim1
     000091A3  _TIM1_TIxExternalClockConfig       stm8s_tim1
     000091A5  A$stm8s_tim1STM8S_StdPeriph_Lib/   stm8s_tim1
     000091A7  A$stm8s_tim1STM8S_StdPeriph_Lib/   stm8s_tim1
     000091A9  A$stm8s_tim1STM8S_StdPeriph_Lib/   stm8s_tim1
     000091A9  C$stm8s_tim1.c$763$2_0$401         stm8s_tim1
     000091AB  A$stm8s_tim1STM8S_StdPeriph_Lib/   stm8s_tim1
     000091AC  A$stm8s_tim1STM8S_StdPeriph_Lib/   stm8s_tim1
     000091AE  A$stm8s_tim1STM8S_StdPeriph_Lib/   stm8s_tim1
     000091B0  A$stm8s_tim1STM8S_StdPeriph_Lib/   stm8s_tim1
     000091B1  A$stm8s_tim1STM8S_StdPeriph_Lib/   stm8s_tim1
     000091B4  A$stm8s_tim1STM8S_StdPeriph_Lib/   stm8s_tim1
     000091B6  A$stm8s_tim1STM8S_StdPeriph_Lib/   stm8s_tim1
     000091B8  A$stm8s_tim1STM8S_StdPeriph_Lib/   stm8s_tim1
     000091B8  C$stm8s_tim1.c$767$2_0$402         stm8s_tim1
     000091BA  A$stm8s_tim1STM8S_StdPeriph_Lib/   stm8s_tim1
     000091BB  A$stm8s_tim1STM8S_StdPeriph_Lib/   stm8s_tim1
ASxxxx Linker V03.00 + NoICE + sdld,  page 70.
Hexadecimal  [32-Bits]

Area                                    Addr        Size        Decimal Bytes (Attributes)
--------------------------------        ----        ----        ------- ----- ------------
CODE                                000082B4    0000592D =       22829. bytes (REL,CON)

      Value  Global                              Global Defined In Module
      -----  --------------------------------   ------------------------
     000091BD  A$stm8s_tim1STM8S_StdPeriph_Lib/   stm8s_tim1
     000091BF  A$stm8s_tim1STM8S_StdPeriph_Lib/   stm8s_tim1
     000091C0  A$stm8s_tim1STM8S_StdPeriph_Lib/   stm8s_tim1
     000091C3  A$stm8s_tim1STM8S_StdPeriph_Lib/   stm8s_tim1
     000091C5  A$stm8s_tim1STM8S_StdPeriph_Lib/   stm8s_tim1
     000091C5  C$stm8s_tim1.c$771$1_0$400         stm8s_tim1
     000091C7  A$stm8s_tim1STM8S_StdPeriph_Lib/   stm8s_tim1
     000091C8  A$stm8s_tim1STM8S_StdPeriph_Lib/   stm8s_tim1
     000091CB  A$stm8s_tim1STM8S_StdPeriph_Lib/   stm8s_tim1
     000091CC  A$stm8s_tim1STM8S_StdPeriph_Lib/   stm8s_tim1
     000091CC  C$stm8s_tim1.c$774$1_0$400         stm8s_tim1
     000091CF  A$stm8s_tim1STM8S_StdPeriph_Lib/   stm8s_tim1
     000091D1  A$stm8s_tim1STM8S_StdPeriph_Lib/   stm8s_tim1
     000091D4  A$stm8s_tim1STM8S_StdPeriph_Lib/   stm8s_tim1
     000091D4  C$stm8s_tim1.c$775$1_0$400         stm8s_tim1
     000091D4  XG$TIM1_TIxExternalClockConfig$0   stm8s_tim1
     000091D5  A$stm8s_tim1STM8S_StdPeriph_Lib/   stm8s_tim1
     000091D5  C$stm8s_tim1.c$787$1_0$404         stm8s_tim1
     000091D5  C$stm8s_tim1.c$793$1_0$404         stm8s_tim1
     000091D5  G$TIM1_SelectInputTrigger$0$0      stm8s_tim1
     000091D5  _TIM1_SelectInputTrigger           stm8s_tim1
     000091D8  A$stm8s_tim1STM8S_StdPeriph_Lib/   stm8s_tim1
     000091DA  A$stm8s_tim1STM8S_StdPeriph_Lib/   stm8s_tim1
     000091DC  A$stm8s_tim1STM8S_StdPeriph_Lib/   stm8s_tim1
     000091DF  A$stm8s_tim1STM8S_StdPeriph_Lib/   stm8s_tim1
     000091DF  C$stm8s_tim1.c$794$1_0$404         stm8s_tim1
     000091DF  XG$TIM1_SelectInputTrigger$0$0     stm8s_tim1
     000091E0  A$stm8s_tim1STM8S_StdPeriph_Lib/   stm8s_tim1
     000091E0  C$stm8s_tim1.c$803$1_0$406         stm8s_tim1
     000091E0  C$stm8s_tim1.c$809$1_0$406         stm8s_tim1
     000091E0  G$TIM1_UpdateDisableConfig$0$0     stm8s_tim1
     000091E0  _TIM1_UpdateDisableConfig          stm8s_tim1
     000091E2  A$stm8s_tim1STM8S_StdPeriph_Lib/   stm8s_tim1
     000091E4  A$stm8s_tim1STM8S_StdPeriph_Lib/   stm8s_tim1
     000091E4  C$stm8s_tim1.c$811$2_0$407         stm8s_tim1
     000091E8  A$stm8s_tim1STM8S_StdPeriph_Lib/   stm8s_tim1
     000091EA  A$stm8s_tim1STM8S_StdPeriph_Lib/   stm8s_tim1
     000091EA  C$stm8s_tim1.c$815$2_0$408         stm8s_tim1
     000091EE  A$stm8s_tim1STM8S_StdPeriph_Lib/   stm8s_tim1
     000091EE  C$stm8s_tim1.c$817$1_0$406         stm8s_tim1
     000091EE  XG$TIM1_UpdateDisableConfig$0$0    stm8s_tim1
     000091EF  A$stm8s_tim1STM8S_StdPeriph_Lib/   stm8s_tim1
     000091EF  C$stm8s_tim1.c$827$1_0$410         stm8s_tim1
     000091EF  C$stm8s_tim1.c$833$1_0$410         stm8s_tim1
     000091EF  G$TIM1_UpdateRequestConfig$0$0     stm8s_tim1
     000091EF  _TIM1_UpdateRequestConfig          stm8s_tim1
     000091F1  A$stm8s_tim1STM8S_StdPeriph_Lib/   stm8s_tim1
     000091F3  A$stm8s_tim1STM8S_StdPeriph_Lib/   stm8s_tim1
     000091F3  C$stm8s_tim1.c$835$2_0$411         stm8s_tim1
     000091F7  A$stm8s_tim1STM8S_StdPeriph_Lib/   stm8s_tim1
     000091F9  A$stm8s_tim1STM8S_StdPeriph_Lib/   stm8s_tim1
ASxxxx Linker V03.00 + NoICE + sdld,  page 71.
Hexadecimal  [32-Bits]

Area                                    Addr        Size        Decimal Bytes (Attributes)
--------------------------------        ----        ----        ------- ----- ------------
CODE                                000082B4    0000592D =       22829. bytes (REL,CON)

      Value  Global                              Global Defined In Module
      -----  --------------------------------   ------------------------
     000091F9  C$stm8s_tim1.c$839$2_0$412         stm8s_tim1
     000091FD  A$stm8s_tim1STM8S_StdPeriph_Lib/   stm8s_tim1
     000091FD  C$stm8s_tim1.c$841$1_0$410         stm8s_tim1
     000091FD  XG$TIM1_UpdateRequestConfig$0$0    stm8s_tim1
     000091FE  A$stm8s_tim1STM8S_StdPeriph_Lib/   stm8s_tim1
     000091FE  C$stm8s_tim1.c$849$1_0$414         stm8s_tim1
     000091FE  C$stm8s_tim1.c$855$1_0$414         stm8s_tim1
     000091FE  G$TIM1_SelectHallSensor$0$0        stm8s_tim1
     000091FE  _TIM1_SelectHallSensor             stm8s_tim1
     00009200  A$stm8s_tim1STM8S_StdPeriph_Lib/   stm8s_tim1
     00009202  A$stm8s_tim1STM8S_StdPeriph_Lib/   stm8s_tim1
     00009202  C$stm8s_tim1.c$857$2_0$415         stm8s_tim1
     00009206  A$stm8s_tim1STM8S_StdPeriph_Lib/   stm8s_tim1
     00009208  A$stm8s_tim1STM8S_StdPeriph_Lib/   stm8s_tim1
     00009208  C$stm8s_tim1.c$861$2_0$416         stm8s_tim1
     0000920C  A$stm8s_tim1STM8S_StdPeriph_Lib/   stm8s_tim1
     0000920C  C$stm8s_tim1.c$863$1_0$414         stm8s_tim1
     0000920C  XG$TIM1_SelectHallSensor$0$0       stm8s_tim1
     0000920D  A$stm8s_tim1STM8S_StdPeriph_Lib/   stm8s_tim1
     0000920D  C$stm8s_tim1.c$873$1_0$418         stm8s_tim1
     0000920D  C$stm8s_tim1.c$879$1_0$418         stm8s_tim1
     0000920D  G$TIM1_SelectOnePulseMode$0$0      stm8s_tim1
     0000920D  _TIM1_SelectOnePulseMode           stm8s_tim1
     0000920F  A$stm8s_tim1STM8S_StdPeriph_Lib/   stm8s_tim1
     00009211  A$stm8s_tim1STM8S_StdPeriph_Lib/   stm8s_tim1
     00009211  C$stm8s_tim1.c$881$2_0$419         stm8s_tim1
     00009215  A$stm8s_tim1STM8S_StdPeriph_Lib/   stm8s_tim1
     00009217  A$stm8s_tim1STM8S_StdPeriph_Lib/   stm8s_tim1
     00009217  C$stm8s_tim1.c$885$2_0$420         stm8s_tim1
     0000921B  A$stm8s_tim1STM8S_StdPeriph_Lib/   stm8s_tim1
     0000921B  C$stm8s_tim1.c$888$1_0$418         stm8s_tim1
     0000921B  XG$TIM1_SelectOnePulseMode$0$0     stm8s_tim1
     0000921C  A$stm8s_tim1STM8S_StdPeriph_Lib/   stm8s_tim1
     0000921C  C$stm8s_tim1.c$903$1_0$422         stm8s_tim1
     0000921C  C$stm8s_tim1.c$909$1_0$422         stm8s_tim1
     0000921C  G$TIM1_SelectOutputTrigger$0$0     stm8s_tim1
     0000921C  _TIM1_SelectOutputTrigger          stm8s_tim1
     0000921F  A$stm8s_tim1STM8S_StdPeriph_Lib/   stm8s_tim1
     00009221  A$stm8s_tim1STM8S_StdPeriph_Lib/   stm8s_tim1
     00009221  C$stm8s_tim1.c$910$1_0$422         stm8s_tim1
     00009223  A$stm8s_tim1STM8S_StdPeriph_Lib/   stm8s_tim1
     00009226  A$stm8s_tim1STM8S_StdPeriph_Lib/   stm8s_tim1
     00009226  C$stm8s_tim1.c$911$1_0$422         stm8s_tim1
     00009226  XG$TIM1_SelectOutputTrigger$0$0    stm8s_tim1
     00009227  A$stm8s_tim1STM8S_StdPeriph_Lib/   stm8s_tim1
     00009227  C$stm8s_tim1.c$923$1_0$424         stm8s_tim1
     00009227  C$stm8s_tim1.c$929$1_0$424         stm8s_tim1
     00009227  G$TIM1_SelectSlaveMode$0$0         stm8s_tim1
     00009227  _TIM1_SelectSlaveMode              stm8s_tim1
     0000922A  A$stm8s_tim1STM8S_StdPeriph_Lib/   stm8s_tim1
     0000922C  A$stm8s_tim1STM8S_StdPeriph_Lib/   stm8s_tim1
ASxxxx Linker V03.00 + NoICE + sdld,  page 72.
Hexadecimal  [32-Bits]

Area                                    Addr        Size        Decimal Bytes (Attributes)
--------------------------------        ----        ----        ------- ----- ------------
CODE                                000082B4    0000592D =       22829. bytes (REL,CON)

      Value  Global                              Global Defined In Module
      -----  --------------------------------   ------------------------
     0000922C  C$stm8s_tim1.c$930$1_0$424         stm8s_tim1
     0000922E  A$stm8s_tim1STM8S_StdPeriph_Lib/   stm8s_tim1
     00009231  A$stm8s_tim1STM8S_StdPeriph_Lib/   stm8s_tim1
     00009231  C$stm8s_tim1.c$931$1_0$424         stm8s_tim1
     00009231  XG$TIM1_SelectSlaveMode$0$0        stm8s_tim1
     00009232  A$stm8s_tim1STM8S_StdPeriph_Lib/   stm8s_tim1
     00009232  C$stm8s_tim1.c$939$1_0$426         stm8s_tim1
     00009232  C$stm8s_tim1.c$945$1_0$426         stm8s_tim1
     00009232  G$TIM1_SelectMasterSlaveMode$0$0   stm8s_tim1
     00009232  _TIM1_SelectMasterSlaveMode        stm8s_tim1
     00009234  A$stm8s_tim1STM8S_StdPeriph_Lib/   stm8s_tim1
     00009236  A$stm8s_tim1STM8S_StdPeriph_Lib/   stm8s_tim1
     00009236  C$stm8s_tim1.c$947$2_0$427         stm8s_tim1
     0000923A  A$stm8s_tim1STM8S_StdPeriph_Lib/   stm8s_tim1
     0000923C  A$stm8s_tim1STM8S_StdPeriph_Lib/   stm8s_tim1
     0000923C  C$stm8s_tim1.c$951$2_0$428         stm8s_tim1
     00009240  A$stm8s_tim1STM8S_StdPeriph_Lib/   stm8s_tim1
     00009240  C$stm8s_tim1.c$953$1_0$426         stm8s_tim1
     00009240  XG$TIM1_SelectMasterSlaveMode$0$   stm8s_tim1
     00009241  A$stm8s_tim1STM8S_StdPeriph_Lib/   stm8s_tim1
     00009241  C$stm8s_tim1.c$975$1_0$430         stm8s_tim1
     00009241  C$stm8s_tim1.c$985$1_0$430         stm8s_tim1
     00009241  G$TIM1_EncoderInterfaceConfig$0$   stm8s_tim1
     00009241  _TIM1_EncoderInterfaceConfig       stm8s_tim1
     00009243  A$stm8s_tim1STM8S_StdPeriph_Lib/   stm8s_tim1
     00009245  A$stm8s_tim1STM8S_StdPeriph_Lib/   stm8s_tim1
     00009245  C$stm8s_tim1.c$987$2_0$431         stm8s_tim1
     00009249  A$stm8s_tim1STM8S_StdPeriph_Lib/   stm8s_tim1
     0000924B  A$stm8s_tim1STM8S_StdPeriph_Lib/   stm8s_tim1
     0000924B  C$stm8s_tim1.c$991$2_0$432         stm8s_tim1
     0000924F  A$stm8s_tim1STM8S_StdPeriph_Lib/   stm8s_tim1
     0000924F  C$stm8s_tim1.c$994$1_0$430         stm8s_tim1
     00009251  A$stm8s_tim1STM8S_StdPeriph_Lib/   stm8s_tim1
     00009253  A$stm8s_tim1STM8S_StdPeriph_Lib/   stm8s_tim1
     00009253  C$stm8s_tim1.c$996$2_0$433         stm8s_tim1
     00009257  A$stm8s_tim1STM8S_StdPeriph_Lib/   stm8s_tim1
     00009259  A$stm8s_tim1STM8S_StdPeriph_Lib/   stm8s_tim1
     00009259  C$stm8s_tim1.c$1000$2_0$434        stm8s_tim1
     0000925D  A$stm8s_tim1STM8S_StdPeriph_Lib/   stm8s_tim1
     0000925D  C$stm8s_tim1.c$1003$1_0$430        stm8s_tim1
     00009260  A$stm8s_tim1STM8S_StdPeriph_Lib/   stm8s_tim1
     00009262  A$stm8s_tim1STM8S_StdPeriph_Lib/   stm8s_tim1
     00009262  C$stm8s_tim1.c$1004$1_0$430        stm8s_tim1
     00009264  A$stm8s_tim1STM8S_StdPeriph_Lib/   stm8s_tim1
     00009267  A$stm8s_tim1STM8S_StdPeriph_Lib/   stm8s_tim1
     00009267  C$stm8s_tim1.c$1007$1_0$430        stm8s_tim1
     0000926A  A$stm8s_tim1STM8S_StdPeriph_Lib/   stm8s_tim1
     0000926C  A$stm8s_tim1STM8S_StdPeriph_Lib/   stm8s_tim1
     0000926E  A$stm8s_tim1STM8S_StdPeriph_Lib/   stm8s_tim1
     00009271  A$stm8s_tim1STM8S_StdPeriph_Lib/   stm8s_tim1
     00009271  C$stm8s_tim1.c$1009$1_0$430        stm8s_tim1
ASxxxx Linker V03.00 + NoICE + sdld,  page 73.
Hexadecimal  [32-Bits]

Area                                    Addr        Size        Decimal Bytes (Attributes)
--------------------------------        ----        ----        ------- ----- ------------
CODE                                000082B4    0000592D =       22829. bytes (REL,CON)

      Value  Global                              Global Defined In Module
      -----  --------------------------------   ------------------------
     00009274  A$stm8s_tim1STM8S_StdPeriph_Lib/   stm8s_tim1
     00009276  A$stm8s_tim1STM8S_StdPeriph_Lib/   stm8s_tim1
     00009278  A$stm8s_tim1STM8S_StdPeriph_Lib/   stm8s_tim1
     0000927B  A$stm8s_tim1STM8S_StdPeriph_Lib/   stm8s_tim1
     0000927B  C$stm8s_tim1.c$1011$1_0$430        stm8s_tim1
     0000927B  XG$TIM1_EncoderInterfaceConfig$0   stm8s_tim1
     0000927C  A$stm8s_tim1STM8S_StdPeriph_Lib/   stm8s_tim1
     0000927C  C$stm8s_tim1.c$1023$1_0$436        stm8s_tim1
     0000927C  G$TIM1_PrescalerConfig$0$0         stm8s_tim1
     0000927C  _TIM1_PrescalerConfig              stm8s_tim1
     0000927E  A$stm8s_tim1STM8S_StdPeriph_Lib/   stm8s_tim1
     0000927E  C$stm8s_tim1.c$1030$1_0$436        stm8s_tim1
     00009280  A$stm8s_tim1STM8S_StdPeriph_Lib/   stm8s_tim1
     00009282  A$stm8s_tim1STM8S_StdPeriph_Lib/   stm8s_tim1
     00009284  A$stm8s_tim1STM8S_StdPeriph_Lib/   stm8s_tim1
     00009286  A$stm8s_tim1STM8S_StdPeriph_Lib/   stm8s_tim1
     00009289  A$stm8s_tim1STM8S_StdPeriph_Lib/   stm8s_tim1
     00009289  C$stm8s_tim1.c$1031$1_0$436        stm8s_tim1
     0000928B  A$stm8s_tim1STM8S_StdPeriph_Lib/   stm8s_tim1
     0000928E  A$stm8s_tim1STM8S_StdPeriph_Lib/   stm8s_tim1
     0000928E  C$stm8s_tim1.c$1034$1_0$436        stm8s_tim1
     00009291  A$stm8s_tim1STM8S_StdPeriph_Lib/   stm8s_tim1
     00009293  A$stm8s_tim1STM8S_StdPeriph_Lib/   stm8s_tim1
     00009294  A$stm8s_tim1STM8S_StdPeriph_Lib/   stm8s_tim1
     00009296  A$stm8s_tim1STM8S_StdPeriph_Lib/   stm8s_tim1
     00009296  C$stm8s_tim1.c$1035$1_0$436        stm8s_tim1
     00009296  XG$TIM1_PrescalerConfig$0$0        stm8s_tim1
     00009297  A$stm8s_tim1STM8S_StdPeriph_Lib/   stm8s_tim1
     00009297  C$stm8s_tim1.c$1048$1_0$438        stm8s_tim1
     00009297  C$stm8s_tim1.c$1055$1_0$438        stm8s_tim1
     00009297  G$TIM1_CounterModeConfig$0$0       stm8s_tim1
     00009297  _TIM1_CounterModeConfig            stm8s_tim1
     0000929A  A$stm8s_tim1STM8S_StdPeriph_Lib/   stm8s_tim1
     0000929C  A$stm8s_tim1STM8S_StdPeriph_Lib/   stm8s_tim1
     0000929C  C$stm8s_tim1.c$1056$1_0$438        stm8s_tim1
     0000929E  A$stm8s_tim1STM8S_StdPeriph_Lib/   stm8s_tim1
     000092A1  A$stm8s_tim1STM8S_StdPeriph_Lib/   stm8s_tim1
     000092A1  C$stm8s_tim1.c$1057$1_0$438        stm8s_tim1
     000092A1  XG$TIM1_CounterModeConfig$0$0      stm8s_tim1
     000092A2  A$stm8s_tim1STM8S_StdPeriph_Lib/   stm8s_tim1
     000092A2  C$stm8s_tim1.c$1067$1_0$440        stm8s_tim1
     000092A2  C$stm8s_tim1.c$1073$1_0$440        stm8s_tim1
     000092A2  G$TIM1_ForcedOC1Config$0$0         stm8s_tim1
     000092A2  _TIM1_ForcedOC1Config              stm8s_tim1
     000092A5  A$stm8s_tim1STM8S_StdPeriph_Lib/   stm8s_tim1
     000092A7  A$stm8s_tim1STM8S_StdPeriph_Lib/   stm8s_tim1
     000092A7  C$stm8s_tim1.c$1074$1_0$440        stm8s_tim1
     000092A9  A$stm8s_tim1STM8S_StdPeriph_Lib/   stm8s_tim1
     000092AC  A$stm8s_tim1STM8S_StdPeriph_Lib/   stm8s_tim1
     000092AC  C$stm8s_tim1.c$1075$1_0$440        stm8s_tim1
     000092AC  XG$TIM1_ForcedOC1Config$0$0        stm8s_tim1
ASxxxx Linker V03.00 + NoICE + sdld,  page 74.
Hexadecimal  [32-Bits]

Area                                    Addr        Size        Decimal Bytes (Attributes)
--------------------------------        ----        ----        ------- ----- ------------
CODE                                000082B4    0000592D =       22829. bytes (REL,CON)

      Value  Global                              Global Defined In Module
      -----  --------------------------------   ------------------------
     000092AD  A$stm8s_tim1STM8S_StdPeriph_Lib/   stm8s_tim1
     000092AD  C$stm8s_tim1.c$1085$1_0$442        stm8s_tim1
     000092AD  C$stm8s_tim1.c$1091$1_0$442        stm8s_tim1
     000092AD  G$TIM1_ForcedOC2Config$0$0         stm8s_tim1
     000092AD  _TIM1_ForcedOC2Config              stm8s_tim1
     000092B0  A$stm8s_tim1STM8S_StdPeriph_Lib/   stm8s_tim1
     000092B2  A$stm8s_tim1STM8S_StdPeriph_Lib/   stm8s_tim1
     000092B2  C$stm8s_tim1.c$1092$1_0$442        stm8s_tim1
     000092B4  A$stm8s_tim1STM8S_StdPeriph_Lib/   stm8s_tim1
     000092B7  A$stm8s_tim1STM8S_StdPeriph_Lib/   stm8s_tim1
     000092B7  C$stm8s_tim1.c$1093$1_0$442        stm8s_tim1
     000092B7  XG$TIM1_ForcedOC2Config$0$0        stm8s_tim1
     000092B8  A$stm8s_tim1STM8S_StdPeriph_Lib/   stm8s_tim1
     000092B8  C$stm8s_tim1.c$1104$1_0$444        stm8s_tim1
     000092B8  C$stm8s_tim1.c$1110$1_0$444        stm8s_tim1
     000092B8  G$TIM1_ForcedOC3Config$0$0         stm8s_tim1
     000092B8  _TIM1_ForcedOC3Config              stm8s_tim1
     000092BB  A$stm8s_tim1STM8S_StdPeriph_Lib/   stm8s_tim1
     000092BD  A$stm8s_tim1STM8S_StdPeriph_Lib/   stm8s_tim1
     000092BD  C$stm8s_tim1.c$1111$1_0$444        stm8s_tim1
     000092BF  A$stm8s_tim1STM8S_StdPeriph_Lib/   stm8s_tim1
     000092C2  A$stm8s_tim1STM8S_StdPeriph_Lib/   stm8s_tim1
     000092C2  C$stm8s_tim1.c$1112$1_0$444        stm8s_tim1
     000092C2  XG$TIM1_ForcedOC3Config$0$0        stm8s_tim1
     000092C3  A$stm8s_tim1STM8S_StdPeriph_Lib/   stm8s_tim1
     000092C3  C$stm8s_tim1.c$1123$1_0$446        stm8s_tim1
     000092C3  C$stm8s_tim1.c$1129$1_0$446        stm8s_tim1
     000092C3  G$TIM1_ForcedOC4Config$0$0         stm8s_tim1
     000092C3  _TIM1_ForcedOC4Config              stm8s_tim1
     000092C6  A$stm8s_tim1STM8S_StdPeriph_Lib/   stm8s_tim1
     000092C8  A$stm8s_tim1STM8S_StdPeriph_Lib/   stm8s_tim1
     000092C8  C$stm8s_tim1.c$1130$1_0$446        stm8s_tim1
     000092CA  A$stm8s_tim1STM8S_StdPeriph_Lib/   stm8s_tim1
     000092CD  A$stm8s_tim1STM8S_StdPeriph_Lib/   stm8s_tim1
     000092CD  C$stm8s_tim1.c$1131$1_0$446        stm8s_tim1
     000092CD  XG$TIM1_ForcedOC4Config$0$0        stm8s_tim1
     000092CE  A$stm8s_tim1STM8S_StdPeriph_Lib/   stm8s_tim1
     000092CE  C$stm8s_tim1.c$1139$1_0$448        stm8s_tim1
     000092CE  C$stm8s_tim1.c$1145$1_0$448        stm8s_tim1
     000092CE  G$TIM1_ARRPreloadConfig$0$0        stm8s_tim1
     000092CE  _TIM1_ARRPreloadConfig             stm8s_tim1
     000092D0  A$stm8s_tim1STM8S_StdPeriph_Lib/   stm8s_tim1
     000092D2  A$stm8s_tim1STM8S_StdPeriph_Lib/   stm8s_tim1
     000092D2  C$stm8s_tim1.c$1147$2_0$449        stm8s_tim1
     000092D6  A$stm8s_tim1STM8S_StdPeriph_Lib/   stm8s_tim1
     000092D8  A$stm8s_tim1STM8S_StdPeriph_Lib/   stm8s_tim1
     000092D8  C$stm8s_tim1.c$1151$2_0$450        stm8s_tim1
     000092DC  A$stm8s_tim1STM8S_StdPeriph_Lib/   stm8s_tim1
     000092DC  C$stm8s_tim1.c$1153$1_0$448        stm8s_tim1
     000092DC  XG$TIM1_ARRPreloadConfig$0$0       stm8s_tim1
     000092DD  A$stm8s_tim1STM8S_StdPeriph_Lib/   stm8s_tim1
ASxxxx Linker V03.00 + NoICE + sdld,  page 75.
Hexadecimal  [32-Bits]

Area                                    Addr        Size        Decimal Bytes (Attributes)
--------------------------------        ----        ----        ------- ----- ------------
CODE                                000082B4    0000592D =       22829. bytes (REL,CON)

      Value  Global                              Global Defined In Module
      -----  --------------------------------   ------------------------
     000092DD  C$stm8s_tim1.c$1161$1_0$452        stm8s_tim1
     000092DD  C$stm8s_tim1.c$1167$1_0$452        stm8s_tim1
     000092DD  G$TIM1_SelectCOM$0$0               stm8s_tim1
     000092DD  _TIM1_SelectCOM                    stm8s_tim1
     000092DF  A$stm8s_tim1STM8S_StdPeriph_Lib/   stm8s_tim1
     000092E1  A$stm8s_tim1STM8S_StdPeriph_Lib/   stm8s_tim1
     000092E1  C$stm8s_tim1.c$1169$2_0$453        stm8s_tim1
     000092E5  A$stm8s_tim1STM8S_StdPeriph_Lib/   stm8s_tim1
     000092E7  A$stm8s_tim1STM8S_StdPeriph_Lib/   stm8s_tim1
     000092E7  C$stm8s_tim1.c$1173$2_0$454        stm8s_tim1
     000092EB  A$stm8s_tim1STM8S_StdPeriph_Lib/   stm8s_tim1
     000092EB  C$stm8s_tim1.c$1175$1_0$452        stm8s_tim1
     000092EB  XG$TIM1_SelectCOM$0$0              stm8s_tim1
     000092EC  A$stm8s_tim1STM8S_StdPeriph_Lib/   stm8s_tim1
     000092EC  C$stm8s_tim1.c$1183$1_0$456        stm8s_tim1
     000092EC  C$stm8s_tim1.c$1189$1_0$456        stm8s_tim1
     000092EC  G$TIM1_CCPreloadControl$0$0        stm8s_tim1
     000092EC  _TIM1_CCPreloadControl             stm8s_tim1
     000092EE  A$stm8s_tim1STM8S_StdPeriph_Lib/   stm8s_tim1
     000092F0  A$stm8s_tim1STM8S_StdPeriph_Lib/   stm8s_tim1
     000092F0  C$stm8s_tim1.c$1191$2_0$457        stm8s_tim1
     000092F4  A$stm8s_tim1STM8S_StdPeriph_Lib/   stm8s_tim1
     000092F6  A$stm8s_tim1STM8S_StdPeriph_Lib/   stm8s_tim1
     000092F6  C$stm8s_tim1.c$1195$2_0$458        stm8s_tim1
     000092FA  A$stm8s_tim1STM8S_StdPeriph_Lib/   stm8s_tim1
     000092FA  C$stm8s_tim1.c$1197$1_0$456        stm8s_tim1
     000092FA  XG$TIM1_CCPreloadControl$0$0       stm8s_tim1
     000092FB  A$stm8s_tim1STM8S_StdPeriph_Lib/   stm8s_tim1
     000092FB  C$stm8s_tim1.c$1205$1_0$460        stm8s_tim1
     000092FB  C$stm8s_tim1.c$1211$1_0$460        stm8s_tim1
     000092FB  G$TIM1_OC1PreloadConfig$0$0        stm8s_tim1
     000092FB  _TIM1_OC1PreloadConfig             stm8s_tim1
     000092FD  A$stm8s_tim1STM8S_StdPeriph_Lib/   stm8s_tim1
     000092FF  A$stm8s_tim1STM8S_StdPeriph_Lib/   stm8s_tim1
     000092FF  C$stm8s_tim1.c$1213$2_0$461        stm8s_tim1
     00009303  A$stm8s_tim1STM8S_StdPeriph_Lib/   stm8s_tim1
     00009305  A$stm8s_tim1STM8S_StdPeriph_Lib/   stm8s_tim1
     00009305  C$stm8s_tim1.c$1217$2_0$462        stm8s_tim1
     00009309  A$stm8s_tim1STM8S_StdPeriph_Lib/   stm8s_tim1
     00009309  C$stm8s_tim1.c$1219$1_0$460        stm8s_tim1
     00009309  XG$TIM1_OC1PreloadConfig$0$0       stm8s_tim1
     0000930A  A$stm8s_tim1STM8S_StdPeriph_Lib/   stm8s_tim1
     0000930A  C$stm8s_tim1.c$1227$1_0$464        stm8s_tim1
     0000930A  C$stm8s_tim1.c$1233$1_0$464        stm8s_tim1
     0000930A  G$TIM1_OC2PreloadConfig$0$0        stm8s_tim1
     0000930A  _TIM1_OC2PreloadConfig             stm8s_tim1
     0000930C  A$stm8s_tim1STM8S_StdPeriph_Lib/   stm8s_tim1
     0000930E  A$stm8s_tim1STM8S_StdPeriph_Lib/   stm8s_tim1
     0000930E  C$stm8s_tim1.c$1235$2_0$465        stm8s_tim1
     00009312  A$stm8s_tim1STM8S_StdPeriph_Lib/   stm8s_tim1
     00009314  A$stm8s_tim1STM8S_StdPeriph_Lib/   stm8s_tim1
ASxxxx Linker V03.00 + NoICE + sdld,  page 76.
Hexadecimal  [32-Bits]

Area                                    Addr        Size        Decimal Bytes (Attributes)
--------------------------------        ----        ----        ------- ----- ------------
CODE                                000082B4    0000592D =       22829. bytes (REL,CON)

      Value  Global                              Global Defined In Module
      -----  --------------------------------   ------------------------
     00009314  C$stm8s_tim1.c$1239$2_0$466        stm8s_tim1
     00009318  A$stm8s_tim1STM8S_StdPeriph_Lib/   stm8s_tim1
     00009318  C$stm8s_tim1.c$1241$1_0$464        stm8s_tim1
     00009318  XG$TIM1_OC2PreloadConfig$0$0       stm8s_tim1
     00009319  A$stm8s_tim1STM8S_StdPeriph_Lib/   stm8s_tim1
     00009319  C$stm8s_tim1.c$1249$1_0$468        stm8s_tim1
     00009319  C$stm8s_tim1.c$1255$1_0$468        stm8s_tim1
     00009319  G$TIM1_OC3PreloadConfig$0$0        stm8s_tim1
     00009319  _TIM1_OC3PreloadConfig             stm8s_tim1
     0000931B  A$stm8s_tim1STM8S_StdPeriph_Lib/   stm8s_tim1
     0000931D  A$stm8s_tim1STM8S_StdPeriph_Lib/   stm8s_tim1
     0000931D  C$stm8s_tim1.c$1257$2_0$469        stm8s_tim1
     00009321  A$stm8s_tim1STM8S_StdPeriph_Lib/   stm8s_tim1
     00009323  A$stm8s_tim1STM8S_StdPeriph_Lib/   stm8s_tim1
     00009323  C$stm8s_tim1.c$1261$2_0$470        stm8s_tim1
     00009327  A$stm8s_tim1STM8S_StdPeriph_Lib/   stm8s_tim1
     00009327  C$stm8s_tim1.c$1263$1_0$468        stm8s_tim1
     00009327  XG$TIM1_OC3PreloadConfig$0$0       stm8s_tim1
     00009328  A$stm8s_tim1STM8S_StdPeriph_Lib/   stm8s_tim1
     00009328  C$stm8s_tim1.c$1271$1_0$472        stm8s_tim1
     00009328  C$stm8s_tim1.c$1277$1_0$472        stm8s_tim1
     00009328  G$TIM1_OC4PreloadConfig$0$0        stm8s_tim1
     00009328  _TIM1_OC4PreloadConfig             stm8s_tim1
     0000932A  A$stm8s_tim1STM8S_StdPeriph_Lib/   stm8s_tim1
     0000932C  A$stm8s_tim1STM8S_StdPeriph_Lib/   stm8s_tim1
     0000932C  C$stm8s_tim1.c$1279$2_0$473        stm8s_tim1
     00009330  A$stm8s_tim1STM8S_StdPeriph_Lib/   stm8s_tim1
     00009332  A$stm8s_tim1STM8S_StdPeriph_Lib/   stm8s_tim1
     00009332  C$stm8s_tim1.c$1283$2_0$474        stm8s_tim1
     00009336  A$stm8s_tim1STM8S_StdPeriph_Lib/   stm8s_tim1
     00009336  C$stm8s_tim1.c$1285$1_0$472        stm8s_tim1
     00009336  XG$TIM1_OC4PreloadConfig$0$0       stm8s_tim1
     00009337  A$stm8s_tim1STM8S_StdPeriph_Lib/   stm8s_tim1
     00009337  C$stm8s_tim1.c$1293$1_0$476        stm8s_tim1
     00009337  C$stm8s_tim1.c$1299$1_0$476        stm8s_tim1
     00009337  G$TIM1_OC1FastConfig$0$0           stm8s_tim1
     00009337  _TIM1_OC1FastConfig                stm8s_tim1
     00009339  A$stm8s_tim1STM8S_StdPeriph_Lib/   stm8s_tim1
     0000933B  A$stm8s_tim1STM8S_StdPeriph_Lib/   stm8s_tim1
     0000933B  C$stm8s_tim1.c$1301$2_0$477        stm8s_tim1
     0000933F  A$stm8s_tim1STM8S_StdPeriph_Lib/   stm8s_tim1
     00009341  A$stm8s_tim1STM8S_StdPeriph_Lib/   stm8s_tim1
     00009341  C$stm8s_tim1.c$1305$2_0$478        stm8s_tim1
     00009345  A$stm8s_tim1STM8S_StdPeriph_Lib/   stm8s_tim1
     00009345  C$stm8s_tim1.c$1307$1_0$476        stm8s_tim1
     00009345  XG$TIM1_OC1FastConfig$0$0          stm8s_tim1
     00009346  A$stm8s_tim1STM8S_StdPeriph_Lib/   stm8s_tim1
     00009346  C$stm8s_tim1.c$1315$1_0$480        stm8s_tim1
     00009346  C$stm8s_tim1.c$1321$1_0$480        stm8s_tim1
     00009346  G$TIM1_OC2FastConfig$0$0           stm8s_tim1
     00009346  _TIM1_OC2FastConfig                stm8s_tim1
ASxxxx Linker V03.00 + NoICE + sdld,  page 77.
Hexadecimal  [32-Bits]

Area                                    Addr        Size        Decimal Bytes (Attributes)
--------------------------------        ----        ----        ------- ----- ------------
CODE                                000082B4    0000592D =       22829. bytes (REL,CON)

      Value  Global                              Global Defined In Module
      -----  --------------------------------   ------------------------
     00009348  A$stm8s_tim1STM8S_StdPeriph_Lib/   stm8s_tim1
     0000934A  A$stm8s_tim1STM8S_StdPeriph_Lib/   stm8s_tim1
     0000934A  C$stm8s_tim1.c$1323$2_0$481        stm8s_tim1
     0000934E  A$stm8s_tim1STM8S_StdPeriph_Lib/   stm8s_tim1
     00009350  A$stm8s_tim1STM8S_StdPeriph_Lib/   stm8s_tim1
     00009350  C$stm8s_tim1.c$1327$2_0$482        stm8s_tim1
     00009354  A$stm8s_tim1STM8S_StdPeriph_Lib/   stm8s_tim1
     00009354  C$stm8s_tim1.c$1329$1_0$480        stm8s_tim1
     00009354  XG$TIM1_OC2FastConfig$0$0          stm8s_tim1
     00009355  A$stm8s_tim1STM8S_StdPeriph_Lib/   stm8s_tim1
     00009355  C$stm8s_tim1.c$1337$1_0$484        stm8s_tim1
     00009355  C$stm8s_tim1.c$1343$1_0$484        stm8s_tim1
     00009355  G$TIM1_OC3FastConfig$0$0           stm8s_tim1
     00009355  _TIM1_OC3FastConfig                stm8s_tim1
     00009357  A$stm8s_tim1STM8S_StdPeriph_Lib/   stm8s_tim1
     00009359  A$stm8s_tim1STM8S_StdPeriph_Lib/   stm8s_tim1
     00009359  C$stm8s_tim1.c$1345$2_0$485        stm8s_tim1
     0000935D  A$stm8s_tim1STM8S_StdPeriph_Lib/   stm8s_tim1
     0000935F  A$stm8s_tim1STM8S_StdPeriph_Lib/   stm8s_tim1
     0000935F  C$stm8s_tim1.c$1349$2_0$486        stm8s_tim1
     00009363  A$stm8s_tim1STM8S_StdPeriph_Lib/   stm8s_tim1
     00009363  C$stm8s_tim1.c$1351$1_0$484        stm8s_tim1
     00009363  XG$TIM1_OC3FastConfig$0$0          stm8s_tim1
     00009364  A$stm8s_tim1STM8S_StdPeriph_Lib/   stm8s_tim1
     00009364  C$stm8s_tim1.c$1359$1_0$488        stm8s_tim1
     00009364  C$stm8s_tim1.c$1365$1_0$488        stm8s_tim1
     00009364  G$TIM1_OC4FastConfig$0$0           stm8s_tim1
     00009364  _TIM1_OC4FastConfig                stm8s_tim1
     00009366  A$stm8s_tim1STM8S_StdPeriph_Lib/   stm8s_tim1
     00009368  A$stm8s_tim1STM8S_StdPeriph_Lib/   stm8s_tim1
     00009368  C$stm8s_tim1.c$1367$2_0$489        stm8s_tim1
     0000936C  A$stm8s_tim1STM8S_StdPeriph_Lib/   stm8s_tim1
     0000936E  A$stm8s_tim1STM8S_StdPeriph_Lib/   stm8s_tim1
     0000936E  C$stm8s_tim1.c$1371$2_0$490        stm8s_tim1
     00009372  A$stm8s_tim1STM8S_StdPeriph_Lib/   stm8s_tim1
     00009372  C$stm8s_tim1.c$1373$1_0$488        stm8s_tim1
     00009372  XG$TIM1_OC4FastConfig$0$0          stm8s_tim1
     00009373  A$stm8s_tim1STM8S_StdPeriph_Lib/   stm8s_tim1
     00009373  C$stm8s_tim1.c$1389$1_0$492        stm8s_tim1
     00009373  C$stm8s_tim1.c$1395$1_0$492        stm8s_tim1
     00009373  G$TIM1_GenerateEvent$0$0           stm8s_tim1
     00009373  _TIM1_GenerateEvent                stm8s_tim1
     00009376  A$stm8s_tim1STM8S_StdPeriph_Lib/   stm8s_tim1
     00009378  A$stm8s_tim1STM8S_StdPeriph_Lib/   stm8s_tim1
     00009379  A$stm8s_tim1STM8S_StdPeriph_Lib/   stm8s_tim1
     00009379  C$stm8s_tim1.c$1396$1_0$492        stm8s_tim1
     00009379  XG$TIM1_GenerateEvent$0$0          stm8s_tim1
     0000937A  A$stm8s_tim1STM8S_StdPeriph_Lib/   stm8s_tim1
     0000937A  C$stm8s_tim1.c$1406$1_0$494        stm8s_tim1
     0000937A  C$stm8s_tim1.c$1412$1_0$494        stm8s_tim1
     0000937A  G$TIM1_OC1PolarityConfig$0$0       stm8s_tim1
ASxxxx Linker V03.00 + NoICE + sdld,  page 78.
Hexadecimal  [32-Bits]

Area                                    Addr        Size        Decimal Bytes (Attributes)
--------------------------------        ----        ----        ------- ----- ------------
CODE                                000082B4    0000592D =       22829. bytes (REL,CON)

      Value  Global                              Global Defined In Module
      -----  --------------------------------   ------------------------
     0000937A  _TIM1_OC1PolarityConfig            stm8s_tim1
     0000937C  A$stm8s_tim1STM8S_StdPeriph_Lib/   stm8s_tim1
     0000937E  A$stm8s_tim1STM8S_StdPeriph_Lib/   stm8s_tim1
     0000937E  C$stm8s_tim1.c$1414$2_0$495        stm8s_tim1
     00009382  A$stm8s_tim1STM8S_StdPeriph_Lib/   stm8s_tim1
     00009384  A$stm8s_tim1STM8S_StdPeriph_Lib/   stm8s_tim1
     00009384  C$stm8s_tim1.c$1418$2_0$496        stm8s_tim1
     00009388  A$stm8s_tim1STM8S_StdPeriph_Lib/   stm8s_tim1
     00009388  C$stm8s_tim1.c$1420$1_0$494        stm8s_tim1
     00009388  XG$TIM1_OC1PolarityConfig$0$0      stm8s_tim1
     00009389  A$stm8s_tim1STM8S_StdPeriph_Lib/   stm8s_tim1
     00009389  C$stm8s_tim1.c$1430$1_0$498        stm8s_tim1
     00009389  C$stm8s_tim1.c$1436$1_0$498        stm8s_tim1
     00009389  G$TIM1_OC1NPolarityConfig$0$0      stm8s_tim1
     00009389  _TIM1_OC1NPolarityConfig           stm8s_tim1
     0000938B  A$stm8s_tim1STM8S_StdPeriph_Lib/   stm8s_tim1
     0000938D  A$stm8s_tim1STM8S_StdPeriph_Lib/   stm8s_tim1
     0000938D  C$stm8s_tim1.c$1438$2_0$499        stm8s_tim1
     00009391  A$stm8s_tim1STM8S_StdPeriph_Lib/   stm8s_tim1
     00009393  A$stm8s_tim1STM8S_StdPeriph_Lib/   stm8s_tim1
     00009393  C$stm8s_tim1.c$1442$2_0$500        stm8s_tim1
     00009397  A$stm8s_tim1STM8S_StdPeriph_Lib/   stm8s_tim1
     00009397  C$stm8s_tim1.c$1444$1_0$498        stm8s_tim1
     00009397  XG$TIM1_OC1NPolarityConfig$0$0     stm8s_tim1
     00009398  A$stm8s_tim1STM8S_StdPeriph_Lib/   stm8s_tim1
     00009398  C$stm8s_tim1.c$1454$1_0$502        stm8s_tim1
     00009398  C$stm8s_tim1.c$1460$1_0$502        stm8s_tim1
     00009398  G$TIM1_OC2PolarityConfig$0$0       stm8s_tim1
     00009398  _TIM1_OC2PolarityConfig            stm8s_tim1
     0000939A  A$stm8s_tim1STM8S_StdPeriph_Lib/   stm8s_tim1
     0000939C  A$stm8s_tim1STM8S_StdPeriph_Lib/   stm8s_tim1
     0000939C  C$stm8s_tim1.c$1462$2_0$503        stm8s_tim1
     000093A0  A$stm8s_tim1STM8S_StdPeriph_Lib/   stm8s_tim1
     000093A2  A$stm8s_tim1STM8S_StdPeriph_Lib/   stm8s_tim1
     000093A2  C$stm8s_tim1.c$1466$2_0$504        stm8s_tim1
     000093A6  A$stm8s_tim1STM8S_StdPeriph_Lib/   stm8s_tim1
     000093A6  C$stm8s_tim1.c$1468$1_0$502        stm8s_tim1
     000093A6  XG$TIM1_OC2PolarityConfig$0$0      stm8s_tim1
     000093A7  A$stm8s_tim1STM8S_StdPeriph_Lib/   stm8s_tim1
     000093A7  C$stm8s_tim1.c$1478$1_0$506        stm8s_tim1
     000093A7  C$stm8s_tim1.c$1484$1_0$506        stm8s_tim1
     000093A7  G$TIM1_OC2NPolarityConfig$0$0      stm8s_tim1
     000093A7  _TIM1_OC2NPolarityConfig           stm8s_tim1
     000093A9  A$stm8s_tim1STM8S_StdPeriph_Lib/   stm8s_tim1
     000093AB  A$stm8s_tim1STM8S_StdPeriph_Lib/   stm8s_tim1
     000093AB  C$stm8s_tim1.c$1486$2_0$507        stm8s_tim1
     000093AF  A$stm8s_tim1STM8S_StdPeriph_Lib/   stm8s_tim1
     000093B1  A$stm8s_tim1STM8S_StdPeriph_Lib/   stm8s_tim1
     000093B1  C$stm8s_tim1.c$1490$2_0$508        stm8s_tim1
     000093B5  A$stm8s_tim1STM8S_StdPeriph_Lib/   stm8s_tim1
     000093B5  C$stm8s_tim1.c$1492$1_0$506        stm8s_tim1
ASxxxx Linker V03.00 + NoICE + sdld,  page 79.
Hexadecimal  [32-Bits]

Area                                    Addr        Size        Decimal Bytes (Attributes)
--------------------------------        ----        ----        ------- ----- ------------
CODE                                000082B4    0000592D =       22829. bytes (REL,CON)

      Value  Global                              Global Defined In Module
      -----  --------------------------------   ------------------------
     000093B5  XG$TIM1_OC2NPolarityConfig$0$0     stm8s_tim1
     000093B6  A$stm8s_tim1STM8S_StdPeriph_Lib/   stm8s_tim1
     000093B6  C$stm8s_tim1.c$1502$1_0$510        stm8s_tim1
     000093B6  C$stm8s_tim1.c$1508$1_0$510        stm8s_tim1
     000093B6  G$TIM1_OC3PolarityConfig$0$0       stm8s_tim1
     000093B6  _TIM1_OC3PolarityConfig            stm8s_tim1
     000093B8  A$stm8s_tim1STM8S_StdPeriph_Lib/   stm8s_tim1
     000093BA  A$stm8s_tim1STM8S_StdPeriph_Lib/   stm8s_tim1
     000093BA  C$stm8s_tim1.c$1510$2_0$511        stm8s_tim1
     000093BE  A$stm8s_tim1STM8S_StdPeriph_Lib/   stm8s_tim1
     000093C0  A$stm8s_tim1STM8S_StdPeriph_Lib/   stm8s_tim1
     000093C0  C$stm8s_tim1.c$1514$2_0$512        stm8s_tim1
     000093C4  A$stm8s_tim1STM8S_StdPeriph_Lib/   stm8s_tim1
     000093C4  C$stm8s_tim1.c$1516$1_0$510        stm8s_tim1
     000093C4  XG$TIM1_OC3PolarityConfig$0$0      stm8s_tim1
     000093C5  A$stm8s_tim1STM8S_StdPeriph_Lib/   stm8s_tim1
     000093C5  C$stm8s_tim1.c$1527$1_0$514        stm8s_tim1
     000093C5  C$stm8s_tim1.c$1533$1_0$514        stm8s_tim1
     000093C5  G$TIM1_OC3NPolarityConfig$0$0      stm8s_tim1
     000093C5  _TIM1_OC3NPolarityConfig           stm8s_tim1
     000093C7  A$stm8s_tim1STM8S_StdPeriph_Lib/   stm8s_tim1
     000093C9  A$stm8s_tim1STM8S_StdPeriph_Lib/   stm8s_tim1
     000093C9  C$stm8s_tim1.c$1535$2_0$515        stm8s_tim1
     000093CD  A$stm8s_tim1STM8S_StdPeriph_Lib/   stm8s_tim1
     000093CF  A$stm8s_tim1STM8S_StdPeriph_Lib/   stm8s_tim1
     000093CF  C$stm8s_tim1.c$1539$2_0$516        stm8s_tim1
     000093D3  A$stm8s_tim1STM8S_StdPeriph_Lib/   stm8s_tim1
     000093D3  C$stm8s_tim1.c$1541$1_0$514        stm8s_tim1
     000093D3  XG$TIM1_OC3NPolarityConfig$0$0     stm8s_tim1
     000093D4  A$stm8s_tim1STM8S_StdPeriph_Lib/   stm8s_tim1
     000093D4  C$stm8s_tim1.c$1551$1_0$518        stm8s_tim1
     000093D4  C$stm8s_tim1.c$1557$1_0$518        stm8s_tim1
     000093D4  G$TIM1_OC4PolarityConfig$0$0       stm8s_tim1
     000093D4  _TIM1_OC4PolarityConfig            stm8s_tim1
     000093D6  A$stm8s_tim1STM8S_StdPeriph_Lib/   stm8s_tim1
     000093D8  A$stm8s_tim1STM8S_StdPeriph_Lib/   stm8s_tim1
     000093D8  C$stm8s_tim1.c$1559$2_0$519        stm8s_tim1
     000093DC  A$stm8s_tim1STM8S_StdPeriph_Lib/   stm8s_tim1
     000093DE  A$stm8s_tim1STM8S_StdPeriph_Lib/   stm8s_tim1
     000093DE  C$stm8s_tim1.c$1563$2_0$520        stm8s_tim1
     000093E2  A$stm8s_tim1STM8S_StdPeriph_Lib/   stm8s_tim1
     000093E2  C$stm8s_tim1.c$1565$1_0$518        stm8s_tim1
     000093E2  XG$TIM1_OC4PolarityConfig$0$0      stm8s_tim1
     000093E3  A$stm8s_tim1STM8S_StdPeriph_Lib/   stm8s_tim1
     000093E3  C$stm8s_tim1.c$1579$1_0$522        stm8s_tim1
     000093E3  C$stm8s_tim1.c$1585$1_0$522        stm8s_tim1
     000093E3  G$TIM1_CCxCmd$0$0                  stm8s_tim1
     000093E3  _TIM1_CCxCmd                       stm8s_tim1
     000093E5  A$stm8s_tim1STM8S_StdPeriph_Lib/   stm8s_tim1
     000093E7  A$stm8s_tim1STM8S_StdPeriph_Lib/   stm8s_tim1
     000093E7  C$stm8s_tim1.c$1588$2_0$523        stm8s_tim1
ASxxxx Linker V03.00 + NoICE + sdld,  page 80.
Hexadecimal  [32-Bits]

Area                                    Addr        Size        Decimal Bytes (Attributes)
--------------------------------        ----        ----        ------- ----- ------------
CODE                                000082B4    0000592D =       22829. bytes (REL,CON)

      Value  Global                              Global Defined In Module
      -----  --------------------------------   ------------------------
     000093E9  A$stm8s_tim1STM8S_StdPeriph_Lib/   stm8s_tim1
     000093EB  A$stm8s_tim1STM8S_StdPeriph_Lib/   stm8s_tim1
     000093EB  C$stm8s_tim1.c$1590$3_0$524        stm8s_tim1
     000093EF  A$stm8s_tim1STM8S_StdPeriph_Lib/   stm8s_tim1
     000093F1  A$stm8s_tim1STM8S_StdPeriph_Lib/   stm8s_tim1
     000093F1  C$stm8s_tim1.c$1594$3_0$525        stm8s_tim1
     000093F5  A$stm8s_tim1STM8S_StdPeriph_Lib/   stm8s_tim1
     000093F7  A$stm8s_tim1STM8S_StdPeriph_Lib/   stm8s_tim1
     000093F7  C$stm8s_tim1.c$1598$1_0$522        stm8s_tim1
     000093F9  A$stm8s_tim1STM8S_StdPeriph_Lib/   stm8s_tim1
     000093FA  A$stm8s_tim1STM8S_StdPeriph_Lib/   stm8s_tim1
     000093FC  A$stm8s_tim1STM8S_StdPeriph_Lib/   stm8s_tim1
     000093FC  C$stm8s_tim1.c$1601$2_0$526        stm8s_tim1
     000093FE  A$stm8s_tim1STM8S_StdPeriph_Lib/   stm8s_tim1
     00009400  A$stm8s_tim1STM8S_StdPeriph_Lib/   stm8s_tim1
     00009400  C$stm8s_tim1.c$1603$3_0$527        stm8s_tim1
     00009404  A$stm8s_tim1STM8S_StdPeriph_Lib/   stm8s_tim1
     00009406  A$stm8s_tim1STM8S_StdPeriph_Lib/   stm8s_tim1
     00009406  C$stm8s_tim1.c$1607$3_0$528        stm8s_tim1
     0000940A  A$stm8s_tim1STM8S_StdPeriph_Lib/   stm8s_tim1
     0000940C  A$stm8s_tim1STM8S_StdPeriph_Lib/   stm8s_tim1
     0000940C  C$stm8s_tim1.c$1610$1_0$522        stm8s_tim1
     0000940E  A$stm8s_tim1STM8S_StdPeriph_Lib/   stm8s_tim1
     00009410  A$stm8s_tim1STM8S_StdPeriph_Lib/   stm8s_tim1
     00009412  A$stm8s_tim1STM8S_StdPeriph_Lib/   stm8s_tim1
     00009412  C$stm8s_tim1.c$1613$2_0$529        stm8s_tim1
     00009414  A$stm8s_tim1STM8S_StdPeriph_Lib/   stm8s_tim1
     00009416  A$stm8s_tim1STM8S_StdPeriph_Lib/   stm8s_tim1
     00009416  C$stm8s_tim1.c$1615$3_0$530        stm8s_tim1
     0000941A  A$stm8s_tim1STM8S_StdPeriph_Lib/   stm8s_tim1
     0000941C  A$stm8s_tim1STM8S_StdPeriph_Lib/   stm8s_tim1
     0000941C  C$stm8s_tim1.c$1619$3_0$531        stm8s_tim1
     00009420  A$stm8s_tim1STM8S_StdPeriph_Lib/   stm8s_tim1
     00009422  A$stm8s_tim1STM8S_StdPeriph_Lib/   stm8s_tim1
     00009422  C$stm8s_tim1.c$1625$2_0$532        stm8s_tim1
     00009424  A$stm8s_tim1STM8S_StdPeriph_Lib/   stm8s_tim1
     00009426  A$stm8s_tim1STM8S_StdPeriph_Lib/   stm8s_tim1
     00009426  C$stm8s_tim1.c$1627$3_0$533        stm8s_tim1
     0000942A  A$stm8s_tim1STM8S_StdPeriph_Lib/   stm8s_tim1
     0000942C  A$stm8s_tim1STM8S_StdPeriph_Lib/   stm8s_tim1
     0000942C  C$stm8s_tim1.c$1631$3_0$534        stm8s_tim1
     00009430  A$stm8s_tim1STM8S_StdPeriph_Lib/   stm8s_tim1
     00009430  C$stm8s_tim1.c$1634$1_0$522        stm8s_tim1
     00009430  XG$TIM1_CCxCmd$0$0                 stm8s_tim1
     00009431  A$stm8s_tim1STM8S_StdPeriph_Lib/   stm8s_tim1
     00009431  C$stm8s_tim1.c$1647$1_0$536        stm8s_tim1
     00009431  C$stm8s_tim1.c$1653$1_0$536        stm8s_tim1
     00009431  G$TIM1_CCxNCmd$0$0                 stm8s_tim1
     00009431  _TIM1_CCxNCmd                      stm8s_tim1
     00009433  A$stm8s_tim1STM8S_StdPeriph_Lib/   stm8s_tim1
     00009435  A$stm8s_tim1STM8S_StdPeriph_Lib/   stm8s_tim1
ASxxxx Linker V03.00 + NoICE + sdld,  page 81.
Hexadecimal  [32-Bits]

Area                                    Addr        Size        Decimal Bytes (Attributes)
--------------------------------        ----        ----        ------- ----- ------------
CODE                                000082B4    0000592D =       22829. bytes (REL,CON)

      Value  Global                              Global Defined In Module
      -----  --------------------------------   ------------------------
     00009435  C$stm8s_tim1.c$1656$2_0$537        stm8s_tim1
     00009437  A$stm8s_tim1STM8S_StdPeriph_Lib/   stm8s_tim1
     00009439  A$stm8s_tim1STM8S_StdPeriph_Lib/   stm8s_tim1
     00009439  C$stm8s_tim1.c$1658$3_0$538        stm8s_tim1
     0000943D  A$stm8s_tim1STM8S_StdPeriph_Lib/   stm8s_tim1
     0000943F  A$stm8s_tim1STM8S_StdPeriph_Lib/   stm8s_tim1
     0000943F  C$stm8s_tim1.c$1662$3_0$539        stm8s_tim1
     00009443  A$stm8s_tim1STM8S_StdPeriph_Lib/   stm8s_tim1
     00009445  A$stm8s_tim1STM8S_StdPeriph_Lib/   stm8s_tim1
     00009445  C$stm8s_tim1.c$1665$1_0$536        stm8s_tim1
     00009447  A$stm8s_tim1STM8S_StdPeriph_Lib/   stm8s_tim1
     00009448  A$stm8s_tim1STM8S_StdPeriph_Lib/   stm8s_tim1
     0000944A  A$stm8s_tim1STM8S_StdPeriph_Lib/   stm8s_tim1
     0000944A  C$stm8s_tim1.c$1668$2_0$540        stm8s_tim1
     0000944C  A$stm8s_tim1STM8S_StdPeriph_Lib/   stm8s_tim1
     0000944E  A$stm8s_tim1STM8S_StdPeriph_Lib/   stm8s_tim1
     0000944E  C$stm8s_tim1.c$1670$3_0$541        stm8s_tim1
     00009452  A$stm8s_tim1STM8S_StdPeriph_Lib/   stm8s_tim1
     00009454  A$stm8s_tim1STM8S_StdPeriph_Lib/   stm8s_tim1
     00009454  C$stm8s_tim1.c$1674$3_0$542        stm8s_tim1
     00009458  A$stm8s_tim1STM8S_StdPeriph_Lib/   stm8s_tim1
     0000945A  A$stm8s_tim1STM8S_StdPeriph_Lib/   stm8s_tim1
     0000945A  C$stm8s_tim1.c$1680$2_0$543        stm8s_tim1
     0000945C  A$stm8s_tim1STM8S_StdPeriph_Lib/   stm8s_tim1
     0000945E  A$stm8s_tim1STM8S_StdPeriph_Lib/   stm8s_tim1
     0000945E  C$stm8s_tim1.c$1682$3_0$544        stm8s_tim1
     00009462  A$stm8s_tim1STM8S_StdPeriph_Lib/   stm8s_tim1
     00009464  A$stm8s_tim1STM8S_StdPeriph_Lib/   stm8s_tim1
     00009464  C$stm8s_tim1.c$1686$3_0$545        stm8s_tim1
     00009468  A$stm8s_tim1STM8S_StdPeriph_Lib/   stm8s_tim1
     00009468  C$stm8s_tim1.c$1689$1_0$536        stm8s_tim1
     00009468  XG$TIM1_CCxNCmd$0$0                stm8s_tim1
     00009469  A$stm8s_tim1STM8S_StdPeriph_Lib/   stm8s_tim1
     00009469  C$stm8s_tim1.c$1712$1_0$547        stm8s_tim1
     00009469  C$stm8s_tim1.c$1718$1_0$547        stm8s_tim1
     00009469  G$TIM1_SelectOCxM$0$0              stm8s_tim1
     00009469  _TIM1_SelectOCxM                   stm8s_tim1
     0000946B  A$stm8s_tim1STM8S_StdPeriph_Lib/   stm8s_tim1
     0000946D  A$stm8s_tim1STM8S_StdPeriph_Lib/   stm8s_tim1
     0000946D  C$stm8s_tim1.c$1721$2_0$548        stm8s_tim1
     00009471  A$stm8s_tim1STM8S_StdPeriph_Lib/   stm8s_tim1
     00009471  C$stm8s_tim1.c$1724$2_0$548        stm8s_tim1
     00009474  A$stm8s_tim1STM8S_StdPeriph_Lib/   stm8s_tim1
     00009476  A$stm8s_tim1STM8S_StdPeriph_Lib/   stm8s_tim1
     00009476  C$stm8s_tim1.c$1725$2_0$548        stm8s_tim1
     00009478  A$stm8s_tim1STM8S_StdPeriph_Lib/   stm8s_tim1
     0000947B  A$stm8s_tim1STM8S_StdPeriph_Lib/   stm8s_tim1
     0000947D  A$stm8s_tim1STM8S_StdPeriph_Lib/   stm8s_tim1
     0000947D  C$stm8s_tim1.c$1727$1_0$547        stm8s_tim1
     0000947F  A$stm8s_tim1STM8S_StdPeriph_Lib/   stm8s_tim1
     00009480  A$stm8s_tim1STM8S_StdPeriph_Lib/   stm8s_tim1
ASxxxx Linker V03.00 + NoICE + sdld,  page 82.
Hexadecimal  [32-Bits]

Area                                    Addr        Size        Decimal Bytes (Attributes)
--------------------------------        ----        ----        ------- ----- ------------
CODE                                000082B4    0000592D =       22829. bytes (REL,CON)

      Value  Global                              Global Defined In Module
      -----  --------------------------------   ------------------------
     00009482  A$stm8s_tim1STM8S_StdPeriph_Lib/   stm8s_tim1
     00009482  C$stm8s_tim1.c$1730$2_0$549        stm8s_tim1
     00009486  A$stm8s_tim1STM8S_StdPeriph_Lib/   stm8s_tim1
     00009486  C$stm8s_tim1.c$1733$2_0$549        stm8s_tim1
     00009489  A$stm8s_tim1STM8S_StdPeriph_Lib/   stm8s_tim1
     0000948B  A$stm8s_tim1STM8S_StdPeriph_Lib/   stm8s_tim1
     0000948B  C$stm8s_tim1.c$1734$2_0$549        stm8s_tim1
     0000948D  A$stm8s_tim1STM8S_StdPeriph_Lib/   stm8s_tim1
     00009490  A$stm8s_tim1STM8S_StdPeriph_Lib/   stm8s_tim1
     00009492  A$stm8s_tim1STM8S_StdPeriph_Lib/   stm8s_tim1
     00009492  C$stm8s_tim1.c$1736$1_0$547        stm8s_tim1
     00009494  A$stm8s_tim1STM8S_StdPeriph_Lib/   stm8s_tim1
     00009496  A$stm8s_tim1STM8S_StdPeriph_Lib/   stm8s_tim1
     00009498  A$stm8s_tim1STM8S_StdPeriph_Lib/   stm8s_tim1
     00009498  C$stm8s_tim1.c$1739$2_0$550        stm8s_tim1
     0000949B  A$stm8s_tim1STM8S_StdPeriph_Lib/   stm8s_tim1
     0000949D  A$stm8s_tim1STM8S_StdPeriph_Lib/   stm8s_tim1
     000094A0  A$stm8s_tim1STM8S_StdPeriph_Lib/   stm8s_tim1
     000094A0  C$stm8s_tim1.c$1742$2_0$550        stm8s_tim1
     000094A3  A$stm8s_tim1STM8S_StdPeriph_Lib/   stm8s_tim1
     000094A5  A$stm8s_tim1STM8S_StdPeriph_Lib/   stm8s_tim1
     000094A5  C$stm8s_tim1.c$1743$2_0$550        stm8s_tim1
     000094A7  A$stm8s_tim1STM8S_StdPeriph_Lib/   stm8s_tim1
     000094AA  A$stm8s_tim1STM8S_StdPeriph_Lib/   stm8s_tim1
     000094AC  A$stm8s_tim1STM8S_StdPeriph_Lib/   stm8s_tim1
     000094AC  C$stm8s_tim1.c$1748$2_0$551        stm8s_tim1
     000094B0  A$stm8s_tim1STM8S_StdPeriph_Lib/   stm8s_tim1
     000094B0  C$stm8s_tim1.c$1751$2_0$551        stm8s_tim1
     000094B3  A$stm8s_tim1STM8S_StdPeriph_Lib/   stm8s_tim1
     000094B5  A$stm8s_tim1STM8S_StdPeriph_Lib/   stm8s_tim1
     000094B5  C$stm8s_tim1.c$1752$2_0$551        stm8s_tim1
     000094B7  A$stm8s_tim1STM8S_StdPeriph_Lib/   stm8s_tim1
     000094BA  A$stm8s_tim1STM8S_StdPeriph_Lib/   stm8s_tim1
     000094BA  C$stm8s_tim1.c$1754$1_0$547        stm8s_tim1
     000094BA  XG$TIM1_SelectOCxM$0$0             stm8s_tim1
     000094BB  A$stm8s_tim1STM8S_StdPeriph_Lib/   stm8s_tim1
     000094BB  C$stm8s_tim1.c$1762$1_0$553        stm8s_tim1
     000094BB  G$TIM1_SetCounter$0$0              stm8s_tim1
     000094BB  _TIM1_SetCounter                   stm8s_tim1
     000094BD  A$stm8s_tim1STM8S_StdPeriph_Lib/   stm8s_tim1
     000094BD  C$stm8s_tim1.c$1765$1_0$553        stm8s_tim1
     000094BF  A$stm8s_tim1STM8S_StdPeriph_Lib/   stm8s_tim1
     000094C1  A$stm8s_tim1STM8S_StdPeriph_Lib/   stm8s_tim1
     000094C3  A$stm8s_tim1STM8S_StdPeriph_Lib/   stm8s_tim1
     000094C5  A$stm8s_tim1STM8S_StdPeriph_Lib/   stm8s_tim1
     000094C8  A$stm8s_tim1STM8S_StdPeriph_Lib/   stm8s_tim1
     000094C8  C$stm8s_tim1.c$1766$1_0$553        stm8s_tim1
     000094CA  A$stm8s_tim1STM8S_StdPeriph_Lib/   stm8s_tim1
     000094CD  A$stm8s_tim1STM8S_StdPeriph_Lib/   stm8s_tim1
     000094CF  A$stm8s_tim1STM8S_StdPeriph_Lib/   stm8s_tim1
     000094CF  C$stm8s_tim1.c$1767$1_0$553        stm8s_tim1
ASxxxx Linker V03.00 + NoICE + sdld,  page 83.
Hexadecimal  [32-Bits]

Area                                    Addr        Size        Decimal Bytes (Attributes)
--------------------------------        ----        ----        ------- ----- ------------
CODE                                000082B4    0000592D =       22829. bytes (REL,CON)

      Value  Global                              Global Defined In Module
      -----  --------------------------------   ------------------------
     000094CF  XG$TIM1_SetCounter$0$0             stm8s_tim1
     000094D0  A$stm8s_tim1STM8S_StdPeriph_Lib/   stm8s_tim1
     000094D0  C$stm8s_tim1.c$1775$1_0$555        stm8s_tim1
     000094D0  G$TIM1_SetAutoreload$0$0           stm8s_tim1
     000094D0  _TIM1_SetAutoreload                stm8s_tim1
     000094D2  A$stm8s_tim1STM8S_StdPeriph_Lib/   stm8s_tim1
     000094D2  C$stm8s_tim1.c$1778$1_0$555        stm8s_tim1
     000094D4  A$stm8s_tim1STM8S_StdPeriph_Lib/   stm8s_tim1
     000094D6  A$stm8s_tim1STM8S_StdPeriph_Lib/   stm8s_tim1
     000094D8  A$stm8s_tim1STM8S_StdPeriph_Lib/   stm8s_tim1
     000094DA  A$stm8s_tim1STM8S_StdPeriph_Lib/   stm8s_tim1
     000094DD  A$stm8s_tim1STM8S_StdPeriph_Lib/   stm8s_tim1
     000094DD  C$stm8s_tim1.c$1779$1_0$555        stm8s_tim1
     000094DF  A$stm8s_tim1STM8S_StdPeriph_Lib/   stm8s_tim1
     000094E2  A$stm8s_tim1STM8S_StdPeriph_Lib/   stm8s_tim1
     000094E4  A$stm8s_tim1STM8S_StdPeriph_Lib/   stm8s_tim1
     000094E4  C$stm8s_tim1.c$1780$1_0$555        stm8s_tim1
     000094E4  XG$TIM1_SetAutoreload$0$0          stm8s_tim1
     000094E5  A$stm8s_tim1STM8S_StdPeriph_Lib/   stm8s_tim1
     000094E5  C$stm8s_tim1.c$1788$1_0$557        stm8s_tim1
     000094E5  G$TIM1_SetCompare1$0$0             stm8s_tim1
     000094E5  _TIM1_SetCompare1                  stm8s_tim1
     000094E7  A$stm8s_tim1STM8S_StdPeriph_Lib/   stm8s_tim1
     000094E7  C$stm8s_tim1.c$1791$1_0$557        stm8s_tim1
     000094E9  A$stm8s_tim1STM8S_StdPeriph_Lib/   stm8s_tim1
     000094EB  A$stm8s_tim1STM8S_StdPeriph_Lib/   stm8s_tim1
     000094ED  A$stm8s_tim1STM8S_StdPeriph_Lib/   stm8s_tim1
     000094EF  A$stm8s_tim1STM8S_StdPeriph_Lib/   stm8s_tim1
     000094F2  A$stm8s_tim1STM8S_StdPeriph_Lib/   stm8s_tim1
     000094F2  C$stm8s_tim1.c$1792$1_0$557        stm8s_tim1
     000094F4  A$stm8s_tim1STM8S_StdPeriph_Lib/   stm8s_tim1
     000094F7  A$stm8s_tim1STM8S_StdPeriph_Lib/   stm8s_tim1
     000094F9  A$stm8s_tim1STM8S_StdPeriph_Lib/   stm8s_tim1
     000094F9  C$stm8s_tim1.c$1793$1_0$557        stm8s_tim1
     000094F9  XG$TIM1_SetCompare1$0$0            stm8s_tim1
     000094FA  A$stm8s_tim1STM8S_StdPeriph_Lib/   stm8s_tim1
     000094FA  C$stm8s_tim1.c$1801$1_0$559        stm8s_tim1
     000094FA  G$TIM1_SetCompare2$0$0             stm8s_tim1
     000094FA  _TIM1_SetCompare2                  stm8s_tim1
     000094FC  A$stm8s_tim1STM8S_StdPeriph_Lib/   stm8s_tim1
     000094FC  C$stm8s_tim1.c$1804$1_0$559        stm8s_tim1
     000094FE  A$stm8s_tim1STM8S_StdPeriph_Lib/   stm8s_tim1
     00009500  A$stm8s_tim1STM8S_StdPeriph_Lib/   stm8s_tim1
     00009502  A$stm8s_tim1STM8S_StdPeriph_Lib/   stm8s_tim1
     00009504  A$stm8s_tim1STM8S_StdPeriph_Lib/   stm8s_tim1
     00009507  A$stm8s_tim1STM8S_StdPeriph_Lib/   stm8s_tim1
     00009507  C$stm8s_tim1.c$1805$1_0$559        stm8s_tim1
     00009509  A$stm8s_tim1STM8S_StdPeriph_Lib/   stm8s_tim1
     0000950C  A$stm8s_tim1STM8S_StdPeriph_Lib/   stm8s_tim1
     0000950E  A$stm8s_tim1STM8S_StdPeriph_Lib/   stm8s_tim1
     0000950E  C$stm8s_tim1.c$1806$1_0$559        stm8s_tim1
ASxxxx Linker V03.00 + NoICE + sdld,  page 84.
Hexadecimal  [32-Bits]

Area                                    Addr        Size        Decimal Bytes (Attributes)
--------------------------------        ----        ----        ------- ----- ------------
CODE                                000082B4    0000592D =       22829. bytes (REL,CON)

      Value  Global                              Global Defined In Module
      -----  --------------------------------   ------------------------
     0000950E  XG$TIM1_SetCompare2$0$0            stm8s_tim1
     0000950F  A$stm8s_tim1STM8S_StdPeriph_Lib/   stm8s_tim1
     0000950F  C$stm8s_tim1.c$1814$1_0$561        stm8s_tim1
     0000950F  G$TIM1_SetCompare3$0$0             stm8s_tim1
     0000950F  _TIM1_SetCompare3                  stm8s_tim1
     00009511  A$stm8s_tim1STM8S_StdPeriph_Lib/   stm8s_tim1
     00009511  C$stm8s_tim1.c$1817$1_0$561        stm8s_tim1
     00009513  A$stm8s_tim1STM8S_StdPeriph_Lib/   stm8s_tim1
     00009515  A$stm8s_tim1STM8S_StdPeriph_Lib/   stm8s_tim1
     00009517  A$stm8s_tim1STM8S_StdPeriph_Lib/   stm8s_tim1
     00009519  A$stm8s_tim1STM8S_StdPeriph_Lib/   stm8s_tim1
     0000951C  A$stm8s_tim1STM8S_StdPeriph_Lib/   stm8s_tim1
     0000951C  C$stm8s_tim1.c$1818$1_0$561        stm8s_tim1
     0000951E  A$stm8s_tim1STM8S_StdPeriph_Lib/   stm8s_tim1
     00009521  A$stm8s_tim1STM8S_StdPeriph_Lib/   stm8s_tim1
     00009523  A$stm8s_tim1STM8S_StdPeriph_Lib/   stm8s_tim1
     00009523  C$stm8s_tim1.c$1819$1_0$561        stm8s_tim1
     00009523  XG$TIM1_SetCompare3$0$0            stm8s_tim1
     00009524  A$stm8s_tim1STM8S_StdPeriph_Lib/   stm8s_tim1
     00009524  C$stm8s_tim1.c$1827$1_0$563        stm8s_tim1
     00009524  G$TIM1_SetCompare4$0$0             stm8s_tim1
     00009524  _TIM1_SetCompare4                  stm8s_tim1
     00009526  A$stm8s_tim1STM8S_StdPeriph_Lib/   stm8s_tim1
     00009526  C$stm8s_tim1.c$1830$1_0$563        stm8s_tim1
     00009528  A$stm8s_tim1STM8S_StdPeriph_Lib/   stm8s_tim1
     0000952A  A$stm8s_tim1STM8S_StdPeriph_Lib/   stm8s_tim1
     0000952C  A$stm8s_tim1STM8S_StdPeriph_Lib/   stm8s_tim1
     0000952E  A$stm8s_tim1STM8S_StdPeriph_Lib/   stm8s_tim1
     00009531  A$stm8s_tim1STM8S_StdPeriph_Lib/   stm8s_tim1
     00009531  C$stm8s_tim1.c$1831$1_0$563        stm8s_tim1
     00009533  A$stm8s_tim1STM8S_StdPeriph_Lib/   stm8s_tim1
     00009536  A$stm8s_tim1STM8S_StdPeriph_Lib/   stm8s_tim1
     00009538  A$stm8s_tim1STM8S_StdPeriph_Lib/   stm8s_tim1
     00009538  C$stm8s_tim1.c$1832$1_0$563        stm8s_tim1
     00009538  XG$TIM1_SetCompare4$0$0            stm8s_tim1
     00009539  A$stm8s_tim1STM8S_StdPeriph_Lib/   stm8s_tim1
     00009539  C$stm8s_tim1.c$1844$1_0$565        stm8s_tim1
     00009539  C$stm8s_tim1.c$1850$1_0$565        stm8s_tim1
     00009539  G$TIM1_SetIC1Prescaler$0$0         stm8s_tim1
     00009539  _TIM1_SetIC1Prescaler              stm8s_tim1
     0000953C  A$stm8s_tim1STM8S_StdPeriph_Lib/   stm8s_tim1
     0000953E  A$stm8s_tim1STM8S_StdPeriph_Lib/   stm8s_tim1
     0000953E  C$stm8s_tim1.c$1851$1_0$565        stm8s_tim1
     00009540  A$stm8s_tim1STM8S_StdPeriph_Lib/   stm8s_tim1
     00009543  A$stm8s_tim1STM8S_StdPeriph_Lib/   stm8s_tim1
     00009543  C$stm8s_tim1.c$1852$1_0$565        stm8s_tim1
     00009543  XG$TIM1_SetIC1Prescaler$0$0        stm8s_tim1
     00009544  A$stm8s_tim1STM8S_StdPeriph_Lib/   stm8s_tim1
     00009544  C$stm8s_tim1.c$1864$1_0$567        stm8s_tim1
     00009544  C$stm8s_tim1.c$1871$1_0$567        stm8s_tim1
     00009544  G$TIM1_SetIC2Prescaler$0$0         stm8s_tim1
ASxxxx Linker V03.00 + NoICE + sdld,  page 85.
Hexadecimal  [32-Bits]

Area                                    Addr        Size        Decimal Bytes (Attributes)
--------------------------------        ----        ----        ------- ----- ------------
CODE                                000082B4    0000592D =       22829. bytes (REL,CON)

      Value  Global                              Global Defined In Module
      -----  --------------------------------   ------------------------
     00009544  _TIM1_SetIC2Prescaler              stm8s_tim1
     00009547  A$stm8s_tim1STM8S_StdPeriph_Lib/   stm8s_tim1
     00009549  A$stm8s_tim1STM8S_StdPeriph_Lib/   stm8s_tim1
     00009549  C$stm8s_tim1.c$1872$1_0$567        stm8s_tim1
     0000954B  A$stm8s_tim1STM8S_StdPeriph_Lib/   stm8s_tim1
     0000954E  A$stm8s_tim1STM8S_StdPeriph_Lib/   stm8s_tim1
     0000954E  C$stm8s_tim1.c$1873$1_0$567        stm8s_tim1
     0000954E  XG$TIM1_SetIC2Prescaler$0$0        stm8s_tim1
     0000954F  A$stm8s_tim1STM8S_StdPeriph_Lib/   stm8s_tim1
     0000954F  C$stm8s_tim1.c$1885$1_0$569        stm8s_tim1
     0000954F  C$stm8s_tim1.c$1892$1_0$569        stm8s_tim1
     0000954F  G$TIM1_SetIC3Prescaler$0$0         stm8s_tim1
     0000954F  _TIM1_SetIC3Prescaler              stm8s_tim1
     00009552  A$stm8s_tim1STM8S_StdPeriph_Lib/   stm8s_tim1
     00009554  A$stm8s_tim1STM8S_StdPeriph_Lib/   stm8s_tim1
     00009554  C$stm8s_tim1.c$1893$1_0$569        stm8s_tim1
     00009556  A$stm8s_tim1STM8S_StdPeriph_Lib/   stm8s_tim1
     00009559  A$stm8s_tim1STM8S_StdPeriph_Lib/   stm8s_tim1
     00009559  C$stm8s_tim1.c$1894$1_0$569        stm8s_tim1
     00009559  XG$TIM1_SetIC3Prescaler$0$0        stm8s_tim1
     0000955A  A$stm8s_tim1STM8S_StdPeriph_Lib/   stm8s_tim1
     0000955A  C$stm8s_tim1.c$1906$1_0$571        stm8s_tim1
     0000955A  C$stm8s_tim1.c$1913$1_0$571        stm8s_tim1
     0000955A  G$TIM1_SetIC4Prescaler$0$0         stm8s_tim1
     0000955A  _TIM1_SetIC4Prescaler              stm8s_tim1
     0000955D  A$stm8s_tim1STM8S_StdPeriph_Lib/   stm8s_tim1
     0000955F  A$stm8s_tim1STM8S_StdPeriph_Lib/   stm8s_tim1
     0000955F  C$stm8s_tim1.c$1914$1_0$571        stm8s_tim1
     00009561  A$stm8s_tim1STM8S_StdPeriph_Lib/   stm8s_tim1
     00009564  A$stm8s_tim1STM8S_StdPeriph_Lib/   stm8s_tim1
     00009564  C$stm8s_tim1.c$1915$1_0$571        stm8s_tim1
     00009564  XG$TIM1_SetIC4Prescaler$0$0        stm8s_tim1
     00009565  A$stm8s_tim1STM8S_StdPeriph_Lib/   stm8s_tim1
     00009565  C$stm8s_tim1.c$1922$1_0$573        stm8s_tim1
     00009565  G$TIM1_GetCapture1$0$0             stm8s_tim1
     00009565  _TIM1_GetCapture1                  stm8s_tim1
     00009567  A$stm8s_tim1STM8S_StdPeriph_Lib/   stm8s_tim1
     00009567  C$stm8s_tim1.c$1929$1_0$573        stm8s_tim1
     0000956A  A$stm8s_tim1STM8S_StdPeriph_Lib/   stm8s_tim1
     0000956B  A$stm8s_tim1STM8S_StdPeriph_Lib/   stm8s_tim1
     0000956B  C$stm8s_tim1.c$1930$1_0$573        stm8s_tim1
     0000956E  A$stm8s_tim1STM8S_StdPeriph_Lib/   stm8s_tim1
     0000956E  C$stm8s_tim1.c$1932$1_0$573        stm8s_tim1
     0000956F  A$stm8s_tim1STM8S_StdPeriph_Lib/   stm8s_tim1
     00009570  A$stm8s_tim1STM8S_StdPeriph_Lib/   stm8s_tim1
     00009570  C$stm8s_tim1.c$1933$1_0$573        stm8s_tim1
     00009572  A$stm8s_tim1STM8S_StdPeriph_Lib/   stm8s_tim1
     00009573  A$stm8s_tim1STM8S_StdPeriph_Lib/   stm8s_tim1
     00009575  A$stm8s_tim1STM8S_StdPeriph_Lib/   stm8s_tim1
     00009576  A$stm8s_tim1STM8S_StdPeriph_Lib/   stm8s_tim1
     00009577  A$stm8s_tim1STM8S_StdPeriph_Lib/   stm8s_tim1
ASxxxx Linker V03.00 + NoICE + sdld,  page 86.
Hexadecimal  [32-Bits]

Area                                    Addr        Size        Decimal Bytes (Attributes)
--------------------------------        ----        ----        ------- ----- ------------
CODE                                000082B4    0000592D =       22829. bytes (REL,CON)

      Value  Global                              Global Defined In Module
      -----  --------------------------------   ------------------------
     00009579  A$stm8s_tim1STM8S_StdPeriph_Lib/   stm8s_tim1
     0000957A  A$stm8s_tim1STM8S_StdPeriph_Lib/   stm8s_tim1
     0000957A  C$stm8s_tim1.c$1935$1_0$573        stm8s_tim1
     0000957C  A$stm8s_tim1STM8S_StdPeriph_Lib/   stm8s_tim1
     0000957C  C$stm8s_tim1.c$1936$1_0$573        stm8s_tim1
     0000957C  XG$TIM1_GetCapture1$0$0            stm8s_tim1
     0000957D  A$stm8s_tim1STM8S_StdPeriph_Lib/   stm8s_tim1
     0000957D  C$stm8s_tim1.c$1943$1_0$575        stm8s_tim1
     0000957D  G$TIM1_GetCapture2$0$0             stm8s_tim1
     0000957D  _TIM1_GetCapture2                  stm8s_tim1
     0000957F  A$stm8s_tim1STM8S_StdPeriph_Lib/   stm8s_tim1
     0000957F  C$stm8s_tim1.c$1950$1_0$575        stm8s_tim1
     00009582  A$stm8s_tim1STM8S_StdPeriph_Lib/   stm8s_tim1
     00009583  A$stm8s_tim1STM8S_StdPeriph_Lib/   stm8s_tim1
     00009583  C$stm8s_tim1.c$1951$1_0$575        stm8s_tim1
     00009586  A$stm8s_tim1STM8S_StdPeriph_Lib/   stm8s_tim1
     00009586  C$stm8s_tim1.c$1953$1_0$575        stm8s_tim1
     00009587  A$stm8s_tim1STM8S_StdPeriph_Lib/   stm8s_tim1
     00009588  A$stm8s_tim1STM8S_StdPeriph_Lib/   stm8s_tim1
     00009588  C$stm8s_tim1.c$1954$1_0$575        stm8s_tim1
     0000958A  A$stm8s_tim1STM8S_StdPeriph_Lib/   stm8s_tim1
     0000958B  A$stm8s_tim1STM8S_StdPeriph_Lib/   stm8s_tim1
     0000958D  A$stm8s_tim1STM8S_StdPeriph_Lib/   stm8s_tim1
     0000958E  A$stm8s_tim1STM8S_StdPeriph_Lib/   stm8s_tim1
     0000958F  A$stm8s_tim1STM8S_StdPeriph_Lib/   stm8s_tim1
     00009591  A$stm8s_tim1STM8S_StdPeriph_Lib/   stm8s_tim1
     00009592  A$stm8s_tim1STM8S_StdPeriph_Lib/   stm8s_tim1
     00009592  C$stm8s_tim1.c$1956$1_0$575        stm8s_tim1
     00009594  A$stm8s_tim1STM8S_StdPeriph_Lib/   stm8s_tim1
     00009594  C$stm8s_tim1.c$1957$1_0$575        stm8s_tim1
     00009594  XG$TIM1_GetCapture2$0$0            stm8s_tim1
     00009595  A$stm8s_tim1STM8S_StdPeriph_Lib/   stm8s_tim1
     00009595  C$stm8s_tim1.c$1964$1_0$577        stm8s_tim1
     00009595  G$TIM1_GetCapture3$0$0             stm8s_tim1
     00009595  _TIM1_GetCapture3                  stm8s_tim1
     00009597  A$stm8s_tim1STM8S_StdPeriph_Lib/   stm8s_tim1
     00009597  C$stm8s_tim1.c$1970$1_0$577        stm8s_tim1
     0000959A  A$stm8s_tim1STM8S_StdPeriph_Lib/   stm8s_tim1
     0000959B  A$stm8s_tim1STM8S_StdPeriph_Lib/   stm8s_tim1
     0000959B  C$stm8s_tim1.c$1971$1_0$577        stm8s_tim1
     0000959E  A$stm8s_tim1STM8S_StdPeriph_Lib/   stm8s_tim1
     0000959E  C$stm8s_tim1.c$1973$1_0$577        stm8s_tim1
     0000959F  A$stm8s_tim1STM8S_StdPeriph_Lib/   stm8s_tim1
     000095A0  A$stm8s_tim1STM8S_StdPeriph_Lib/   stm8s_tim1
     000095A0  C$stm8s_tim1.c$1974$1_0$577        stm8s_tim1
     000095A2  A$stm8s_tim1STM8S_StdPeriph_Lib/   stm8s_tim1
     000095A3  A$stm8s_tim1STM8S_StdPeriph_Lib/   stm8s_tim1
     000095A5  A$stm8s_tim1STM8S_StdPeriph_Lib/   stm8s_tim1
     000095A6  A$stm8s_tim1STM8S_StdPeriph_Lib/   stm8s_tim1
     000095A7  A$stm8s_tim1STM8S_StdPeriph_Lib/   stm8s_tim1
     000095A9  A$stm8s_tim1STM8S_StdPeriph_Lib/   stm8s_tim1
ASxxxx Linker V03.00 + NoICE + sdld,  page 87.
Hexadecimal  [32-Bits]

Area                                    Addr        Size        Decimal Bytes (Attributes)
--------------------------------        ----        ----        ------- ----- ------------
CODE                                000082B4    0000592D =       22829. bytes (REL,CON)

      Value  Global                              Global Defined In Module
      -----  --------------------------------   ------------------------
     000095AA  A$stm8s_tim1STM8S_StdPeriph_Lib/   stm8s_tim1
     000095AA  C$stm8s_tim1.c$1976$1_0$577        stm8s_tim1
     000095AC  A$stm8s_tim1STM8S_StdPeriph_Lib/   stm8s_tim1
     000095AC  C$stm8s_tim1.c$1977$1_0$577        stm8s_tim1
     000095AC  XG$TIM1_GetCapture3$0$0            stm8s_tim1
     000095AD  A$stm8s_tim1STM8S_StdPeriph_Lib/   stm8s_tim1
     000095AD  C$stm8s_tim1.c$1984$1_0$579        stm8s_tim1
     000095AD  G$TIM1_GetCapture4$0$0             stm8s_tim1
     000095AD  _TIM1_GetCapture4                  stm8s_tim1
     000095AF  A$stm8s_tim1STM8S_StdPeriph_Lib/   stm8s_tim1
     000095AF  C$stm8s_tim1.c$1990$1_0$579        stm8s_tim1
     000095B2  A$stm8s_tim1STM8S_StdPeriph_Lib/   stm8s_tim1
     000095B3  A$stm8s_tim1STM8S_StdPeriph_Lib/   stm8s_tim1
     000095B3  C$stm8s_tim1.c$1991$1_0$579        stm8s_tim1
     000095B6  A$stm8s_tim1STM8S_StdPeriph_Lib/   stm8s_tim1
     000095B6  C$stm8s_tim1.c$1993$1_0$579        stm8s_tim1
     000095B7  A$stm8s_tim1STM8S_StdPeriph_Lib/   stm8s_tim1
     000095B8  A$stm8s_tim1STM8S_StdPeriph_Lib/   stm8s_tim1
     000095B8  C$stm8s_tim1.c$1994$1_0$579        stm8s_tim1
     000095BA  A$stm8s_tim1STM8S_StdPeriph_Lib/   stm8s_tim1
     000095BB  A$stm8s_tim1STM8S_StdPeriph_Lib/   stm8s_tim1
     000095BD  A$stm8s_tim1STM8S_StdPeriph_Lib/   stm8s_tim1
     000095BE  A$stm8s_tim1STM8S_StdPeriph_Lib/   stm8s_tim1
     000095BF  A$stm8s_tim1STM8S_StdPeriph_Lib/   stm8s_tim1
     000095C1  A$stm8s_tim1STM8S_StdPeriph_Lib/   stm8s_tim1
     000095C2  A$stm8s_tim1STM8S_StdPeriph_Lib/   stm8s_tim1
     000095C2  C$stm8s_tim1.c$1996$1_0$579        stm8s_tim1
     000095C4  A$stm8s_tim1STM8S_StdPeriph_Lib/   stm8s_tim1
     000095C4  C$stm8s_tim1.c$1997$1_0$579        stm8s_tim1
     000095C4  XG$TIM1_GetCapture4$0$0            stm8s_tim1
     000095C5  A$stm8s_tim1STM8S_StdPeriph_Lib/   stm8s_tim1
     000095C5  C$stm8s_tim1.c$2004$1_0$581        stm8s_tim1
     000095C5  G$TIM1_GetCounter$0$0              stm8s_tim1
     000095C5  _TIM1_GetCounter                   stm8s_tim1
     000095C7  A$stm8s_tim1STM8S_StdPeriph_Lib/   stm8s_tim1
     000095C7  C$stm8s_tim1.c$2008$1_0$581        stm8s_tim1
     000095CA  A$stm8s_tim1STM8S_StdPeriph_Lib/   stm8s_tim1
     000095CB  A$stm8s_tim1STM8S_StdPeriph_Lib/   stm8s_tim1
     000095CC  A$stm8s_tim1STM8S_StdPeriph_Lib/   stm8s_tim1
     000095CE  A$stm8s_tim1STM8S_StdPeriph_Lib/   stm8s_tim1
     000095CE  C$stm8s_tim1.c$2011$1_0$581        stm8s_tim1
     000095D1  A$stm8s_tim1STM8S_StdPeriph_Lib/   stm8s_tim1
     000095D3  A$stm8s_tim1STM8S_StdPeriph_Lib/   stm8s_tim1
     000095D5  A$stm8s_tim1STM8S_StdPeriph_Lib/   stm8s_tim1
     000095D7  A$stm8s_tim1STM8S_StdPeriph_Lib/   stm8s_tim1
     000095D9  A$stm8s_tim1STM8S_StdPeriph_Lib/   stm8s_tim1
     000095DA  A$stm8s_tim1STM8S_StdPeriph_Lib/   stm8s_tim1
     000095DC  A$stm8s_tim1STM8S_StdPeriph_Lib/   stm8s_tim1
     000095DD  A$stm8s_tim1STM8S_StdPeriph_Lib/   stm8s_tim1
     000095DF  A$stm8s_tim1STM8S_StdPeriph_Lib/   stm8s_tim1
     000095DF  C$stm8s_tim1.c$2012$1_0$581        stm8s_tim1
ASxxxx Linker V03.00 + NoICE + sdld,  page 88.
Hexadecimal  [32-Bits]

Area                                    Addr        Size        Decimal Bytes (Attributes)
--------------------------------        ----        ----        ------- ----- ------------
CODE                                000082B4    0000592D =       22829. bytes (REL,CON)

      Value  Global                              Global Defined In Module
      -----  --------------------------------   ------------------------
     000095DF  XG$TIM1_GetCounter$0$0             stm8s_tim1
     000095E0  A$stm8s_tim1STM8S_StdPeriph_Lib/   stm8s_tim1
     000095E0  C$stm8s_tim1.c$2019$1_0$583        stm8s_tim1
     000095E0  G$TIM1_GetPrescaler$0$0            stm8s_tim1
     000095E0  _TIM1_GetPrescaler                 stm8s_tim1
     000095E2  A$stm8s_tim1STM8S_StdPeriph_Lib/   stm8s_tim1
     000095E2  C$stm8s_tim1.c$2023$1_0$583        stm8s_tim1
     000095E5  A$stm8s_tim1STM8S_StdPeriph_Lib/   stm8s_tim1
     000095E6  A$stm8s_tim1STM8S_StdPeriph_Lib/   stm8s_tim1
     000095E7  A$stm8s_tim1STM8S_StdPeriph_Lib/   stm8s_tim1
     000095E9  A$stm8s_tim1STM8S_StdPeriph_Lib/   stm8s_tim1
     000095E9  C$stm8s_tim1.c$2026$1_0$583        stm8s_tim1
     000095EC  A$stm8s_tim1STM8S_StdPeriph_Lib/   stm8s_tim1
     000095EE  A$stm8s_tim1STM8S_StdPeriph_Lib/   stm8s_tim1
     000095F0  A$stm8s_tim1STM8S_StdPeriph_Lib/   stm8s_tim1
     000095F2  A$stm8s_tim1STM8S_StdPeriph_Lib/   stm8s_tim1
     000095F4  A$stm8s_tim1STM8S_StdPeriph_Lib/   stm8s_tim1
     000095F5  A$stm8s_tim1STM8S_StdPeriph_Lib/   stm8s_tim1
     000095F7  A$stm8s_tim1STM8S_StdPeriph_Lib/   stm8s_tim1
     000095F8  A$stm8s_tim1STM8S_StdPeriph_Lib/   stm8s_tim1
     000095FA  A$stm8s_tim1STM8S_StdPeriph_Lib/   stm8s_tim1
     000095FA  C$stm8s_tim1.c$2027$1_0$583        stm8s_tim1
     000095FA  XG$TIM1_GetPrescaler$0$0           stm8s_tim1
     000095FB  A$stm8s_tim1STM8S_StdPeriph_Lib/   stm8s_tim1
     000095FB  C$stm8s_tim1.c$2047$1_0$585        stm8s_tim1
     000095FB  G$TIM1_GetFlagStatus$0$0           stm8s_tim1
     000095FB  _TIM1_GetFlagStatus                stm8s_tim1
     000095FD  A$stm8s_tim1STM8S_StdPeriph_Lib/   stm8s_tim1
     000095FD  C$stm8s_tim1.c$2055$1_0$585        stm8s_tim1
     00009600  A$stm8s_tim1STM8S_StdPeriph_Lib/   stm8s_tim1
     00009602  A$stm8s_tim1STM8S_StdPeriph_Lib/   stm8s_tim1
     00009604  A$stm8s_tim1STM8S_StdPeriph_Lib/   stm8s_tim1
     00009606  A$stm8s_tim1STM8S_StdPeriph_Lib/   stm8s_tim1
     00009608  A$stm8s_tim1STM8S_StdPeriph_Lib/   stm8s_tim1
     00009608  C$stm8s_tim1.c$2056$1_0$585        stm8s_tim1
     0000960A  A$stm8s_tim1STM8S_StdPeriph_Lib/   stm8s_tim1
     0000960C  A$stm8s_tim1STM8S_StdPeriph_Lib/   stm8s_tim1
     0000960E  A$stm8s_tim1STM8S_StdPeriph_Lib/   stm8s_tim1
     0000960E  C$stm8s_tim1.c$2058$1_0$585        stm8s_tim1
     00009611  A$stm8s_tim1STM8S_StdPeriph_Lib/   stm8s_tim1
     00009613  A$stm8s_tim1STM8S_StdPeriph_Lib/   stm8s_tim1
     00009615  A$stm8s_tim1STM8S_StdPeriph_Lib/   stm8s_tim1
     00009617  A$stm8s_tim1STM8S_StdPeriph_Lib/   stm8s_tim1
     00009617  C$stm8s_tim1.c$2060$2_0$586        stm8s_tim1
     00009619  A$stm8s_tim1STM8S_StdPeriph_Lib/   stm8s_tim1
     0000961B  A$stm8s_tim1STM8S_StdPeriph_Lib/   stm8s_tim1
     0000961B  C$stm8s_tim1.c$2064$2_0$587        stm8s_tim1
     0000961C  A$stm8s_tim1STM8S_StdPeriph_Lib/   stm8s_tim1
     0000961C  C$stm8s_tim1.c$2066$1_0$585        stm8s_tim1
     0000961E  A$stm8s_tim1STM8S_StdPeriph_Lib/   stm8s_tim1
     0000961E  C$stm8s_tim1.c$2067$1_0$585        stm8s_tim1
ASxxxx Linker V03.00 + NoICE + sdld,  page 89.
Hexadecimal  [32-Bits]

Area                                    Addr        Size        Decimal Bytes (Attributes)
--------------------------------        ----        ----        ------- ----- ------------
CODE                                000082B4    0000592D =       22829. bytes (REL,CON)

      Value  Global                              Global Defined In Module
      -----  --------------------------------   ------------------------
     0000961E  XG$TIM1_GetFlagStatus$0$0          stm8s_tim1
     0000961F  A$stm8s_tim1STM8S_StdPeriph_Lib/   stm8s_tim1
     0000961F  C$stm8s_tim1.c$2087$1_0$589        stm8s_tim1
     0000961F  C$stm8s_tim1.c$2093$1_0$589        stm8s_tim1
     0000961F  G$TIM1_ClearFlag$0$0               stm8s_tim1
     0000961F  _TIM1_ClearFlag                    stm8s_tim1
     00009621  A$stm8s_tim1STM8S_StdPeriph_Lib/   stm8s_tim1
     00009622  A$stm8s_tim1STM8S_StdPeriph_Lib/   stm8s_tim1
     00009625  A$stm8s_tim1STM8S_StdPeriph_Lib/   stm8s_tim1
     00009625  C$stm8s_tim1.c$2094$1_0$589        stm8s_tim1
     00009627  A$stm8s_tim1STM8S_StdPeriph_Lib/   stm8s_tim1
     00009628  A$stm8s_tim1STM8S_StdPeriph_Lib/   stm8s_tim1
     0000962A  A$stm8s_tim1STM8S_StdPeriph_Lib/   stm8s_tim1
     0000962D  A$stm8s_tim1STM8S_StdPeriph_Lib/   stm8s_tim1
     0000962D  C$stm8s_tim1.c$2096$1_0$589        stm8s_tim1
     0000962D  XG$TIM1_ClearFlag$0$0              stm8s_tim1
     0000962E  A$stm8s_tim1STM8S_StdPeriph_Lib/   stm8s_tim1
     0000962E  C$stm8s_tim1.c$2112$1_0$591        stm8s_tim1
     0000962E  G$TIM1_GetITStatus$0$0             stm8s_tim1
     0000962E  _TIM1_GetITStatus                  stm8s_tim1
     0000962F  A$stm8s_tim1STM8S_StdPeriph_Lib/   stm8s_tim1
     0000962F  C$stm8s_tim1.c$2120$1_0$591        stm8s_tim1
     00009632  A$stm8s_tim1STM8S_StdPeriph_Lib/   stm8s_tim1
     00009634  A$stm8s_tim1STM8S_StdPeriph_Lib/   stm8s_tim1
     00009636  A$stm8s_tim1STM8S_StdPeriph_Lib/   stm8s_tim1
     00009636  C$stm8s_tim1.c$2122$1_0$591        stm8s_tim1
     00009639  A$stm8s_tim1STM8S_StdPeriph_Lib/   stm8s_tim1
     0000963B  A$stm8s_tim1STM8S_StdPeriph_Lib/   stm8s_tim1
     0000963B  C$stm8s_tim1.c$2124$1_0$591        stm8s_tim1
     0000963D  A$stm8s_tim1STM8S_StdPeriph_Lib/   stm8s_tim1
     0000963F  A$stm8s_tim1STM8S_StdPeriph_Lib/   stm8s_tim1
     00009640  A$stm8s_tim1STM8S_StdPeriph_Lib/   stm8s_tim1
     00009642  A$stm8s_tim1STM8S_StdPeriph_Lib/   stm8s_tim1
     00009642  C$stm8s_tim1.c$2126$2_0$592        stm8s_tim1
     00009644  A$stm8s_tim1STM8S_StdPeriph_Lib/   stm8s_tim1
     00009646  A$stm8s_tim1STM8S_StdPeriph_Lib/   stm8s_tim1
     00009646  C$stm8s_tim1.c$2130$2_0$593        stm8s_tim1
     00009647  A$stm8s_tim1STM8S_StdPeriph_Lib/   stm8s_tim1
     00009647  C$stm8s_tim1.c$2132$1_0$591        stm8s_tim1
     00009649  A$stm8s_tim1STM8S_StdPeriph_Lib/   stm8s_tim1
     00009649  C$stm8s_tim1.c$2133$1_0$591        stm8s_tim1
     00009649  XG$TIM1_GetITStatus$0$0            stm8s_tim1
     0000964A  A$stm8s_tim1STM8S_StdPeriph_Lib/   stm8s_tim1
     0000964A  C$stm8s_tim1.c$2149$1_0$595        stm8s_tim1
     0000964A  C$stm8s_tim1.c$2155$1_0$595        stm8s_tim1
     0000964A  G$TIM1_ClearITPendingBit$0$0       stm8s_tim1
     0000964A  _TIM1_ClearITPendingBit            stm8s_tim1
     0000964C  A$stm8s_tim1STM8S_StdPeriph_Lib/   stm8s_tim1
     0000964D  A$stm8s_tim1STM8S_StdPeriph_Lib/   stm8s_tim1
     00009650  A$stm8s_tim1STM8S_StdPeriph_Lib/   stm8s_tim1
     00009650  C$stm8s_tim1.c$2156$1_0$595        stm8s_tim1
ASxxxx Linker V03.00 + NoICE + sdld,  page 90.
Hexadecimal  [32-Bits]

Area                                    Addr        Size        Decimal Bytes (Attributes)
--------------------------------        ----        ----        ------- ----- ------------
CODE                                000082B4    0000592D =       22829. bytes (REL,CON)

      Value  Global                              Global Defined In Module
      -----  --------------------------------   ------------------------
     00009650  XG$TIM1_ClearITPendingBit$0$0      stm8s_tim1
     00009651  A$stm8s_tim1STM8S_StdPeriph_Lib/   stm8s_tim1
     00009651  C$stm8s_tim1.c$2174$1_0$597        stm8s_tim1
     00009651  Fstm8s_tim1$TI1_Config$0$0         stm8s_tim1
     00009652  A$stm8s_tim1STM8S_StdPeriph_Lib/   stm8s_tim1
     00009652  C$stm8s_tim1.c$2179$1_0$597        stm8s_tim1
     00009656  A$stm8s_tim1STM8S_StdPeriph_Lib/   stm8s_tim1
     00009656  C$stm8s_tim1.c$2182$1_0$597        stm8s_tim1
     00009659  A$stm8s_tim1STM8S_StdPeriph_Lib/   stm8s_tim1
     0000965B  A$stm8s_tim1STM8S_StdPeriph_Lib/   stm8s_tim1
     0000965D  A$stm8s_tim1STM8S_StdPeriph_Lib/   stm8s_tim1
     0000965D  C$stm8s_tim1.c$2183$1_0$597        stm8s_tim1
     0000965F  A$stm8s_tim1STM8S_StdPeriph_Lib/   stm8s_tim1
     00009660  A$stm8s_tim1STM8S_StdPeriph_Lib/   stm8s_tim1
     00009662  A$stm8s_tim1STM8S_StdPeriph_Lib/   stm8s_tim1
     00009664  A$stm8s_tim1STM8S_StdPeriph_Lib/   stm8s_tim1
     00009666  A$stm8s_tim1STM8S_StdPeriph_Lib/   stm8s_tim1
     00009669  A$stm8s_tim1STM8S_StdPeriph_Lib/   stm8s_tim1
     00009669  C$stm8s_tim1.c$2186$1_0$597        stm8s_tim1
     0000966B  A$stm8s_tim1STM8S_StdPeriph_Lib/   stm8s_tim1
     0000966D  A$stm8s_tim1STM8S_StdPeriph_Lib/   stm8s_tim1
     0000966D  C$stm8s_tim1.c$2188$2_0$598        stm8s_tim1
     00009671  A$stm8s_tim1STM8S_StdPeriph_Lib/   stm8s_tim1
     00009673  A$stm8s_tim1STM8S_StdPeriph_Lib/   stm8s_tim1
     00009673  C$stm8s_tim1.c$2192$2_0$599        stm8s_tim1
     00009677  A$stm8s_tim1STM8S_StdPeriph_Lib/   stm8s_tim1
     00009677  C$stm8s_tim1.c$2196$1_0$597        stm8s_tim1
     0000967B  A$stm8s_tim1STM8S_StdPeriph_Lib/   stm8s_tim1
     0000967C  A$stm8s_tim1STM8S_StdPeriph_Lib/   stm8s_tim1
     0000967C  C$stm8s_tim1.c$2197$1_0$597        stm8s_tim1
     0000967C  XFstm8s_tim1$TI1_Config$0$0        stm8s_tim1
     0000967D  A$stm8s_tim1STM8S_StdPeriph_Lib/   stm8s_tim1
     0000967D  C$stm8s_tim1.c$2215$1_0$601        stm8s_tim1
     0000967D  Fstm8s_tim1$TI2_Config$0$0         stm8s_tim1
     0000967E  A$stm8s_tim1STM8S_StdPeriph_Lib/   stm8s_tim1
     0000967E  C$stm8s_tim1.c$2220$1_0$601        stm8s_tim1
     00009682  A$stm8s_tim1STM8S_StdPeriph_Lib/   stm8s_tim1
     00009682  C$stm8s_tim1.c$2223$1_0$601        stm8s_tim1
     00009685  A$stm8s_tim1STM8S_StdPeriph_Lib/   stm8s_tim1
     00009687  A$stm8s_tim1STM8S_StdPeriph_Lib/   stm8s_tim1
     00009689  A$stm8s_tim1STM8S_StdPeriph_Lib/   stm8s_tim1
     00009689  C$stm8s_tim1.c$2224$1_0$601        stm8s_tim1
     0000968B  A$stm8s_tim1STM8S_StdPeriph_Lib/   stm8s_tim1
     0000968C  A$stm8s_tim1STM8S_StdPeriph_Lib/   stm8s_tim1
     0000968E  A$stm8s_tim1STM8S_StdPeriph_Lib/   stm8s_tim1
     00009690  A$stm8s_tim1STM8S_StdPeriph_Lib/   stm8s_tim1
     00009692  A$stm8s_tim1STM8S_StdPeriph_Lib/   stm8s_tim1
     00009695  A$stm8s_tim1STM8S_StdPeriph_Lib/   stm8s_tim1
     00009695  C$stm8s_tim1.c$2226$1_0$601        stm8s_tim1
     00009697  A$stm8s_tim1STM8S_StdPeriph_Lib/   stm8s_tim1
     00009699  A$stm8s_tim1STM8S_StdPeriph_Lib/   stm8s_tim1
ASxxxx Linker V03.00 + NoICE + sdld,  page 91.
Hexadecimal  [32-Bits]

Area                                    Addr        Size        Decimal Bytes (Attributes)
--------------------------------        ----        ----        ------- ----- ------------
CODE                                000082B4    0000592D =       22829. bytes (REL,CON)

      Value  Global                              Global Defined In Module
      -----  --------------------------------   ------------------------
     00009699  C$stm8s_tim1.c$2228$2_0$602        stm8s_tim1
     0000969D  A$stm8s_tim1STM8S_StdPeriph_Lib/   stm8s_tim1
     0000969F  A$stm8s_tim1STM8S_StdPeriph_Lib/   stm8s_tim1
     0000969F  C$stm8s_tim1.c$2232$2_0$603        stm8s_tim1
     000096A3  A$stm8s_tim1STM8S_StdPeriph_Lib/   stm8s_tim1
     000096A3  C$stm8s_tim1.c$2235$1_0$601        stm8s_tim1
     000096A7  A$stm8s_tim1STM8S_StdPeriph_Lib/   stm8s_tim1
     000096A8  A$stm8s_tim1STM8S_StdPeriph_Lib/   stm8s_tim1
     000096A8  C$stm8s_tim1.c$2236$1_0$601        stm8s_tim1
     000096A8  XFstm8s_tim1$TI2_Config$0$0        stm8s_tim1
     000096A9  A$stm8s_tim1STM8S_StdPeriph_Lib/   stm8s_tim1
     000096A9  C$stm8s_tim1.c$2254$1_0$605        stm8s_tim1
     000096A9  Fstm8s_tim1$TI3_Config$0$0         stm8s_tim1
     000096AA  A$stm8s_tim1STM8S_StdPeriph_Lib/   stm8s_tim1
     000096AA  C$stm8s_tim1.c$2259$1_0$605        stm8s_tim1
     000096AD  A$stm8s_tim1STM8S_StdPeriph_Lib/   stm8s_tim1
     000096AF  A$stm8s_tim1STM8S_StdPeriph_Lib/   stm8s_tim1
     000096B2  A$stm8s_tim1STM8S_StdPeriph_Lib/   stm8s_tim1
     000096B2  C$stm8s_tim1.c$2262$1_0$605        stm8s_tim1
     000096B5  A$stm8s_tim1STM8S_StdPeriph_Lib/   stm8s_tim1
     000096B7  A$stm8s_tim1STM8S_StdPeriph_Lib/   stm8s_tim1
     000096B9  A$stm8s_tim1STM8S_StdPeriph_Lib/   stm8s_tim1
     000096B9  C$stm8s_tim1.c$2263$1_0$605        stm8s_tim1
     000096BB  A$stm8s_tim1STM8S_StdPeriph_Lib/   stm8s_tim1
     000096BC  A$stm8s_tim1STM8S_StdPeriph_Lib/   stm8s_tim1
     000096BE  A$stm8s_tim1STM8S_StdPeriph_Lib/   stm8s_tim1
     000096C0  A$stm8s_tim1STM8S_StdPeriph_Lib/   stm8s_tim1
     000096C2  A$stm8s_tim1STM8S_StdPeriph_Lib/   stm8s_tim1
     000096C5  A$stm8s_tim1STM8S_StdPeriph_Lib/   stm8s_tim1
     000096C5  C$stm8s_tim1.c$2266$1_0$605        stm8s_tim1
     000096C7  A$stm8s_tim1STM8S_StdPeriph_Lib/   stm8s_tim1
     000096C9  A$stm8s_tim1STM8S_StdPeriph_Lib/   stm8s_tim1
     000096C9  C$stm8s_tim1.c$2268$2_0$606        stm8s_tim1
     000096CD  A$stm8s_tim1STM8S_StdPeriph_Lib/   stm8s_tim1
     000096CF  A$stm8s_tim1STM8S_StdPeriph_Lib/   stm8s_tim1
     000096CF  C$stm8s_tim1.c$2272$2_0$607        stm8s_tim1
     000096D3  A$stm8s_tim1STM8S_StdPeriph_Lib/   stm8s_tim1
     000096D3  C$stm8s_tim1.c$2275$1_0$605        stm8s_tim1
     000096D7  A$stm8s_tim1STM8S_StdPeriph_Lib/   stm8s_tim1
     000096D8  A$stm8s_tim1STM8S_StdPeriph_Lib/   stm8s_tim1
     000096D8  C$stm8s_tim1.c$2276$1_0$605        stm8s_tim1
     000096D8  XFstm8s_tim1$TI3_Config$0$0        stm8s_tim1
     000096D9  A$stm8s_tim1STM8S_StdPeriph_Lib/   stm8s_tim1
     000096D9  C$stm8s_tim1.c$2294$1_0$609        stm8s_tim1
     000096D9  Fstm8s_tim1$TI4_Config$0$0         stm8s_tim1
     000096DA  A$stm8s_tim1STM8S_StdPeriph_Lib/   stm8s_tim1
     000096DA  C$stm8s_tim1.c$2299$1_0$609        stm8s_tim1
     000096DE  A$stm8s_tim1STM8S_StdPeriph_Lib/   stm8s_tim1
     000096DE  C$stm8s_tim1.c$2302$1_0$609        stm8s_tim1
     000096E1  A$stm8s_tim1STM8S_StdPeriph_Lib/   stm8s_tim1
     000096E3  A$stm8s_tim1STM8S_StdPeriph_Lib/   stm8s_tim1
ASxxxx Linker V03.00 + NoICE + sdld,  page 92.
Hexadecimal  [32-Bits]

Area                                    Addr        Size        Decimal Bytes (Attributes)
--------------------------------        ----        ----        ------- ----- ------------
CODE                                000082B4    0000592D =       22829. bytes (REL,CON)

      Value  Global                              Global Defined In Module
      -----  --------------------------------   ------------------------
     000096E5  A$stm8s_tim1STM8S_StdPeriph_Lib/   stm8s_tim1
     000096E5  C$stm8s_tim1.c$2303$1_0$609        stm8s_tim1
     000096E7  A$stm8s_tim1STM8S_StdPeriph_Lib/   stm8s_tim1
     000096E8  A$stm8s_tim1STM8S_StdPeriph_Lib/   stm8s_tim1
     000096EA  A$stm8s_tim1STM8S_StdPeriph_Lib/   stm8s_tim1
     000096EC  A$stm8s_tim1STM8S_StdPeriph_Lib/   stm8s_tim1
     000096EE  A$stm8s_tim1STM8S_StdPeriph_Lib/   stm8s_tim1
     000096F1  A$stm8s_tim1STM8S_StdPeriph_Lib/   stm8s_tim1
     000096F1  C$stm8s_tim1.c$2306$1_0$609        stm8s_tim1
     000096F3  A$stm8s_tim1STM8S_StdPeriph_Lib/   stm8s_tim1
     000096F5  A$stm8s_tim1STM8S_StdPeriph_Lib/   stm8s_tim1
     000096F5  C$stm8s_tim1.c$2308$2_0$610        stm8s_tim1
     000096F9  A$stm8s_tim1STM8S_StdPeriph_Lib/   stm8s_tim1
     000096FB  A$stm8s_tim1STM8S_StdPeriph_Lib/   stm8s_tim1
     000096FB  C$stm8s_tim1.c$2312$2_0$611        stm8s_tim1
     000096FF  A$stm8s_tim1STM8S_StdPeriph_Lib/   stm8s_tim1
     000096FF  C$stm8s_tim1.c$2316$1_0$609        stm8s_tim1
     00009703  A$stm8s_tim1STM8S_StdPeriph_Lib/   stm8s_tim1
     00009704  A$stm8s_tim1STM8S_StdPeriph_Lib/   stm8s_tim1
     00009704  C$stm8s_tim1.c$2317$1_0$609        stm8s_tim1
     00009704  XFstm8s_tim1$TI4_Config$0$0        stm8s_tim1
     00009705  A$stm8s_tim2STM8S_StdPeriph_Lib/   stm8s_tim2
     00009705  C$stm8s_tim2.c$52$0_0$349          stm8s_tim2
     00009705  C$stm8s_tim2.c$54$1_0$349          stm8s_tim2
     00009705  G$TIM2_DeInit$0$0                  stm8s_tim2
     00009705  _TIM2_DeInit                       stm8s_tim2
     00009709  A$stm8s_tim2STM8S_StdPeriph_Lib/   stm8s_tim2
     00009709  C$stm8s_tim2.c$55$1_0$349          stm8s_tim2
     0000970D  A$stm8s_tim2STM8S_StdPeriph_Lib/   stm8s_tim2
     0000970D  C$stm8s_tim2.c$56$1_0$349          stm8s_tim2
     00009711  A$stm8s_tim2STM8S_StdPeriph_Lib/   stm8s_tim2
     00009711  C$stm8s_tim2.c$59$1_0$349          stm8s_tim2
     00009715  A$stm8s_tim2STM8S_StdPeriph_Lib/   stm8s_tim2
     00009715  C$stm8s_tim2.c$60$1_0$349          stm8s_tim2
     00009719  A$stm8s_tim2STM8S_StdPeriph_Lib/   stm8s_tim2
     00009719  C$stm8s_tim2.c$64$1_0$349          stm8s_tim2
     0000971D  A$stm8s_tim2STM8S_StdPeriph_Lib/   stm8s_tim2
     0000971D  C$stm8s_tim2.c$65$1_0$349          stm8s_tim2
     00009721  A$stm8s_tim2STM8S_StdPeriph_Lib/   stm8s_tim2
     00009721  C$stm8s_tim2.c$66$1_0$349          stm8s_tim2
     00009725  A$stm8s_tim2STM8S_StdPeriph_Lib/   stm8s_tim2
     00009725  C$stm8s_tim2.c$67$1_0$349          stm8s_tim2
     00009729  A$stm8s_tim2STM8S_StdPeriph_Lib/   stm8s_tim2
     00009729  C$stm8s_tim2.c$68$1_0$349          stm8s_tim2
     0000972D  A$stm8s_tim2STM8S_StdPeriph_Lib/   stm8s_tim2
     0000972D  C$stm8s_tim2.c$69$1_0$349          stm8s_tim2
     00009731  A$stm8s_tim2STM8S_StdPeriph_Lib/   stm8s_tim2
     00009731  C$stm8s_tim2.c$70$1_0$349          stm8s_tim2
     00009735  A$stm8s_tim2STM8S_StdPeriph_Lib/   stm8s_tim2
     00009735  C$stm8s_tim2.c$71$1_0$349          stm8s_tim2
     00009739  A$stm8s_tim2STM8S_StdPeriph_Lib/   stm8s_tim2
ASxxxx Linker V03.00 + NoICE + sdld,  page 93.
Hexadecimal  [32-Bits]

Area                                    Addr        Size        Decimal Bytes (Attributes)
--------------------------------        ----        ----        ------- ----- ------------
CODE                                000082B4    0000592D =       22829. bytes (REL,CON)

      Value  Global                              Global Defined In Module
      -----  --------------------------------   ------------------------
     00009739  C$stm8s_tim2.c$72$1_0$349          stm8s_tim2
     0000973D  A$stm8s_tim2STM8S_StdPeriph_Lib/   stm8s_tim2
     0000973D  C$stm8s_tim2.c$73$1_0$349          stm8s_tim2
     00009741  A$stm8s_tim2STM8S_StdPeriph_Lib/   stm8s_tim2
     00009741  C$stm8s_tim2.c$74$1_0$349          stm8s_tim2
     00009745  A$stm8s_tim2STM8S_StdPeriph_Lib/   stm8s_tim2
     00009745  C$stm8s_tim2.c$75$1_0$349          stm8s_tim2
     00009749  A$stm8s_tim2STM8S_StdPeriph_Lib/   stm8s_tim2
     00009749  C$stm8s_tim2.c$76$1_0$349          stm8s_tim2
     0000974D  A$stm8s_tim2STM8S_StdPeriph_Lib/   stm8s_tim2
     0000974D  C$stm8s_tim2.c$77$1_0$349          stm8s_tim2
     00009751  A$stm8s_tim2STM8S_StdPeriph_Lib/   stm8s_tim2
     00009751  C$stm8s_tim2.c$78$1_0$349          stm8s_tim2
     00009755  A$stm8s_tim2STM8S_StdPeriph_Lib/   stm8s_tim2
     00009755  C$stm8s_tim2.c$79$1_0$349          stm8s_tim2
     00009759  A$stm8s_tim2STM8S_StdPeriph_Lib/   stm8s_tim2
     00009759  C$stm8s_tim2.c$80$1_0$349          stm8s_tim2
     0000975D  A$stm8s_tim2STM8S_StdPeriph_Lib/   stm8s_tim2
     0000975D  C$stm8s_tim2.c$81$1_0$349          stm8s_tim2
     0000975D  XG$TIM2_DeInit$0$0                 stm8s_tim2
     0000975E  A$stm8s_tim2STM8S_StdPeriph_Lib/   stm8s_tim2
     0000975E  C$stm8s_tim2.c$89$1_0$351          stm8s_tim2
     0000975E  G$TIM2_TimeBaseInit$0$0            stm8s_tim2
     0000975E  _TIM2_TimeBaseInit                 stm8s_tim2
     00009760  A$stm8s_tim2STM8S_StdPeriph_Lib/   stm8s_tim2
     00009760  C$stm8s_tim2.c$93$1_0$351          stm8s_tim2
     00009763  A$stm8s_tim2STM8S_StdPeriph_Lib/   stm8s_tim2
     00009765  A$stm8s_tim2STM8S_StdPeriph_Lib/   stm8s_tim2
     00009766  A$stm8s_tim2STM8S_StdPeriph_Lib/   stm8s_tim2
     00009766  C$stm8s_tim2.c$95$1_0$351          stm8s_tim2
     00009768  A$stm8s_tim2STM8S_StdPeriph_Lib/   stm8s_tim2
     0000976A  A$stm8s_tim2STM8S_StdPeriph_Lib/   stm8s_tim2
     0000976C  A$stm8s_tim2STM8S_StdPeriph_Lib/   stm8s_tim2
     0000976E  A$stm8s_tim2STM8S_StdPeriph_Lib/   stm8s_tim2
     00009771  A$stm8s_tim2STM8S_StdPeriph_Lib/   stm8s_tim2
     00009771  C$stm8s_tim2.c$96$1_0$351          stm8s_tim2
     00009773  A$stm8s_tim2STM8S_StdPeriph_Lib/   stm8s_tim2
     00009776  A$stm8s_tim2STM8S_StdPeriph_Lib/   stm8s_tim2
     00009778  A$stm8s_tim2STM8S_StdPeriph_Lib/   stm8s_tim2
     00009778  C$stm8s_tim2.c$97$1_0$351          stm8s_tim2
     00009778  XG$TIM2_TimeBaseInit$0$0           stm8s_tim2
     00009779  A$stm8s_tim2STM8S_StdPeriph_Lib/   stm8s_tim2
     00009779  C$stm8s_tim2.c$108$1_0$353         stm8s_tim2
     00009779  G$TIM2_OC1Init$0$0                 stm8s_tim2
     00009779  _TIM2_OC1Init                      stm8s_tim2
     0000977B  A$stm8s_tim2STM8S_StdPeriph_Lib/   stm8s_tim2
     0000977B  C$stm8s_tim2.c$119$1_0$353         stm8s_tim2
     0000977E  A$stm8s_tim2STM8S_StdPeriph_Lib/   stm8s_tim2
     00009780  A$stm8s_tim2STM8S_StdPeriph_Lib/   stm8s_tim2
     00009783  A$stm8s_tim2STM8S_StdPeriph_Lib/   stm8s_tim2
     00009783  C$stm8s_tim2.c$121$1_0$353         stm8s_tim2
ASxxxx Linker V03.00 + NoICE + sdld,  page 94.
Hexadecimal  [32-Bits]

Area                                    Addr        Size        Decimal Bytes (Attributes)
--------------------------------        ----        ----        ------- ----- ------------
CODE                                000082B4    0000592D =       22829. bytes (REL,CON)

      Value  Global                              Global Defined In Module
      -----  --------------------------------   ------------------------
     00009786  A$stm8s_tim2STM8S_StdPeriph_Lib/   stm8s_tim2
     00009788  A$stm8s_tim2STM8S_StdPeriph_Lib/   stm8s_tim2
     0000978A  A$stm8s_tim2STM8S_StdPeriph_Lib/   stm8s_tim2
     0000978C  A$stm8s_tim2STM8S_StdPeriph_Lib/   stm8s_tim2
     0000978E  A$stm8s_tim2STM8S_StdPeriph_Lib/   stm8s_tim2
     0000978E  C$stm8s_tim2.c$122$1_0$353         stm8s_tim2
     00009790  A$stm8s_tim2STM8S_StdPeriph_Lib/   stm8s_tim2
     00009792  A$stm8s_tim2STM8S_StdPeriph_Lib/   stm8s_tim2
     00009794  A$stm8s_tim2STM8S_StdPeriph_Lib/   stm8s_tim2
     00009796  A$stm8s_tim2STM8S_StdPeriph_Lib/   stm8s_tim2
     00009799  A$stm8s_tim2STM8S_StdPeriph_Lib/   stm8s_tim2
     00009799  C$stm8s_tim2.c$125$1_0$353         stm8s_tim2
     0000979C  A$stm8s_tim2STM8S_StdPeriph_Lib/   stm8s_tim2
     0000979E  A$stm8s_tim2STM8S_StdPeriph_Lib/   stm8s_tim2
     0000979E  C$stm8s_tim2.c$126$1_0$353         stm8s_tim2
     000097A0  A$stm8s_tim2STM8S_StdPeriph_Lib/   stm8s_tim2
     000097A3  A$stm8s_tim2STM8S_StdPeriph_Lib/   stm8s_tim2
     000097A3  C$stm8s_tim2.c$129$1_0$353         stm8s_tim2
     000097A5  A$stm8s_tim2STM8S_StdPeriph_Lib/   stm8s_tim2
     000097A8  A$stm8s_tim2STM8S_StdPeriph_Lib/   stm8s_tim2
     000097A8  C$stm8s_tim2.c$130$1_0$353         stm8s_tim2
     000097AA  A$stm8s_tim2STM8S_StdPeriph_Lib/   stm8s_tim2
     000097AD  A$stm8s_tim2STM8S_StdPeriph_Lib/   stm8s_tim2
     000097AF  A$stm8s_tim2STM8S_StdPeriph_Lib/   stm8s_tim2
     000097AF  C$stm8s_tim2.c$131$1_0$353         stm8s_tim2
     000097AF  XG$TIM2_OC1Init$0$0                stm8s_tim2
     000097B0  A$stm8s_tim2STM8S_StdPeriph_Lib/   stm8s_tim2
     000097B0  C$stm8s_tim2.c$142$1_0$355         stm8s_tim2
     000097B0  G$TIM2_OC2Init$0$0                 stm8s_tim2
     000097B0  _TIM2_OC2Init                      stm8s_tim2
     000097B2  A$stm8s_tim2STM8S_StdPeriph_Lib/   stm8s_tim2
     000097B2  C$stm8s_tim2.c$154$1_0$355         stm8s_tim2
     000097B5  A$stm8s_tim2STM8S_StdPeriph_Lib/   stm8s_tim2
     000097B7  A$stm8s_tim2STM8S_StdPeriph_Lib/   stm8s_tim2
     000097BA  A$stm8s_tim2STM8S_StdPeriph_Lib/   stm8s_tim2
     000097BA  C$stm8s_tim2.c$156$1_0$355         stm8s_tim2
     000097BD  A$stm8s_tim2STM8S_StdPeriph_Lib/   stm8s_tim2
     000097BF  A$stm8s_tim2STM8S_StdPeriph_Lib/   stm8s_tim2
     000097C1  A$stm8s_tim2STM8S_StdPeriph_Lib/   stm8s_tim2
     000097C3  A$stm8s_tim2STM8S_StdPeriph_Lib/   stm8s_tim2
     000097C5  A$stm8s_tim2STM8S_StdPeriph_Lib/   stm8s_tim2
     000097C5  C$stm8s_tim2.c$157$1_0$355         stm8s_tim2
     000097C7  A$stm8s_tim2STM8S_StdPeriph_Lib/   stm8s_tim2
     000097C9  A$stm8s_tim2STM8S_StdPeriph_Lib/   stm8s_tim2
     000097CB  A$stm8s_tim2STM8S_StdPeriph_Lib/   stm8s_tim2
     000097CD  A$stm8s_tim2STM8S_StdPeriph_Lib/   stm8s_tim2
     000097D0  A$stm8s_tim2STM8S_StdPeriph_Lib/   stm8s_tim2
     000097D0  C$stm8s_tim2.c$161$1_0$355         stm8s_tim2
     000097D3  A$stm8s_tim2STM8S_StdPeriph_Lib/   stm8s_tim2
     000097D5  A$stm8s_tim2STM8S_StdPeriph_Lib/   stm8s_tim2
     000097D5  C$stm8s_tim2.c$162$1_0$355         stm8s_tim2
ASxxxx Linker V03.00 + NoICE + sdld,  page 95.
Hexadecimal  [32-Bits]

Area                                    Addr        Size        Decimal Bytes (Attributes)
--------------------------------        ----        ----        ------- ----- ------------
CODE                                000082B4    0000592D =       22829. bytes (REL,CON)

      Value  Global                              Global Defined In Module
      -----  --------------------------------   ------------------------
     000097D7  A$stm8s_tim2STM8S_StdPeriph_Lib/   stm8s_tim2
     000097DA  A$stm8s_tim2STM8S_StdPeriph_Lib/   stm8s_tim2
     000097DA  C$stm8s_tim2.c$166$1_0$355         stm8s_tim2
     000097DC  A$stm8s_tim2STM8S_StdPeriph_Lib/   stm8s_tim2
     000097DF  A$stm8s_tim2STM8S_StdPeriph_Lib/   stm8s_tim2
     000097DF  C$stm8s_tim2.c$167$1_0$355         stm8s_tim2
     000097E1  A$stm8s_tim2STM8S_StdPeriph_Lib/   stm8s_tim2
     000097E4  A$stm8s_tim2STM8S_StdPeriph_Lib/   stm8s_tim2
     000097E6  A$stm8s_tim2STM8S_StdPeriph_Lib/   stm8s_tim2
     000097E6  C$stm8s_tim2.c$168$1_0$355         stm8s_tim2
     000097E6  XG$TIM2_OC2Init$0$0                stm8s_tim2
     000097E7  A$stm8s_tim2STM8S_StdPeriph_Lib/   stm8s_tim2
     000097E7  C$stm8s_tim2.c$179$1_0$357         stm8s_tim2
     000097E7  G$TIM2_OC3Init$0$0                 stm8s_tim2
     000097E7  _TIM2_OC3Init                      stm8s_tim2
     000097E9  A$stm8s_tim2STM8S_StdPeriph_Lib/   stm8s_tim2
     000097E9  C$stm8s_tim2.c$189$1_0$357         stm8s_tim2
     000097EC  A$stm8s_tim2STM8S_StdPeriph_Lib/   stm8s_tim2
     000097EE  A$stm8s_tim2STM8S_StdPeriph_Lib/   stm8s_tim2
     000097F1  A$stm8s_tim2STM8S_StdPeriph_Lib/   stm8s_tim2
     000097F1  C$stm8s_tim2.c$191$1_0$357         stm8s_tim2
     000097F4  A$stm8s_tim2STM8S_StdPeriph_Lib/   stm8s_tim2
     000097F6  A$stm8s_tim2STM8S_StdPeriph_Lib/   stm8s_tim2
     000097F8  A$stm8s_tim2STM8S_StdPeriph_Lib/   stm8s_tim2
     000097FA  A$stm8s_tim2STM8S_StdPeriph_Lib/   stm8s_tim2
     000097FC  A$stm8s_tim2STM8S_StdPeriph_Lib/   stm8s_tim2
     000097FC  C$stm8s_tim2.c$192$1_0$357         stm8s_tim2
     000097FE  A$stm8s_tim2STM8S_StdPeriph_Lib/   stm8s_tim2
     00009800  A$stm8s_tim2STM8S_StdPeriph_Lib/   stm8s_tim2
     00009802  A$stm8s_tim2STM8S_StdPeriph_Lib/   stm8s_tim2
     00009804  A$stm8s_tim2STM8S_StdPeriph_Lib/   stm8s_tim2
     00009807  A$stm8s_tim2STM8S_StdPeriph_Lib/   stm8s_tim2
     00009807  C$stm8s_tim2.c$195$1_0$357         stm8s_tim2
     0000980A  A$stm8s_tim2STM8S_StdPeriph_Lib/   stm8s_tim2
     0000980C  A$stm8s_tim2STM8S_StdPeriph_Lib/   stm8s_tim2
     0000980C  C$stm8s_tim2.c$196$1_0$357         stm8s_tim2
     0000980E  A$stm8s_tim2STM8S_StdPeriph_Lib/   stm8s_tim2
     00009811  A$stm8s_tim2STM8S_StdPeriph_Lib/   stm8s_tim2
     00009811  C$stm8s_tim2.c$199$1_0$357         stm8s_tim2
     00009813  A$stm8s_tim2STM8S_StdPeriph_Lib/   stm8s_tim2
     00009816  A$stm8s_tim2STM8S_StdPeriph_Lib/   stm8s_tim2
     00009816  C$stm8s_tim2.c$200$1_0$357         stm8s_tim2
     00009818  A$stm8s_tim2STM8S_StdPeriph_Lib/   stm8s_tim2
     0000981B  A$stm8s_tim2STM8S_StdPeriph_Lib/   stm8s_tim2
     0000981D  A$stm8s_tim2STM8S_StdPeriph_Lib/   stm8s_tim2
     0000981D  C$stm8s_tim2.c$201$1_0$357         stm8s_tim2
     0000981D  XG$TIM2_OC3Init$0$0                stm8s_tim2
     0000981E  A$stm8s_tim2STM8S_StdPeriph_Lib/   stm8s_tim2
     0000981E  C$stm8s_tim2.c$212$1_0$359         stm8s_tim2
     0000981E  C$stm8s_tim2.c$225$1_0$359         stm8s_tim2
     0000981E  G$TIM2_ICInit$0$0                  stm8s_tim2
ASxxxx Linker V03.00 + NoICE + sdld,  page 96.
Hexadecimal  [32-Bits]

Area                                    Addr        Size        Decimal Bytes (Attributes)
--------------------------------        ----        ----        ------- ----- ------------
CODE                                000082B4    0000592D =       22829. bytes (REL,CON)

      Value  Global                              Global Defined In Module
      -----  --------------------------------   ------------------------
     0000981E  _TIM2_ICInit                       stm8s_tim2
     00009820  A$stm8s_tim2STM8S_StdPeriph_Lib/   stm8s_tim2
     00009822  A$stm8s_tim2STM8S_StdPeriph_Lib/   stm8s_tim2
     00009822  C$stm8s_tim2.c$228$2_0$360         stm8s_tim2
     00009824  A$stm8s_tim2STM8S_StdPeriph_Lib/   stm8s_tim2
     00009825  A$stm8s_tim2STM8S_StdPeriph_Lib/   stm8s_tim2
     00009827  A$stm8s_tim2STM8S_StdPeriph_Lib/   stm8s_tim2
     00009828  A$stm8s_tim2STM8S_StdPeriph_Lib/   stm8s_tim2
     0000982A  A$stm8s_tim2STM8S_StdPeriph_Lib/   stm8s_tim2
     0000982B  A$stm8s_tim2STM8S_StdPeriph_Lib/   stm8s_tim2
     0000982E  A$stm8s_tim2STM8S_StdPeriph_Lib/   stm8s_tim2
     00009830  A$stm8s_tim2STM8S_StdPeriph_Lib/   stm8s_tim2
     00009830  C$stm8s_tim2.c$233$2_0$360         stm8s_tim2
     00009832  A$stm8s_tim2STM8S_StdPeriph_Lib/   stm8s_tim2
     00009833  A$stm8s_tim2STM8S_StdPeriph_Lib/   stm8s_tim2
     00009836  A$stm8s_tim2STM8S_StdPeriph_Lib/   stm8s_tim2
     00009837  A$stm8s_tim2STM8S_StdPeriph_Lib/   stm8s_tim2
     00009839  A$stm8s_tim2STM8S_StdPeriph_Lib/   stm8s_tim2
     00009839  C$stm8s_tim2.c$235$1_0$359         stm8s_tim2
     0000983B  A$stm8s_tim2STM8S_StdPeriph_Lib/   stm8s_tim2
     0000983C  A$stm8s_tim2STM8S_StdPeriph_Lib/   stm8s_tim2
     0000983E  A$stm8s_tim2STM8S_StdPeriph_Lib/   stm8s_tim2
     0000983E  C$stm8s_tim2.c$238$2_0$361         stm8s_tim2
     00009840  A$stm8s_tim2STM8S_StdPeriph_Lib/   stm8s_tim2
     00009841  A$stm8s_tim2STM8S_StdPeriph_Lib/   stm8s_tim2
     00009843  A$stm8s_tim2STM8S_StdPeriph_Lib/   stm8s_tim2
     00009844  A$stm8s_tim2STM8S_StdPeriph_Lib/   stm8s_tim2
     00009846  A$stm8s_tim2STM8S_StdPeriph_Lib/   stm8s_tim2
     00009847  A$stm8s_tim2STM8S_StdPeriph_Lib/   stm8s_tim2
     0000984A  A$stm8s_tim2STM8S_StdPeriph_Lib/   stm8s_tim2
     0000984C  A$stm8s_tim2STM8S_StdPeriph_Lib/   stm8s_tim2
     0000984C  C$stm8s_tim2.c$243$2_0$361         stm8s_tim2
     0000984E  A$stm8s_tim2STM8S_StdPeriph_Lib/   stm8s_tim2
     0000984F  A$stm8s_tim2STM8S_StdPeriph_Lib/   stm8s_tim2
     00009852  A$stm8s_tim2STM8S_StdPeriph_Lib/   stm8s_tim2
     00009853  A$stm8s_tim2STM8S_StdPeriph_Lib/   stm8s_tim2
     00009855  A$stm8s_tim2STM8S_StdPeriph_Lib/   stm8s_tim2
     00009855  C$stm8s_tim2.c$248$2_0$362         stm8s_tim2
     00009857  A$stm8s_tim2STM8S_StdPeriph_Lib/   stm8s_tim2
     00009858  A$stm8s_tim2STM8S_StdPeriph_Lib/   stm8s_tim2
     0000985A  A$stm8s_tim2STM8S_StdPeriph_Lib/   stm8s_tim2
     0000985B  A$stm8s_tim2STM8S_StdPeriph_Lib/   stm8s_tim2
     0000985D  A$stm8s_tim2STM8S_StdPeriph_Lib/   stm8s_tim2
     0000985E  A$stm8s_tim2STM8S_StdPeriph_Lib/   stm8s_tim2
     00009861  A$stm8s_tim2STM8S_StdPeriph_Lib/   stm8s_tim2
     00009863  A$stm8s_tim2STM8S_StdPeriph_Lib/   stm8s_tim2
     00009863  C$stm8s_tim2.c$253$2_0$362         stm8s_tim2
     00009865  A$stm8s_tim2STM8S_StdPeriph_Lib/   stm8s_tim2
     00009866  A$stm8s_tim2STM8S_StdPeriph_Lib/   stm8s_tim2
     00009869  A$stm8s_tim2STM8S_StdPeriph_Lib/   stm8s_tim2
     0000986A  A$stm8s_tim2STM8S_StdPeriph_Lib/   stm8s_tim2
ASxxxx Linker V03.00 + NoICE + sdld,  page 97.
Hexadecimal  [32-Bits]

Area                                    Addr        Size        Decimal Bytes (Attributes)
--------------------------------        ----        ----        ------- ----- ------------
CODE                                000082B4    0000592D =       22829. bytes (REL,CON)

      Value  Global                              Global Defined In Module
      -----  --------------------------------   ------------------------
     0000986A  C$stm8s_tim2.c$255$1_0$359         stm8s_tim2
     0000986A  XG$TIM2_ICInit$0$0                 stm8s_tim2
     0000986B  A$stm8s_tim2STM8S_StdPeriph_Lib/   stm8s_tim2
     0000986B  C$stm8s_tim2.c$266$1_0$364         stm8s_tim2
     0000986B  G$TIM2_PWMIConfig$0$0              stm8s_tim2
     0000986B  _TIM2_PWMIConfig                   stm8s_tim2
     0000986D  A$stm8s_tim2STM8S_StdPeriph_Lib/   stm8s_tim2
     0000986D  C$stm8s_tim2.c$282$1_0$364         stm8s_tim2
     0000986F  A$stm8s_tim2STM8S_StdPeriph_Lib/   stm8s_tim2
     00009871  A$stm8s_tim2STM8S_StdPeriph_Lib/   stm8s_tim2
     00009873  A$stm8s_tim2STM8S_StdPeriph_Lib/   stm8s_tim2
     00009873  C$stm8s_tim2.c$284$2_0$365         stm8s_tim2
     00009875  A$stm8s_tim2STM8S_StdPeriph_Lib/   stm8s_tim2
     00009877  A$stm8s_tim2STM8S_StdPeriph_Lib/   stm8s_tim2
     00009879  A$stm8s_tim2STM8S_StdPeriph_Lib/   stm8s_tim2
     00009879  C$stm8s_tim2.c$288$2_0$366         stm8s_tim2
     0000987B  A$stm8s_tim2STM8S_StdPeriph_Lib/   stm8s_tim2
     0000987B  C$stm8s_tim2.c$292$1_0$364         stm8s_tim2
     0000987D  A$stm8s_tim2STM8S_StdPeriph_Lib/   stm8s_tim2
     0000987E  A$stm8s_tim2STM8S_StdPeriph_Lib/   stm8s_tim2
     00009880  A$stm8s_tim2STM8S_StdPeriph_Lib/   stm8s_tim2
     00009880  C$stm8s_tim2.c$294$2_0$367         stm8s_tim2
     00009882  A$stm8s_tim2STM8S_StdPeriph_Lib/   stm8s_tim2
     00009884  A$stm8s_tim2STM8S_StdPeriph_Lib/   stm8s_tim2
     00009886  A$stm8s_tim2STM8S_StdPeriph_Lib/   stm8s_tim2
     00009886  C$stm8s_tim2.c$298$2_0$368         stm8s_tim2
     00009888  A$stm8s_tim2STM8S_StdPeriph_Lib/   stm8s_tim2
     0000988A  A$stm8s_tim2STM8S_StdPeriph_Lib/   stm8s_tim2
     0000988A  C$stm8s_tim2.c$301$1_0$364         stm8s_tim2
     0000988C  A$stm8s_tim2STM8S_StdPeriph_Lib/   stm8s_tim2
     0000988E  A$stm8s_tim2STM8S_StdPeriph_Lib/   stm8s_tim2
     0000988E  C$stm8s_tim2.c$304$2_0$369         stm8s_tim2
     00009890  A$stm8s_tim2STM8S_StdPeriph_Lib/   stm8s_tim2
     00009891  A$stm8s_tim2STM8S_StdPeriph_Lib/   stm8s_tim2
     00009893  A$stm8s_tim2STM8S_StdPeriph_Lib/   stm8s_tim2
     00009894  A$stm8s_tim2STM8S_StdPeriph_Lib/   stm8s_tim2
     00009896  A$stm8s_tim2STM8S_StdPeriph_Lib/   stm8s_tim2
     00009897  A$stm8s_tim2STM8S_StdPeriph_Lib/   stm8s_tim2
     0000989A  A$stm8s_tim2STM8S_StdPeriph_Lib/   stm8s_tim2
     0000989C  A$stm8s_tim2STM8S_StdPeriph_Lib/   stm8s_tim2
     0000989C  C$stm8s_tim2.c$308$2_0$369         stm8s_tim2
     0000989E  A$stm8s_tim2STM8S_StdPeriph_Lib/   stm8s_tim2
     0000989F  A$stm8s_tim2STM8S_StdPeriph_Lib/   stm8s_tim2
     000098A2  A$stm8s_tim2STM8S_StdPeriph_Lib/   stm8s_tim2
     000098A3  A$stm8s_tim2STM8S_StdPeriph_Lib/   stm8s_tim2
     000098A3  C$stm8s_tim2.c$311$2_0$369         stm8s_tim2
     000098A5  A$stm8s_tim2STM8S_StdPeriph_Lib/   stm8s_tim2
     000098A6  A$stm8s_tim2STM8S_StdPeriph_Lib/   stm8s_tim2
     000098A8  A$stm8s_tim2STM8S_StdPeriph_Lib/   stm8s_tim2
     000098A9  A$stm8s_tim2STM8S_StdPeriph_Lib/   stm8s_tim2
     000098AB  A$stm8s_tim2STM8S_StdPeriph_Lib/   stm8s_tim2
ASxxxx Linker V03.00 + NoICE + sdld,  page 98.
Hexadecimal  [32-Bits]

Area                                    Addr        Size        Decimal Bytes (Attributes)
--------------------------------        ----        ----        ------- ----- ------------
CODE                                000082B4    0000592D =       22829. bytes (REL,CON)

      Value  Global                              Global Defined In Module
      -----  --------------------------------   ------------------------
     000098AC  A$stm8s_tim2STM8S_StdPeriph_Lib/   stm8s_tim2
     000098AF  A$stm8s_tim2STM8S_StdPeriph_Lib/   stm8s_tim2
     000098B1  A$stm8s_tim2STM8S_StdPeriph_Lib/   stm8s_tim2
     000098B1  C$stm8s_tim2.c$314$2_0$369         stm8s_tim2
     000098B3  A$stm8s_tim2STM8S_StdPeriph_Lib/   stm8s_tim2
     000098B4  A$stm8s_tim2STM8S_StdPeriph_Lib/   stm8s_tim2
     000098B7  A$stm8s_tim2STM8S_StdPeriph_Lib/   stm8s_tim2
     000098B8  A$stm8s_tim2STM8S_StdPeriph_Lib/   stm8s_tim2
     000098BA  A$stm8s_tim2STM8S_StdPeriph_Lib/   stm8s_tim2
     000098BA  C$stm8s_tim2.c$319$2_0$370         stm8s_tim2
     000098BC  A$stm8s_tim2STM8S_StdPeriph_Lib/   stm8s_tim2
     000098BD  A$stm8s_tim2STM8S_StdPeriph_Lib/   stm8s_tim2
     000098BF  A$stm8s_tim2STM8S_StdPeriph_Lib/   stm8s_tim2
     000098C0  A$stm8s_tim2STM8S_StdPeriph_Lib/   stm8s_tim2
     000098C2  A$stm8s_tim2STM8S_StdPeriph_Lib/   stm8s_tim2
     000098C3  A$stm8s_tim2STM8S_StdPeriph_Lib/   stm8s_tim2
     000098C6  A$stm8s_tim2STM8S_StdPeriph_Lib/   stm8s_tim2
     000098C8  A$stm8s_tim2STM8S_StdPeriph_Lib/   stm8s_tim2
     000098C8  C$stm8s_tim2.c$323$2_0$370         stm8s_tim2
     000098CA  A$stm8s_tim2STM8S_StdPeriph_Lib/   stm8s_tim2
     000098CB  A$stm8s_tim2STM8S_StdPeriph_Lib/   stm8s_tim2
     000098CE  A$stm8s_tim2STM8S_StdPeriph_Lib/   stm8s_tim2
     000098CF  A$stm8s_tim2STM8S_StdPeriph_Lib/   stm8s_tim2
     000098CF  C$stm8s_tim2.c$326$2_0$370         stm8s_tim2
     000098D1  A$stm8s_tim2STM8S_StdPeriph_Lib/   stm8s_tim2
     000098D2  A$stm8s_tim2STM8S_StdPeriph_Lib/   stm8s_tim2
     000098D4  A$stm8s_tim2STM8S_StdPeriph_Lib/   stm8s_tim2
     000098D5  A$stm8s_tim2STM8S_StdPeriph_Lib/   stm8s_tim2
     000098D7  A$stm8s_tim2STM8S_StdPeriph_Lib/   stm8s_tim2
     000098D8  A$stm8s_tim2STM8S_StdPeriph_Lib/   stm8s_tim2
     000098DB  A$stm8s_tim2STM8S_StdPeriph_Lib/   stm8s_tim2
     000098DD  A$stm8s_tim2STM8S_StdPeriph_Lib/   stm8s_tim2
     000098DD  C$stm8s_tim2.c$329$2_0$370         stm8s_tim2
     000098DF  A$stm8s_tim2STM8S_StdPeriph_Lib/   stm8s_tim2
     000098E0  A$stm8s_tim2STM8S_StdPeriph_Lib/   stm8s_tim2
     000098E3  A$stm8s_tim2STM8S_StdPeriph_Lib/   stm8s_tim2
     000098E4  A$stm8s_tim2STM8S_StdPeriph_Lib/   stm8s_tim2
     000098E6  A$stm8s_tim2STM8S_StdPeriph_Lib/   stm8s_tim2
     000098E6  C$stm8s_tim2.c$331$1_0$364         stm8s_tim2
     000098E6  XG$TIM2_PWMIConfig$0$0             stm8s_tim2
     000098E7  A$stm8s_tim2STM8S_StdPeriph_Lib/   stm8s_tim2
     000098E7  C$stm8s_tim2.c$339$1_0$372         stm8s_tim2
     000098E7  C$stm8s_tim2.c$345$1_0$372         stm8s_tim2
     000098E7  G$TIM2_Cmd$0$0                     stm8s_tim2
     000098E7  _TIM2_Cmd                          stm8s_tim2
     000098E9  A$stm8s_tim2STM8S_StdPeriph_Lib/   stm8s_tim2
     000098EB  A$stm8s_tim2STM8S_StdPeriph_Lib/   stm8s_tim2
     000098EB  C$stm8s_tim2.c$347$2_0$373         stm8s_tim2
     000098EF  A$stm8s_tim2STM8S_StdPeriph_Lib/   stm8s_tim2
     000098F1  A$stm8s_tim2STM8S_StdPeriph_Lib/   stm8s_tim2
     000098F1  C$stm8s_tim2.c$351$2_0$374         stm8s_tim2
ASxxxx Linker V03.00 + NoICE + sdld,  page 99.
Hexadecimal  [32-Bits]

Area                                    Addr        Size        Decimal Bytes (Attributes)
--------------------------------        ----        ----        ------- ----- ------------
CODE                                000082B4    0000592D =       22829. bytes (REL,CON)

      Value  Global                              Global Defined In Module
      -----  --------------------------------   ------------------------
     000098F5  A$stm8s_tim2STM8S_StdPeriph_Lib/   stm8s_tim2
     000098F5  C$stm8s_tim2.c$353$1_0$372         stm8s_tim2
     000098F5  XG$TIM2_Cmd$0$0                    stm8s_tim2
     000098F6  A$stm8s_tim2STM8S_StdPeriph_Lib/   stm8s_tim2
     000098F6  C$stm8s_tim2.c$368$1_0$376         stm8s_tim2
     000098F6  G$TIM2_ITConfig$0$0                stm8s_tim2
     000098F6  _TIM2_ITConfig                     stm8s_tim2
     000098F7  A$stm8s_tim2STM8S_StdPeriph_Lib/   stm8s_tim2
     000098F7  C$stm8s_tim2.c$374$1_0$376         stm8s_tim2
     000098F9  A$stm8s_tim2STM8S_StdPeriph_Lib/   stm8s_tim2
     000098FB  A$stm8s_tim2STM8S_StdPeriph_Lib/   stm8s_tim2
     000098FB  C$stm8s_tim2.c$377$2_0$377         stm8s_tim2
     000098FE  A$stm8s_tim2STM8S_StdPeriph_Lib/   stm8s_tim2
     00009900  A$stm8s_tim2STM8S_StdPeriph_Lib/   stm8s_tim2
     00009903  A$stm8s_tim2STM8S_StdPeriph_Lib/   stm8s_tim2
     00009905  A$stm8s_tim2STM8S_StdPeriph_Lib/   stm8s_tim2
     00009905  C$stm8s_tim2.c$382$2_0$378         stm8s_tim2
     00009908  A$stm8s_tim2STM8S_StdPeriph_Lib/   stm8s_tim2
     0000990A  A$stm8s_tim2STM8S_StdPeriph_Lib/   stm8s_tim2
     0000990C  A$stm8s_tim2STM8S_StdPeriph_Lib/   stm8s_tim2
     0000990D  A$stm8s_tim2STM8S_StdPeriph_Lib/   stm8s_tim2
     0000990F  A$stm8s_tim2STM8S_StdPeriph_Lib/   stm8s_tim2
     00009912  A$stm8s_tim2STM8S_StdPeriph_Lib/   stm8s_tim2
     00009913  A$stm8s_tim2STM8S_StdPeriph_Lib/   stm8s_tim2
     00009913  C$stm8s_tim2.c$384$1_0$376         stm8s_tim2
     00009913  XG$TIM2_ITConfig$0$0               stm8s_tim2
     00009914  A$stm8s_tim2STM8S_StdPeriph_Lib/   stm8s_tim2
     00009914  C$stm8s_tim2.c$392$1_0$380         stm8s_tim2
     00009914  C$stm8s_tim2.c$398$1_0$380         stm8s_tim2
     00009914  G$TIM2_UpdateDisableConfig$0$0     stm8s_tim2
     00009914  _TIM2_UpdateDisableConfig          stm8s_tim2
     00009916  A$stm8s_tim2STM8S_StdPeriph_Lib/   stm8s_tim2
     00009918  A$stm8s_tim2STM8S_StdPeriph_Lib/   stm8s_tim2
     00009918  C$stm8s_tim2.c$400$2_0$381         stm8s_tim2
     0000991C  A$stm8s_tim2STM8S_StdPeriph_Lib/   stm8s_tim2
     0000991E  A$stm8s_tim2STM8S_StdPeriph_Lib/   stm8s_tim2
     0000991E  C$stm8s_tim2.c$404$2_0$382         stm8s_tim2
     00009922  A$stm8s_tim2STM8S_StdPeriph_Lib/   stm8s_tim2
     00009922  C$stm8s_tim2.c$406$1_0$380         stm8s_tim2
     00009922  XG$TIM2_UpdateDisableConfig$0$0    stm8s_tim2
     00009923  A$stm8s_tim2STM8S_StdPeriph_Lib/   stm8s_tim2
     00009923  C$stm8s_tim2.c$416$1_0$384         stm8s_tim2
     00009923  C$stm8s_tim2.c$422$1_0$384         stm8s_tim2
     00009923  G$TIM2_UpdateRequestConfig$0$0     stm8s_tim2
     00009923  _TIM2_UpdateRequestConfig          stm8s_tim2
     00009925  A$stm8s_tim2STM8S_StdPeriph_Lib/   stm8s_tim2
     00009927  A$stm8s_tim2STM8S_StdPeriph_Lib/   stm8s_tim2
     00009927  C$stm8s_tim2.c$424$2_0$385         stm8s_tim2
     0000992B  A$stm8s_tim2STM8S_StdPeriph_Lib/   stm8s_tim2
     0000992D  A$stm8s_tim2STM8S_StdPeriph_Lib/   stm8s_tim2
     0000992D  C$stm8s_tim2.c$428$2_0$386         stm8s_tim2
ASxxxx Linker V03.00 + NoICE + sdld,  page 100.
Hexadecimal  [32-Bits]

Area                                    Addr        Size        Decimal Bytes (Attributes)
--------------------------------        ----        ----        ------- ----- ------------
CODE                                000082B4    0000592D =       22829. bytes (REL,CON)

      Value  Global                              Global Defined In Module
      -----  --------------------------------   ------------------------
     00009931  A$stm8s_tim2STM8S_StdPeriph_Lib/   stm8s_tim2
     00009931  C$stm8s_tim2.c$430$1_0$384         stm8s_tim2
     00009931  XG$TIM2_UpdateRequestConfig$0$0    stm8s_tim2
     00009932  A$stm8s_tim2STM8S_StdPeriph_Lib/   stm8s_tim2
     00009932  C$stm8s_tim2.c$440$1_0$388         stm8s_tim2
     00009932  C$stm8s_tim2.c$446$1_0$388         stm8s_tim2
     00009932  G$TIM2_SelectOnePulseMode$0$0      stm8s_tim2
     00009932  _TIM2_SelectOnePulseMode           stm8s_tim2
     00009934  A$stm8s_tim2STM8S_StdPeriph_Lib/   stm8s_tim2
     00009936  A$stm8s_tim2STM8S_StdPeriph_Lib/   stm8s_tim2
     00009936  C$stm8s_tim2.c$448$2_0$389         stm8s_tim2
     0000993A  A$stm8s_tim2STM8S_StdPeriph_Lib/   stm8s_tim2
     0000993C  A$stm8s_tim2STM8S_StdPeriph_Lib/   stm8s_tim2
     0000993C  C$stm8s_tim2.c$452$2_0$390         stm8s_tim2
     00009940  A$stm8s_tim2STM8S_StdPeriph_Lib/   stm8s_tim2
     00009940  C$stm8s_tim2.c$454$1_0$388         stm8s_tim2
     00009940  XG$TIM2_SelectOnePulseMode$0$0     stm8s_tim2
     00009941  A$stm8s_tim2STM8S_StdPeriph_Lib/   stm8s_tim2
     00009941  C$stm8s_tim2.c$484$1_0$392         stm8s_tim2
     00009941  C$stm8s_tim2.c$492$1_0$392         stm8s_tim2
     00009941  G$TIM2_PrescalerConfig$0$0         stm8s_tim2
     00009941  _TIM2_PrescalerConfig              stm8s_tim2
     00009944  A$stm8s_tim2STM8S_StdPeriph_Lib/   stm8s_tim2
     00009946  A$stm8s_tim2STM8S_StdPeriph_Lib/   stm8s_tim2
     00009947  A$stm8s_tim2STM8S_StdPeriph_Lib/   stm8s_tim2
     00009947  C$stm8s_tim2.c$495$1_0$392         stm8s_tim2
     0000994A  A$stm8s_tim2STM8S_StdPeriph_Lib/   stm8s_tim2
     0000994C  A$stm8s_tim2STM8S_StdPeriph_Lib/   stm8s_tim2
     0000994D  A$stm8s_tim2STM8S_StdPeriph_Lib/   stm8s_tim2
     0000994D  C$stm8s_tim2.c$496$1_0$392         stm8s_tim2
     0000994D  XG$TIM2_PrescalerConfig$0$0        stm8s_tim2
     0000994E  A$stm8s_tim2STM8S_StdPeriph_Lib/   stm8s_tim2
     0000994E  C$stm8s_tim2.c$507$1_0$394         stm8s_tim2
     0000994E  C$stm8s_tim2.c$513$1_0$394         stm8s_tim2
     0000994E  G$TIM2_ForcedOC1Config$0$0         stm8s_tim2
     0000994E  _TIM2_ForcedOC1Config              stm8s_tim2
     00009951  A$stm8s_tim2STM8S_StdPeriph_Lib/   stm8s_tim2
     00009953  A$stm8s_tim2STM8S_StdPeriph_Lib/   stm8s_tim2
     00009953  C$stm8s_tim2.c$514$1_0$394         stm8s_tim2
     00009955  A$stm8s_tim2STM8S_StdPeriph_Lib/   stm8s_tim2
     00009958  A$stm8s_tim2STM8S_StdPeriph_Lib/   stm8s_tim2
     00009958  C$stm8s_tim2.c$515$1_0$394         stm8s_tim2
     00009958  XG$TIM2_ForcedOC1Config$0$0        stm8s_tim2
     00009959  A$stm8s_tim2STM8S_StdPeriph_Lib/   stm8s_tim2
     00009959  C$stm8s_tim2.c$526$1_0$396         stm8s_tim2
     00009959  C$stm8s_tim2.c$532$1_0$396         stm8s_tim2
     00009959  G$TIM2_ForcedOC2Config$0$0         stm8s_tim2
     00009959  _TIM2_ForcedOC2Config              stm8s_tim2
     0000995C  A$stm8s_tim2STM8S_StdPeriph_Lib/   stm8s_tim2
     0000995E  A$stm8s_tim2STM8S_StdPeriph_Lib/   stm8s_tim2
     0000995E  C$stm8s_tim2.c$533$1_0$396         stm8s_tim2
ASxxxx Linker V03.00 + NoICE + sdld,  page 101.
Hexadecimal  [32-Bits]

Area                                    Addr        Size        Decimal Bytes (Attributes)
--------------------------------        ----        ----        ------- ----- ------------
CODE                                000082B4    0000592D =       22829. bytes (REL,CON)

      Value  Global                              Global Defined In Module
      -----  --------------------------------   ------------------------
     00009960  A$stm8s_tim2STM8S_StdPeriph_Lib/   stm8s_tim2
     00009963  A$stm8s_tim2STM8S_StdPeriph_Lib/   stm8s_tim2
     00009963  C$stm8s_tim2.c$534$1_0$396         stm8s_tim2
     00009963  XG$TIM2_ForcedOC2Config$0$0        stm8s_tim2
     00009964  A$stm8s_tim2STM8S_StdPeriph_Lib/   stm8s_tim2
     00009964  C$stm8s_tim2.c$545$1_0$398         stm8s_tim2
     00009964  C$stm8s_tim2.c$551$1_0$398         stm8s_tim2
     00009964  G$TIM2_ForcedOC3Config$0$0         stm8s_tim2
     00009964  _TIM2_ForcedOC3Config              stm8s_tim2
     00009967  A$stm8s_tim2STM8S_StdPeriph_Lib/   stm8s_tim2
     00009969  A$stm8s_tim2STM8S_StdPeriph_Lib/   stm8s_tim2
     00009969  C$stm8s_tim2.c$552$1_0$398         stm8s_tim2
     0000996B  A$stm8s_tim2STM8S_StdPeriph_Lib/   stm8s_tim2
     0000996E  A$stm8s_tim2STM8S_StdPeriph_Lib/   stm8s_tim2
     0000996E  C$stm8s_tim2.c$553$1_0$398         stm8s_tim2
     0000996E  XG$TIM2_ForcedOC3Config$0$0        stm8s_tim2
     0000996F  A$stm8s_tim2STM8S_StdPeriph_Lib/   stm8s_tim2
     0000996F  C$stm8s_tim2.c$561$1_0$400         stm8s_tim2
     0000996F  C$stm8s_tim2.c$567$1_0$400         stm8s_tim2
     0000996F  G$TIM2_ARRPreloadConfig$0$0        stm8s_tim2
     0000996F  _TIM2_ARRPreloadConfig             stm8s_tim2
     00009971  A$stm8s_tim2STM8S_StdPeriph_Lib/   stm8s_tim2
     00009973  A$stm8s_tim2STM8S_StdPeriph_Lib/   stm8s_tim2
     00009973  C$stm8s_tim2.c$569$2_0$401         stm8s_tim2
     00009977  A$stm8s_tim2STM8S_StdPeriph_Lib/   stm8s_tim2
     00009979  A$stm8s_tim2STM8S_StdPeriph_Lib/   stm8s_tim2
     00009979  C$stm8s_tim2.c$573$2_0$402         stm8s_tim2
     0000997D  A$stm8s_tim2STM8S_StdPeriph_Lib/   stm8s_tim2
     0000997D  C$stm8s_tim2.c$575$1_0$400         stm8s_tim2
     0000997D  XG$TIM2_ARRPreloadConfig$0$0       stm8s_tim2
     0000997E  A$stm8s_tim2STM8S_StdPeriph_Lib/   stm8s_tim2
     0000997E  C$stm8s_tim2.c$583$1_0$404         stm8s_tim2
     0000997E  C$stm8s_tim2.c$589$1_0$404         stm8s_tim2
     0000997E  G$TIM2_OC1PreloadConfig$0$0        stm8s_tim2
     0000997E  _TIM2_OC1PreloadConfig             stm8s_tim2
     00009980  A$stm8s_tim2STM8S_StdPeriph_Lib/   stm8s_tim2
     00009982  A$stm8s_tim2STM8S_StdPeriph_Lib/   stm8s_tim2
     00009982  C$stm8s_tim2.c$591$2_0$405         stm8s_tim2
     00009986  A$stm8s_tim2STM8S_StdPeriph_Lib/   stm8s_tim2
     00009988  A$stm8s_tim2STM8S_StdPeriph_Lib/   stm8s_tim2
     00009988  C$stm8s_tim2.c$595$2_0$406         stm8s_tim2
     0000998C  A$stm8s_tim2STM8S_StdPeriph_Lib/   stm8s_tim2
     0000998C  C$stm8s_tim2.c$597$1_0$404         stm8s_tim2
     0000998C  XG$TIM2_OC1PreloadConfig$0$0       stm8s_tim2
     0000998D  A$stm8s_tim2STM8S_StdPeriph_Lib/   stm8s_tim2
     0000998D  C$stm8s_tim2.c$605$1_0$408         stm8s_tim2
     0000998D  C$stm8s_tim2.c$611$1_0$408         stm8s_tim2
     0000998D  G$TIM2_OC2PreloadConfig$0$0        stm8s_tim2
     0000998D  _TIM2_OC2PreloadConfig             stm8s_tim2
     0000998F  A$stm8s_tim2STM8S_StdPeriph_Lib/   stm8s_tim2
     00009991  A$stm8s_tim2STM8S_StdPeriph_Lib/   stm8s_tim2
ASxxxx Linker V03.00 + NoICE + sdld,  page 102.
Hexadecimal  [32-Bits]

Area                                    Addr        Size        Decimal Bytes (Attributes)
--------------------------------        ----        ----        ------- ----- ------------
CODE                                000082B4    0000592D =       22829. bytes (REL,CON)

      Value  Global                              Global Defined In Module
      -----  --------------------------------   ------------------------
     00009991  C$stm8s_tim2.c$613$2_0$409         stm8s_tim2
     00009995  A$stm8s_tim2STM8S_StdPeriph_Lib/   stm8s_tim2
     00009997  A$stm8s_tim2STM8S_StdPeriph_Lib/   stm8s_tim2
     00009997  C$stm8s_tim2.c$617$2_0$410         stm8s_tim2
     0000999B  A$stm8s_tim2STM8S_StdPeriph_Lib/   stm8s_tim2
     0000999B  C$stm8s_tim2.c$619$1_0$408         stm8s_tim2
     0000999B  XG$TIM2_OC2PreloadConfig$0$0       stm8s_tim2
     0000999C  A$stm8s_tim2STM8S_StdPeriph_Lib/   stm8s_tim2
     0000999C  C$stm8s_tim2.c$627$1_0$412         stm8s_tim2
     0000999C  C$stm8s_tim2.c$633$1_0$412         stm8s_tim2
     0000999C  G$TIM2_OC3PreloadConfig$0$0        stm8s_tim2
     0000999C  _TIM2_OC3PreloadConfig             stm8s_tim2
     0000999E  A$stm8s_tim2STM8S_StdPeriph_Lib/   stm8s_tim2
     000099A0  A$stm8s_tim2STM8S_StdPeriph_Lib/   stm8s_tim2
     000099A0  C$stm8s_tim2.c$635$2_0$413         stm8s_tim2
     000099A4  A$stm8s_tim2STM8S_StdPeriph_Lib/   stm8s_tim2
     000099A6  A$stm8s_tim2STM8S_StdPeriph_Lib/   stm8s_tim2
     000099A6  C$stm8s_tim2.c$639$2_0$414         stm8s_tim2
     000099AA  A$stm8s_tim2STM8S_StdPeriph_Lib/   stm8s_tim2
     000099AA  C$stm8s_tim2.c$641$1_0$412         stm8s_tim2
     000099AA  XG$TIM2_OC3PreloadConfig$0$0       stm8s_tim2
     000099AB  A$stm8s_tim2STM8S_StdPeriph_Lib/   stm8s_tim2
     000099AB  C$stm8s_tim2.c$653$1_0$416         stm8s_tim2
     000099AB  C$stm8s_tim2.c$659$1_0$416         stm8s_tim2
     000099AB  G$TIM2_GenerateEvent$0$0           stm8s_tim2
     000099AB  _TIM2_GenerateEvent                stm8s_tim2
     000099AE  A$stm8s_tim2STM8S_StdPeriph_Lib/   stm8s_tim2
     000099B0  A$stm8s_tim2STM8S_StdPeriph_Lib/   stm8s_tim2
     000099B1  A$stm8s_tim2STM8S_StdPeriph_Lib/   stm8s_tim2
     000099B1  C$stm8s_tim2.c$660$1_0$416         stm8s_tim2
     000099B1  XG$TIM2_GenerateEvent$0$0          stm8s_tim2
     000099B2  A$stm8s_tim2STM8S_StdPeriph_Lib/   stm8s_tim2
     000099B2  C$stm8s_tim2.c$670$1_0$418         stm8s_tim2
     000099B2  C$stm8s_tim2.c$676$1_0$418         stm8s_tim2
     000099B2  G$TIM2_OC1PolarityConfig$0$0       stm8s_tim2
     000099B2  _TIM2_OC1PolarityConfig            stm8s_tim2
     000099B4  A$stm8s_tim2STM8S_StdPeriph_Lib/   stm8s_tim2
     000099B6  A$stm8s_tim2STM8S_StdPeriph_Lib/   stm8s_tim2
     000099B6  C$stm8s_tim2.c$678$2_0$419         stm8s_tim2
     000099BA  A$stm8s_tim2STM8S_StdPeriph_Lib/   stm8s_tim2
     000099BC  A$stm8s_tim2STM8S_StdPeriph_Lib/   stm8s_tim2
     000099BC  C$stm8s_tim2.c$682$2_0$420         stm8s_tim2
     000099C0  A$stm8s_tim2STM8S_StdPeriph_Lib/   stm8s_tim2
     000099C0  C$stm8s_tim2.c$684$1_0$418         stm8s_tim2
     000099C0  XG$TIM2_OC1PolarityConfig$0$0      stm8s_tim2
     000099C1  A$stm8s_tim2STM8S_StdPeriph_Lib/   stm8s_tim2
     000099C1  C$stm8s_tim2.c$694$1_0$422         stm8s_tim2
     000099C1  C$stm8s_tim2.c$700$1_0$422         stm8s_tim2
     000099C1  G$TIM2_OC2PolarityConfig$0$0       stm8s_tim2
     000099C1  _TIM2_OC2PolarityConfig            stm8s_tim2
     000099C3  A$stm8s_tim2STM8S_StdPeriph_Lib/   stm8s_tim2
ASxxxx Linker V03.00 + NoICE + sdld,  page 103.
Hexadecimal  [32-Bits]

Area                                    Addr        Size        Decimal Bytes (Attributes)
--------------------------------        ----        ----        ------- ----- ------------
CODE                                000082B4    0000592D =       22829. bytes (REL,CON)

      Value  Global                              Global Defined In Module
      -----  --------------------------------   ------------------------
     000099C5  A$stm8s_tim2STM8S_StdPeriph_Lib/   stm8s_tim2
     000099C5  C$stm8s_tim2.c$702$2_0$423         stm8s_tim2
     000099C9  A$stm8s_tim2STM8S_StdPeriph_Lib/   stm8s_tim2
     000099CB  A$stm8s_tim2STM8S_StdPeriph_Lib/   stm8s_tim2
     000099CB  C$stm8s_tim2.c$706$2_0$424         stm8s_tim2
     000099CF  A$stm8s_tim2STM8S_StdPeriph_Lib/   stm8s_tim2
     000099CF  C$stm8s_tim2.c$708$1_0$422         stm8s_tim2
     000099CF  XG$TIM2_OC2PolarityConfig$0$0      stm8s_tim2
     000099D0  A$stm8s_tim2STM8S_StdPeriph_Lib/   stm8s_tim2
     000099D0  C$stm8s_tim2.c$718$1_0$426         stm8s_tim2
     000099D0  C$stm8s_tim2.c$724$1_0$426         stm8s_tim2
     000099D0  G$TIM2_OC3PolarityConfig$0$0       stm8s_tim2
     000099D0  _TIM2_OC3PolarityConfig            stm8s_tim2
     000099D2  A$stm8s_tim2STM8S_StdPeriph_Lib/   stm8s_tim2
     000099D4  A$stm8s_tim2STM8S_StdPeriph_Lib/   stm8s_tim2
     000099D4  C$stm8s_tim2.c$726$2_0$427         stm8s_tim2
     000099D8  A$stm8s_tim2STM8S_StdPeriph_Lib/   stm8s_tim2
     000099DA  A$stm8s_tim2STM8S_StdPeriph_Lib/   stm8s_tim2
     000099DA  C$stm8s_tim2.c$730$2_0$428         stm8s_tim2
     000099DE  A$stm8s_tim2STM8S_StdPeriph_Lib/   stm8s_tim2
     000099DE  C$stm8s_tim2.c$732$1_0$426         stm8s_tim2
     000099DE  XG$TIM2_OC3PolarityConfig$0$0      stm8s_tim2
     000099DF  A$stm8s_tim2STM8S_StdPeriph_Lib/   stm8s_tim2
     000099DF  C$stm8s_tim2.c$745$1_0$430         stm8s_tim2
     000099DF  C$stm8s_tim2.c$751$1_0$430         stm8s_tim2
     000099DF  G$TIM2_CCxCmd$0$0                  stm8s_tim2
     000099DF  _TIM2_CCxCmd                       stm8s_tim2
     000099E1  A$stm8s_tim2STM8S_StdPeriph_Lib/   stm8s_tim2
     000099E3  A$stm8s_tim2STM8S_StdPeriph_Lib/   stm8s_tim2
     000099E3  C$stm8s_tim2.c$754$2_0$431         stm8s_tim2
     000099E5  A$stm8s_tim2STM8S_StdPeriph_Lib/   stm8s_tim2
     000099E7  A$stm8s_tim2STM8S_StdPeriph_Lib/   stm8s_tim2
     000099E7  C$stm8s_tim2.c$756$3_0$432         stm8s_tim2
     000099EB  A$stm8s_tim2STM8S_StdPeriph_Lib/   stm8s_tim2
     000099ED  A$stm8s_tim2STM8S_StdPeriph_Lib/   stm8s_tim2
     000099ED  C$stm8s_tim2.c$760$3_0$433         stm8s_tim2
     000099F1  A$stm8s_tim2STM8S_StdPeriph_Lib/   stm8s_tim2
     000099F3  A$stm8s_tim2STM8S_StdPeriph_Lib/   stm8s_tim2
     000099F3  C$stm8s_tim2.c$764$1_0$430         stm8s_tim2
     000099F5  A$stm8s_tim2STM8S_StdPeriph_Lib/   stm8s_tim2
     000099F6  A$stm8s_tim2STM8S_StdPeriph_Lib/   stm8s_tim2
     000099F8  A$stm8s_tim2STM8S_StdPeriph_Lib/   stm8s_tim2
     000099F8  C$stm8s_tim2.c$767$2_0$434         stm8s_tim2
     000099FA  A$stm8s_tim2STM8S_StdPeriph_Lib/   stm8s_tim2
     000099FC  A$stm8s_tim2STM8S_StdPeriph_Lib/   stm8s_tim2
     000099FC  C$stm8s_tim2.c$769$3_0$435         stm8s_tim2
     00009A00  A$stm8s_tim2STM8S_StdPeriph_Lib/   stm8s_tim2
     00009A02  A$stm8s_tim2STM8S_StdPeriph_Lib/   stm8s_tim2
     00009A02  C$stm8s_tim2.c$773$3_0$436         stm8s_tim2
     00009A06  A$stm8s_tim2STM8S_StdPeriph_Lib/   stm8s_tim2
     00009A08  A$stm8s_tim2STM8S_StdPeriph_Lib/   stm8s_tim2
ASxxxx Linker V03.00 + NoICE + sdld,  page 104.
Hexadecimal  [32-Bits]

Area                                    Addr        Size        Decimal Bytes (Attributes)
--------------------------------        ----        ----        ------- ----- ------------
CODE                                000082B4    0000592D =       22829. bytes (REL,CON)

      Value  Global                              Global Defined In Module
      -----  --------------------------------   ------------------------
     00009A08  C$stm8s_tim2.c$779$2_0$437         stm8s_tim2
     00009A0A  A$stm8s_tim2STM8S_StdPeriph_Lib/   stm8s_tim2
     00009A0C  A$stm8s_tim2STM8S_StdPeriph_Lib/   stm8s_tim2
     00009A0C  C$stm8s_tim2.c$781$3_0$438         stm8s_tim2
     00009A10  A$stm8s_tim2STM8S_StdPeriph_Lib/   stm8s_tim2
     00009A12  A$stm8s_tim2STM8S_StdPeriph_Lib/   stm8s_tim2
     00009A12  C$stm8s_tim2.c$785$3_0$439         stm8s_tim2
     00009A16  A$stm8s_tim2STM8S_StdPeriph_Lib/   stm8s_tim2
     00009A16  C$stm8s_tim2.c$788$1_0$430         stm8s_tim2
     00009A16  XG$TIM2_CCxCmd$0$0                 stm8s_tim2
     00009A17  A$stm8s_tim2STM8S_StdPeriph_Lib/   stm8s_tim2
     00009A17  C$stm8s_tim2.c$810$1_0$441         stm8s_tim2
     00009A17  C$stm8s_tim2.c$816$1_0$441         stm8s_tim2
     00009A17  G$TIM2_SelectOCxM$0$0              stm8s_tim2
     00009A17  _TIM2_SelectOCxM                   stm8s_tim2
     00009A19  A$stm8s_tim2STM8S_StdPeriph_Lib/   stm8s_tim2
     00009A1B  A$stm8s_tim2STM8S_StdPeriph_Lib/   stm8s_tim2
     00009A1B  C$stm8s_tim2.c$819$2_0$442         stm8s_tim2
     00009A1F  A$stm8s_tim2STM8S_StdPeriph_Lib/   stm8s_tim2
     00009A1F  C$stm8s_tim2.c$822$2_0$442         stm8s_tim2
     00009A22  A$stm8s_tim2STM8S_StdPeriph_Lib/   stm8s_tim2
     00009A24  A$stm8s_tim2STM8S_StdPeriph_Lib/   stm8s_tim2
     00009A24  C$stm8s_tim2.c$823$2_0$442         stm8s_tim2
     00009A26  A$stm8s_tim2STM8S_StdPeriph_Lib/   stm8s_tim2
     00009A29  A$stm8s_tim2STM8S_StdPeriph_Lib/   stm8s_tim2
     00009A2B  A$stm8s_tim2STM8S_StdPeriph_Lib/   stm8s_tim2
     00009A2B  C$stm8s_tim2.c$825$1_0$441         stm8s_tim2
     00009A2D  A$stm8s_tim2STM8S_StdPeriph_Lib/   stm8s_tim2
     00009A2E  A$stm8s_tim2STM8S_StdPeriph_Lib/   stm8s_tim2
     00009A30  A$stm8s_tim2STM8S_StdPeriph_Lib/   stm8s_tim2
     00009A30  C$stm8s_tim2.c$828$2_0$443         stm8s_tim2
     00009A34  A$stm8s_tim2STM8S_StdPeriph_Lib/   stm8s_tim2
     00009A34  C$stm8s_tim2.c$831$2_0$443         stm8s_tim2
     00009A37  A$stm8s_tim2STM8S_StdPeriph_Lib/   stm8s_tim2
     00009A39  A$stm8s_tim2STM8S_StdPeriph_Lib/   stm8s_tim2
     00009A39  C$stm8s_tim2.c$832$2_0$443         stm8s_tim2
     00009A3B  A$stm8s_tim2STM8S_StdPeriph_Lib/   stm8s_tim2
     00009A3E  A$stm8s_tim2STM8S_StdPeriph_Lib/   stm8s_tim2
     00009A40  A$stm8s_tim2STM8S_StdPeriph_Lib/   stm8s_tim2
     00009A40  C$stm8s_tim2.c$837$2_0$444         stm8s_tim2
     00009A44  A$stm8s_tim2STM8S_StdPeriph_Lib/   stm8s_tim2
     00009A44  C$stm8s_tim2.c$840$2_0$444         stm8s_tim2
     00009A47  A$stm8s_tim2STM8S_StdPeriph_Lib/   stm8s_tim2
     00009A49  A$stm8s_tim2STM8S_StdPeriph_Lib/   stm8s_tim2
     00009A49  C$stm8s_tim2.c$841$2_0$444         stm8s_tim2
     00009A4B  A$stm8s_tim2STM8S_StdPeriph_Lib/   stm8s_tim2
     00009A4E  A$stm8s_tim2STM8S_StdPeriph_Lib/   stm8s_tim2
     00009A4E  C$stm8s_tim2.c$843$1_0$441         stm8s_tim2
     00009A4E  XG$TIM2_SelectOCxM$0$0             stm8s_tim2
     00009A4F  A$stm8s_tim2STM8S_StdPeriph_Lib/   stm8s_tim2
     00009A4F  C$stm8s_tim2.c$851$1_0$446         stm8s_tim2
ASxxxx Linker V03.00 + NoICE + sdld,  page 105.
Hexadecimal  [32-Bits]

Area                                    Addr        Size        Decimal Bytes (Attributes)
--------------------------------        ----        ----        ------- ----- ------------
CODE                                000082B4    0000592D =       22829. bytes (REL,CON)

      Value  Global                              Global Defined In Module
      -----  --------------------------------   ------------------------
     00009A4F  G$TIM2_SetCounter$0$0              stm8s_tim2
     00009A4F  _TIM2_SetCounter                   stm8s_tim2
     00009A51  A$stm8s_tim2STM8S_StdPeriph_Lib/   stm8s_tim2
     00009A51  C$stm8s_tim2.c$854$1_0$446         stm8s_tim2
     00009A53  A$stm8s_tim2STM8S_StdPeriph_Lib/   stm8s_tim2
     00009A55  A$stm8s_tim2STM8S_StdPeriph_Lib/   stm8s_tim2
     00009A57  A$stm8s_tim2STM8S_StdPeriph_Lib/   stm8s_tim2
     00009A59  A$stm8s_tim2STM8S_StdPeriph_Lib/   stm8s_tim2
     00009A5C  A$stm8s_tim2STM8S_StdPeriph_Lib/   stm8s_tim2
     00009A5C  C$stm8s_tim2.c$855$1_0$446         stm8s_tim2
     00009A5E  A$stm8s_tim2STM8S_StdPeriph_Lib/   stm8s_tim2
     00009A61  A$stm8s_tim2STM8S_StdPeriph_Lib/   stm8s_tim2
     00009A63  A$stm8s_tim2STM8S_StdPeriph_Lib/   stm8s_tim2
     00009A63  C$stm8s_tim2.c$856$1_0$446         stm8s_tim2
     00009A63  XG$TIM2_SetCounter$0$0             stm8s_tim2
     00009A64  A$stm8s_tim2STM8S_StdPeriph_Lib/   stm8s_tim2
     00009A64  C$stm8s_tim2.c$864$1_0$448         stm8s_tim2
     00009A64  G$TIM2_SetAutoreload$0$0           stm8s_tim2
     00009A64  _TIM2_SetAutoreload                stm8s_tim2
     00009A66  A$stm8s_tim2STM8S_StdPeriph_Lib/   stm8s_tim2
     00009A66  C$stm8s_tim2.c$867$1_0$448         stm8s_tim2
     00009A68  A$stm8s_tim2STM8S_StdPeriph_Lib/   stm8s_tim2
     00009A6A  A$stm8s_tim2STM8S_StdPeriph_Lib/   stm8s_tim2
     00009A6C  A$stm8s_tim2STM8S_StdPeriph_Lib/   stm8s_tim2
     00009A6E  A$stm8s_tim2STM8S_StdPeriph_Lib/   stm8s_tim2
     00009A71  A$stm8s_tim2STM8S_StdPeriph_Lib/   stm8s_tim2
     00009A71  C$stm8s_tim2.c$868$1_0$448         stm8s_tim2
     00009A73  A$stm8s_tim2STM8S_StdPeriph_Lib/   stm8s_tim2
     00009A76  A$stm8s_tim2STM8S_StdPeriph_Lib/   stm8s_tim2
     00009A78  A$stm8s_tim2STM8S_StdPeriph_Lib/   stm8s_tim2
     00009A78  C$stm8s_tim2.c$869$1_0$448         stm8s_tim2
     00009A78  XG$TIM2_SetAutoreload$0$0          stm8s_tim2
     00009A79  A$stm8s_tim2STM8S_StdPeriph_Lib/   stm8s_tim2
     00009A79  C$stm8s_tim2.c$877$1_0$450         stm8s_tim2
     00009A79  G$TIM2_SetCompare1$0$0             stm8s_tim2
     00009A79  _TIM2_SetCompare1                  stm8s_tim2
     00009A7B  A$stm8s_tim2STM8S_StdPeriph_Lib/   stm8s_tim2
     00009A7B  C$stm8s_tim2.c$880$1_0$450         stm8s_tim2
     00009A7D  A$stm8s_tim2STM8S_StdPeriph_Lib/   stm8s_tim2
     00009A7F  A$stm8s_tim2STM8S_StdPeriph_Lib/   stm8s_tim2
     00009A81  A$stm8s_tim2STM8S_StdPeriph_Lib/   stm8s_tim2
     00009A83  A$stm8s_tim2STM8S_StdPeriph_Lib/   stm8s_tim2
     00009A86  A$stm8s_tim2STM8S_StdPeriph_Lib/   stm8s_tim2
     00009A86  C$stm8s_tim2.c$881$1_0$450         stm8s_tim2
     00009A88  A$stm8s_tim2STM8S_StdPeriph_Lib/   stm8s_tim2
     00009A8B  A$stm8s_tim2STM8S_StdPeriph_Lib/   stm8s_tim2
     00009A8D  A$stm8s_tim2STM8S_StdPeriph_Lib/   stm8s_tim2
     00009A8D  C$stm8s_tim2.c$882$1_0$450         stm8s_tim2
     00009A8D  XG$TIM2_SetCompare1$0$0            stm8s_tim2
     00009A8E  A$stm8s_tim2STM8S_StdPeriph_Lib/   stm8s_tim2
     00009A8E  C$stm8s_tim2.c$890$1_0$452         stm8s_tim2
ASxxxx Linker V03.00 + NoICE + sdld,  page 106.
Hexadecimal  [32-Bits]

Area                                    Addr        Size        Decimal Bytes (Attributes)
--------------------------------        ----        ----        ------- ----- ------------
CODE                                000082B4    0000592D =       22829. bytes (REL,CON)

      Value  Global                              Global Defined In Module
      -----  --------------------------------   ------------------------
     00009A8E  G$TIM2_SetCompare2$0$0             stm8s_tim2
     00009A8E  _TIM2_SetCompare2                  stm8s_tim2
     00009A90  A$stm8s_tim2STM8S_StdPeriph_Lib/   stm8s_tim2
     00009A90  C$stm8s_tim2.c$893$1_0$452         stm8s_tim2
     00009A92  A$stm8s_tim2STM8S_StdPeriph_Lib/   stm8s_tim2
     00009A94  A$stm8s_tim2STM8S_StdPeriph_Lib/   stm8s_tim2
     00009A96  A$stm8s_tim2STM8S_StdPeriph_Lib/   stm8s_tim2
     00009A98  A$stm8s_tim2STM8S_StdPeriph_Lib/   stm8s_tim2
     00009A9B  A$stm8s_tim2STM8S_StdPeriph_Lib/   stm8s_tim2
     00009A9B  C$stm8s_tim2.c$894$1_0$452         stm8s_tim2
     00009A9D  A$stm8s_tim2STM8S_StdPeriph_Lib/   stm8s_tim2
     00009AA0  A$stm8s_tim2STM8S_StdPeriph_Lib/   stm8s_tim2
     00009AA2  A$stm8s_tim2STM8S_StdPeriph_Lib/   stm8s_tim2
     00009AA2  C$stm8s_tim2.c$895$1_0$452         stm8s_tim2
     00009AA2  XG$TIM2_SetCompare2$0$0            stm8s_tim2
     00009AA3  A$stm8s_tim2STM8S_StdPeriph_Lib/   stm8s_tim2
     00009AA3  C$stm8s_tim2.c$903$1_0$454         stm8s_tim2
     00009AA3  G$TIM2_SetCompare3$0$0             stm8s_tim2
     00009AA3  _TIM2_SetCompare3                  stm8s_tim2
     00009AA5  A$stm8s_tim2STM8S_StdPeriph_Lib/   stm8s_tim2
     00009AA5  C$stm8s_tim2.c$906$1_0$454         stm8s_tim2
     00009AA7  A$stm8s_tim2STM8S_StdPeriph_Lib/   stm8s_tim2
     00009AA9  A$stm8s_tim2STM8S_StdPeriph_Lib/   stm8s_tim2
     00009AAB  A$stm8s_tim2STM8S_StdPeriph_Lib/   stm8s_tim2
     00009AAD  A$stm8s_tim2STM8S_StdPeriph_Lib/   stm8s_tim2
     00009AB0  A$stm8s_tim2STM8S_StdPeriph_Lib/   stm8s_tim2
     00009AB0  C$stm8s_tim2.c$907$1_0$454         stm8s_tim2
     00009AB2  A$stm8s_tim2STM8S_StdPeriph_Lib/   stm8s_tim2
     00009AB5  A$stm8s_tim2STM8S_StdPeriph_Lib/   stm8s_tim2
     00009AB7  A$stm8s_tim2STM8S_StdPeriph_Lib/   stm8s_tim2
     00009AB7  C$stm8s_tim2.c$908$1_0$454         stm8s_tim2
     00009AB7  XG$TIM2_SetCompare3$0$0            stm8s_tim2
     00009AB8  A$stm8s_tim2STM8S_StdPeriph_Lib/   stm8s_tim2
     00009AB8  C$stm8s_tim2.c$920$1_0$456         stm8s_tim2
     00009AB8  C$stm8s_tim2.c$926$1_0$456         stm8s_tim2
     00009AB8  G$TIM2_SetIC1Prescaler$0$0         stm8s_tim2
     00009AB8  _TIM2_SetIC1Prescaler              stm8s_tim2
     00009ABB  A$stm8s_tim2STM8S_StdPeriph_Lib/   stm8s_tim2
     00009ABD  A$stm8s_tim2STM8S_StdPeriph_Lib/   stm8s_tim2
     00009ABD  C$stm8s_tim2.c$927$1_0$456         stm8s_tim2
     00009ABF  A$stm8s_tim2STM8S_StdPeriph_Lib/   stm8s_tim2
     00009AC2  A$stm8s_tim2STM8S_StdPeriph_Lib/   stm8s_tim2
     00009AC2  C$stm8s_tim2.c$928$1_0$456         stm8s_tim2
     00009AC2  XG$TIM2_SetIC1Prescaler$0$0        stm8s_tim2
     00009AC3  A$stm8s_tim2STM8S_StdPeriph_Lib/   stm8s_tim2
     00009AC3  C$stm8s_tim2.c$940$1_0$458         stm8s_tim2
     00009AC3  C$stm8s_tim2.c$946$1_0$458         stm8s_tim2
     00009AC3  G$TIM2_SetIC2Prescaler$0$0         stm8s_tim2
     00009AC3  _TIM2_SetIC2Prescaler              stm8s_tim2
     00009AC6  A$stm8s_tim2STM8S_StdPeriph_Lib/   stm8s_tim2
     00009AC8  A$stm8s_tim2STM8S_StdPeriph_Lib/   stm8s_tim2
ASxxxx Linker V03.00 + NoICE + sdld,  page 107.
Hexadecimal  [32-Bits]

Area                                    Addr        Size        Decimal Bytes (Attributes)
--------------------------------        ----        ----        ------- ----- ------------
CODE                                000082B4    0000592D =       22829. bytes (REL,CON)

      Value  Global                              Global Defined In Module
      -----  --------------------------------   ------------------------
     00009AC8  C$stm8s_tim2.c$947$1_0$458         stm8s_tim2
     00009ACA  A$stm8s_tim2STM8S_StdPeriph_Lib/   stm8s_tim2
     00009ACD  A$stm8s_tim2STM8S_StdPeriph_Lib/   stm8s_tim2
     00009ACD  C$stm8s_tim2.c$948$1_0$458         stm8s_tim2
     00009ACD  XG$TIM2_SetIC2Prescaler$0$0        stm8s_tim2
     00009ACE  A$stm8s_tim2STM8S_StdPeriph_Lib/   stm8s_tim2
     00009ACE  C$stm8s_tim2.c$960$1_0$460         stm8s_tim2
     00009ACE  C$stm8s_tim2.c$966$1_0$460         stm8s_tim2
     00009ACE  G$TIM2_SetIC3Prescaler$0$0         stm8s_tim2
     00009ACE  _TIM2_SetIC3Prescaler              stm8s_tim2
     00009AD1  A$stm8s_tim2STM8S_StdPeriph_Lib/   stm8s_tim2
     00009AD3  A$stm8s_tim2STM8S_StdPeriph_Lib/   stm8s_tim2
     00009AD3  C$stm8s_tim2.c$967$1_0$460         stm8s_tim2
     00009AD5  A$stm8s_tim2STM8S_StdPeriph_Lib/   stm8s_tim2
     00009AD8  A$stm8s_tim2STM8S_StdPeriph_Lib/   stm8s_tim2
     00009AD8  C$stm8s_tim2.c$968$1_0$460         stm8s_tim2
     00009AD8  XG$TIM2_SetIC3Prescaler$0$0        stm8s_tim2
     00009AD9  A$stm8s_tim2STM8S_StdPeriph_Lib/   stm8s_tim2
     00009AD9  C$stm8s_tim2.c$975$1_0$462         stm8s_tim2
     00009AD9  G$TIM2_GetCapture1$0$0             stm8s_tim2
     00009AD9  _TIM2_GetCapture1                  stm8s_tim2
     00009ADB  A$stm8s_tim2STM8S_StdPeriph_Lib/   stm8s_tim2
     00009ADB  C$stm8s_tim2.c$981$1_0$462         stm8s_tim2
     00009ADE  A$stm8s_tim2STM8S_StdPeriph_Lib/   stm8s_tim2
     00009ADF  A$stm8s_tim2STM8S_StdPeriph_Lib/   stm8s_tim2
     00009ADF  C$stm8s_tim2.c$982$1_0$462         stm8s_tim2
     00009AE2  A$stm8s_tim2STM8S_StdPeriph_Lib/   stm8s_tim2
     00009AE2  C$stm8s_tim2.c$984$1_0$462         stm8s_tim2
     00009AE3  A$stm8s_tim2STM8S_StdPeriph_Lib/   stm8s_tim2
     00009AE4  A$stm8s_tim2STM8S_StdPeriph_Lib/   stm8s_tim2
     00009AE4  C$stm8s_tim2.c$985$1_0$462         stm8s_tim2
     00009AE6  A$stm8s_tim2STM8S_StdPeriph_Lib/   stm8s_tim2
     00009AE7  A$stm8s_tim2STM8S_StdPeriph_Lib/   stm8s_tim2
     00009AE9  A$stm8s_tim2STM8S_StdPeriph_Lib/   stm8s_tim2
     00009AEA  A$stm8s_tim2STM8S_StdPeriph_Lib/   stm8s_tim2
     00009AEB  A$stm8s_tim2STM8S_StdPeriph_Lib/   stm8s_tim2
     00009AED  A$stm8s_tim2STM8S_StdPeriph_Lib/   stm8s_tim2
     00009AEE  A$stm8s_tim2STM8S_StdPeriph_Lib/   stm8s_tim2
     00009AEE  C$stm8s_tim2.c$987$1_0$462         stm8s_tim2
     00009AF0  A$stm8s_tim2STM8S_StdPeriph_Lib/   stm8s_tim2
     00009AF0  C$stm8s_tim2.c$988$1_0$462         stm8s_tim2
     00009AF0  XG$TIM2_GetCapture1$0$0            stm8s_tim2
     00009AF1  A$stm8s_tim2STM8S_StdPeriph_Lib/   stm8s_tim2
     00009AF1  C$stm8s_tim2.c$995$1_0$464         stm8s_tim2
     00009AF1  G$TIM2_GetCapture2$0$0             stm8s_tim2
     00009AF1  _TIM2_GetCapture2                  stm8s_tim2
     00009AF3  A$stm8s_tim2STM8S_StdPeriph_Lib/   stm8s_tim2
     00009AF3  C$stm8s_tim2.c$1001$1_0$464        stm8s_tim2
     00009AF6  A$stm8s_tim2STM8S_StdPeriph_Lib/   stm8s_tim2
     00009AF7  A$stm8s_tim2STM8S_StdPeriph_Lib/   stm8s_tim2
     00009AF7  C$stm8s_tim2.c$1002$1_0$464        stm8s_tim2
ASxxxx Linker V03.00 + NoICE + sdld,  page 108.
Hexadecimal  [32-Bits]

Area                                    Addr        Size        Decimal Bytes (Attributes)
--------------------------------        ----        ----        ------- ----- ------------
CODE                                000082B4    0000592D =       22829. bytes (REL,CON)

      Value  Global                              Global Defined In Module
      -----  --------------------------------   ------------------------
     00009AFA  A$stm8s_tim2STM8S_StdPeriph_Lib/   stm8s_tim2
     00009AFA  C$stm8s_tim2.c$1004$1_0$464        stm8s_tim2
     00009AFB  A$stm8s_tim2STM8S_StdPeriph_Lib/   stm8s_tim2
     00009AFC  A$stm8s_tim2STM8S_StdPeriph_Lib/   stm8s_tim2
     00009AFC  C$stm8s_tim2.c$1005$1_0$464        stm8s_tim2
     00009AFE  A$stm8s_tim2STM8S_StdPeriph_Lib/   stm8s_tim2
     00009AFF  A$stm8s_tim2STM8S_StdPeriph_Lib/   stm8s_tim2
     00009B01  A$stm8s_tim2STM8S_StdPeriph_Lib/   stm8s_tim2
     00009B02  A$stm8s_tim2STM8S_StdPeriph_Lib/   stm8s_tim2
     00009B03  A$stm8s_tim2STM8S_StdPeriph_Lib/   stm8s_tim2
     00009B05  A$stm8s_tim2STM8S_StdPeriph_Lib/   stm8s_tim2
     00009B06  A$stm8s_tim2STM8S_StdPeriph_Lib/   stm8s_tim2
     00009B06  C$stm8s_tim2.c$1007$1_0$464        stm8s_tim2
     00009B08  A$stm8s_tim2STM8S_StdPeriph_Lib/   stm8s_tim2
     00009B08  C$stm8s_tim2.c$1008$1_0$464        stm8s_tim2
     00009B08  XG$TIM2_GetCapture2$0$0            stm8s_tim2
     00009B09  A$stm8s_tim2STM8S_StdPeriph_Lib/   stm8s_tim2
     00009B09  C$stm8s_tim2.c$1015$1_0$466        stm8s_tim2
     00009B09  G$TIM2_GetCapture3$0$0             stm8s_tim2
     00009B09  _TIM2_GetCapture3                  stm8s_tim2
     00009B0B  A$stm8s_tim2STM8S_StdPeriph_Lib/   stm8s_tim2
     00009B0B  C$stm8s_tim2.c$1021$1_0$466        stm8s_tim2
     00009B0E  A$stm8s_tim2STM8S_StdPeriph_Lib/   stm8s_tim2
     00009B0F  A$stm8s_tim2STM8S_StdPeriph_Lib/   stm8s_tim2
     00009B0F  C$stm8s_tim2.c$1022$1_0$466        stm8s_tim2
     00009B12  A$stm8s_tim2STM8S_StdPeriph_Lib/   stm8s_tim2
     00009B12  C$stm8s_tim2.c$1024$1_0$466        stm8s_tim2
     00009B13  A$stm8s_tim2STM8S_StdPeriph_Lib/   stm8s_tim2
     00009B14  A$stm8s_tim2STM8S_StdPeriph_Lib/   stm8s_tim2
     00009B14  C$stm8s_tim2.c$1025$1_0$466        stm8s_tim2
     00009B16  A$stm8s_tim2STM8S_StdPeriph_Lib/   stm8s_tim2
     00009B17  A$stm8s_tim2STM8S_StdPeriph_Lib/   stm8s_tim2
     00009B19  A$stm8s_tim2STM8S_StdPeriph_Lib/   stm8s_tim2
     00009B1A  A$stm8s_tim2STM8S_StdPeriph_Lib/   stm8s_tim2
     00009B1B  A$stm8s_tim2STM8S_StdPeriph_Lib/   stm8s_tim2
     00009B1D  A$stm8s_tim2STM8S_StdPeriph_Lib/   stm8s_tim2
     00009B1E  A$stm8s_tim2STM8S_StdPeriph_Lib/   stm8s_tim2
     00009B1E  C$stm8s_tim2.c$1027$1_0$466        stm8s_tim2
     00009B20  A$stm8s_tim2STM8S_StdPeriph_Lib/   stm8s_tim2
     00009B20  C$stm8s_tim2.c$1028$1_0$466        stm8s_tim2
     00009B20  XG$TIM2_GetCapture3$0$0            stm8s_tim2
     00009B21  A$stm8s_tim2STM8S_StdPeriph_Lib/   stm8s_tim2
     00009B21  C$stm8s_tim2.c$1035$1_0$468        stm8s_tim2
     00009B21  G$TIM2_GetCounter$0$0              stm8s_tim2
     00009B21  _TIM2_GetCounter                   stm8s_tim2
     00009B23  A$stm8s_tim2STM8S_StdPeriph_Lib/   stm8s_tim2
     00009B23  C$stm8s_tim2.c$1039$1_0$468        stm8s_tim2
     00009B26  A$stm8s_tim2STM8S_StdPeriph_Lib/   stm8s_tim2
     00009B27  A$stm8s_tim2STM8S_StdPeriph_Lib/   stm8s_tim2
     00009B28  A$stm8s_tim2STM8S_StdPeriph_Lib/   stm8s_tim2
     00009B2A  A$stm8s_tim2STM8S_StdPeriph_Lib/   stm8s_tim2
ASxxxx Linker V03.00 + NoICE + sdld,  page 109.
Hexadecimal  [32-Bits]

Area                                    Addr        Size        Decimal Bytes (Attributes)
--------------------------------        ----        ----        ------- ----- ------------
CODE                                000082B4    0000592D =       22829. bytes (REL,CON)

      Value  Global                              Global Defined In Module
      -----  --------------------------------   ------------------------
     00009B2A  C$stm8s_tim2.c$1041$1_0$468        stm8s_tim2
     00009B2D  A$stm8s_tim2STM8S_StdPeriph_Lib/   stm8s_tim2
     00009B2F  A$stm8s_tim2STM8S_StdPeriph_Lib/   stm8s_tim2
     00009B31  A$stm8s_tim2STM8S_StdPeriph_Lib/   stm8s_tim2
     00009B33  A$stm8s_tim2STM8S_StdPeriph_Lib/   stm8s_tim2
     00009B35  A$stm8s_tim2STM8S_StdPeriph_Lib/   stm8s_tim2
     00009B36  A$stm8s_tim2STM8S_StdPeriph_Lib/   stm8s_tim2
     00009B38  A$stm8s_tim2STM8S_StdPeriph_Lib/   stm8s_tim2
     00009B39  A$stm8s_tim2STM8S_StdPeriph_Lib/   stm8s_tim2
     00009B3B  A$stm8s_tim2STM8S_StdPeriph_Lib/   stm8s_tim2
     00009B3B  C$stm8s_tim2.c$1042$1_0$468        stm8s_tim2
     00009B3B  XG$TIM2_GetCounter$0$0             stm8s_tim2
     00009B3C  A$stm8s_tim2STM8S_StdPeriph_Lib/   stm8s_tim2
     00009B3C  C$stm8s_tim2.c$1049$1_0$470        stm8s_tim2
     00009B3C  C$stm8s_tim2.c$1052$1_0$470        stm8s_tim2
     00009B3C  G$TIM2_GetPrescaler$0$0            stm8s_tim2
     00009B3C  _TIM2_GetPrescaler                 stm8s_tim2
     00009B3F  A$stm8s_tim2STM8S_StdPeriph_Lib/   stm8s_tim2
     00009B3F  C$stm8s_tim2.c$1053$1_0$470        stm8s_tim2
     00009B3F  XG$TIM2_GetPrescaler$0$0           stm8s_tim2
     00009B40  A$stm8s_tim2STM8S_StdPeriph_Lib/   stm8s_tim2
     00009B40  C$stm8s_tim2.c$1068$1_0$472        stm8s_tim2
     00009B40  G$TIM2_GetFlagStatus$0$0           stm8s_tim2
     00009B40  _TIM2_GetFlagStatus                stm8s_tim2
     00009B42  A$stm8s_tim2STM8S_StdPeriph_Lib/   stm8s_tim2
     00009B42  C$stm8s_tim2.c$1076$1_0$472        stm8s_tim2
     00009B45  A$stm8s_tim2STM8S_StdPeriph_Lib/   stm8s_tim2
     00009B47  A$stm8s_tim2STM8S_StdPeriph_Lib/   stm8s_tim2
     00009B49  A$stm8s_tim2STM8S_StdPeriph_Lib/   stm8s_tim2
     00009B4B  A$stm8s_tim2STM8S_StdPeriph_Lib/   stm8s_tim2
     00009B4D  A$stm8s_tim2STM8S_StdPeriph_Lib/   stm8s_tim2
     00009B4D  C$stm8s_tim2.c$1077$1_0$472        stm8s_tim2
     00009B4F  A$stm8s_tim2STM8S_StdPeriph_Lib/   stm8s_tim2
     00009B51  A$stm8s_tim2STM8S_StdPeriph_Lib/   stm8s_tim2
     00009B53  A$stm8s_tim2STM8S_StdPeriph_Lib/   stm8s_tim2
     00009B53  C$stm8s_tim2.c$1079$1_0$472        stm8s_tim2
     00009B56  A$stm8s_tim2STM8S_StdPeriph_Lib/   stm8s_tim2
     00009B58  A$stm8s_tim2STM8S_StdPeriph_Lib/   stm8s_tim2
     00009B5A  A$stm8s_tim2STM8S_StdPeriph_Lib/   stm8s_tim2
     00009B5C  A$stm8s_tim2STM8S_StdPeriph_Lib/   stm8s_tim2
     00009B5C  C$stm8s_tim2.c$1081$2_0$473        stm8s_tim2
     00009B5E  A$stm8s_tim2STM8S_StdPeriph_Lib/   stm8s_tim2
     00009B60  A$stm8s_tim2STM8S_StdPeriph_Lib/   stm8s_tim2
     00009B60  C$stm8s_tim2.c$1085$2_0$474        stm8s_tim2
     00009B61  A$stm8s_tim2STM8S_StdPeriph_Lib/   stm8s_tim2
     00009B61  C$stm8s_tim2.c$1087$1_0$472        stm8s_tim2
     00009B63  A$stm8s_tim2STM8S_StdPeriph_Lib/   stm8s_tim2
     00009B63  C$stm8s_tim2.c$1088$1_0$472        stm8s_tim2
     00009B63  XG$TIM2_GetFlagStatus$0$0          stm8s_tim2
     00009B64  A$stm8s_tim2STM8S_StdPeriph_Lib/   stm8s_tim2
     00009B64  C$stm8s_tim2.c$1103$1_0$476        stm8s_tim2
ASxxxx Linker V03.00 + NoICE + sdld,  page 110.
Hexadecimal  [32-Bits]

Area                                    Addr        Size        Decimal Bytes (Attributes)
--------------------------------        ----        ----        ------- ----- ------------
CODE                                000082B4    0000592D =       22829. bytes (REL,CON)

      Value  Global                              Global Defined In Module
      -----  --------------------------------   ------------------------
     00009B64  C$stm8s_tim2.c$1109$1_0$476        stm8s_tim2
     00009B64  G$TIM2_ClearFlag$0$0               stm8s_tim2
     00009B64  _TIM2_ClearFlag                    stm8s_tim2
     00009B66  A$stm8s_tim2STM8S_StdPeriph_Lib/   stm8s_tim2
     00009B67  A$stm8s_tim2STM8S_StdPeriph_Lib/   stm8s_tim2
     00009B6A  A$stm8s_tim2STM8S_StdPeriph_Lib/   stm8s_tim2
     00009B6A  C$stm8s_tim2.c$1111$1_0$476        stm8s_tim2
     00009B6C  A$stm8s_tim2STM8S_StdPeriph_Lib/   stm8s_tim2
     00009B6D  A$stm8s_tim2STM8S_StdPeriph_Lib/   stm8s_tim2
     00009B70  A$stm8s_tim2STM8S_StdPeriph_Lib/   stm8s_tim2
     00009B70  C$stm8s_tim2.c$1112$1_0$476        stm8s_tim2
     00009B70  XG$TIM2_ClearFlag$0$0              stm8s_tim2
     00009B71  A$stm8s_tim2STM8S_StdPeriph_Lib/   stm8s_tim2
     00009B71  C$stm8s_tim2.c$1124$1_0$478        stm8s_tim2
     00009B71  G$TIM2_GetITStatus$0$0             stm8s_tim2
     00009B71  _TIM2_GetITStatus                  stm8s_tim2
     00009B72  A$stm8s_tim2STM8S_StdPeriph_Lib/   stm8s_tim2
     00009B72  C$stm8s_tim2.c$1132$1_0$478        stm8s_tim2
     00009B75  A$stm8s_tim2STM8S_StdPeriph_Lib/   stm8s_tim2
     00009B77  A$stm8s_tim2STM8S_StdPeriph_Lib/   stm8s_tim2
     00009B79  A$stm8s_tim2STM8S_StdPeriph_Lib/   stm8s_tim2
     00009B79  C$stm8s_tim2.c$1134$1_0$478        stm8s_tim2
     00009B7C  A$stm8s_tim2STM8S_StdPeriph_Lib/   stm8s_tim2
     00009B7E  A$stm8s_tim2STM8S_StdPeriph_Lib/   stm8s_tim2
     00009B7E  C$stm8s_tim2.c$1136$1_0$478        stm8s_tim2
     00009B80  A$stm8s_tim2STM8S_StdPeriph_Lib/   stm8s_tim2
     00009B82  A$stm8s_tim2STM8S_StdPeriph_Lib/   stm8s_tim2
     00009B83  A$stm8s_tim2STM8S_StdPeriph_Lib/   stm8s_tim2
     00009B85  A$stm8s_tim2STM8S_StdPeriph_Lib/   stm8s_tim2
     00009B85  C$stm8s_tim2.c$1138$2_0$479        stm8s_tim2
     00009B87  A$stm8s_tim2STM8S_StdPeriph_Lib/   stm8s_tim2
     00009B89  A$stm8s_tim2STM8S_StdPeriph_Lib/   stm8s_tim2
     00009B89  C$stm8s_tim2.c$1142$2_0$480        stm8s_tim2
     00009B8A  A$stm8s_tim2STM8S_StdPeriph_Lib/   stm8s_tim2
     00009B8A  C$stm8s_tim2.c$1144$1_0$478        stm8s_tim2
     00009B8C  A$stm8s_tim2STM8S_StdPeriph_Lib/   stm8s_tim2
     00009B8C  C$stm8s_tim2.c$1145$1_0$478        stm8s_tim2
     00009B8C  XG$TIM2_GetITStatus$0$0            stm8s_tim2
     00009B8D  A$stm8s_tim2STM8S_StdPeriph_Lib/   stm8s_tim2
     00009B8D  C$stm8s_tim2.c$1157$1_0$482        stm8s_tim2
     00009B8D  C$stm8s_tim2.c$1163$1_0$482        stm8s_tim2
     00009B8D  G$TIM2_ClearITPendingBit$0$0       stm8s_tim2
     00009B8D  _TIM2_ClearITPendingBit            stm8s_tim2
     00009B8F  A$stm8s_tim2STM8S_StdPeriph_Lib/   stm8s_tim2
     00009B90  A$stm8s_tim2STM8S_StdPeriph_Lib/   stm8s_tim2
     00009B93  A$stm8s_tim2STM8S_StdPeriph_Lib/   stm8s_tim2
     00009B93  C$stm8s_tim2.c$1164$1_0$482        stm8s_tim2
     00009B93  XG$TIM2_ClearITPendingBit$0$0      stm8s_tim2
     00009B94  A$stm8s_tim2STM8S_StdPeriph_Lib/   stm8s_tim2
     00009B94  C$stm8s_tim2.c$1182$1_0$484        stm8s_tim2
     00009B94  Fstm8s_tim2$TI1_Config$0$0         stm8s_tim2
ASxxxx Linker V03.00 + NoICE + sdld,  page 111.
Hexadecimal  [32-Bits]

Area                                    Addr        Size        Decimal Bytes (Attributes)
--------------------------------        ----        ----        ------- ----- ------------
CODE                                000082B4    0000592D =       22829. bytes (REL,CON)

      Value  Global                              Global Defined In Module
      -----  --------------------------------   ------------------------
     00009B95  A$stm8s_tim2STM8S_StdPeriph_Lib/   stm8s_tim2
     00009B95  C$stm8s_tim2.c$1187$1_0$484        stm8s_tim2
     00009B99  A$stm8s_tim2STM8S_StdPeriph_Lib/   stm8s_tim2
     00009B99  C$stm8s_tim2.c$1190$1_0$484        stm8s_tim2
     00009B9C  A$stm8s_tim2STM8S_StdPeriph_Lib/   stm8s_tim2
     00009B9E  A$stm8s_tim2STM8S_StdPeriph_Lib/   stm8s_tim2
     00009BA0  A$stm8s_tim2STM8S_StdPeriph_Lib/   stm8s_tim2
     00009BA0  C$stm8s_tim2.c$1191$1_0$484        stm8s_tim2
     00009BA2  A$stm8s_tim2STM8S_StdPeriph_Lib/   stm8s_tim2
     00009BA3  A$stm8s_tim2STM8S_StdPeriph_Lib/   stm8s_tim2
     00009BA5  A$stm8s_tim2STM8S_StdPeriph_Lib/   stm8s_tim2
     00009BA7  A$stm8s_tim2STM8S_StdPeriph_Lib/   stm8s_tim2
     00009BA9  A$stm8s_tim2STM8S_StdPeriph_Lib/   stm8s_tim2
     00009BAC  A$stm8s_tim2STM8S_StdPeriph_Lib/   stm8s_tim2
     00009BAC  C$stm8s_tim2.c$1194$1_0$484        stm8s_tim2
     00009BAE  A$stm8s_tim2STM8S_StdPeriph_Lib/   stm8s_tim2
     00009BB0  A$stm8s_tim2STM8S_StdPeriph_Lib/   stm8s_tim2
     00009BB0  C$stm8s_tim2.c$1196$2_0$485        stm8s_tim2
     00009BB4  A$stm8s_tim2STM8S_StdPeriph_Lib/   stm8s_tim2
     00009BB6  A$stm8s_tim2STM8S_StdPeriph_Lib/   stm8s_tim2
     00009BB6  C$stm8s_tim2.c$1200$2_0$486        stm8s_tim2
     00009BBA  A$stm8s_tim2STM8S_StdPeriph_Lib/   stm8s_tim2
     00009BBA  C$stm8s_tim2.c$1203$1_0$484        stm8s_tim2
     00009BBE  A$stm8s_tim2STM8S_StdPeriph_Lib/   stm8s_tim2
     00009BBF  A$stm8s_tim2STM8S_StdPeriph_Lib/   stm8s_tim2
     00009BBF  C$stm8s_tim2.c$1204$1_0$484        stm8s_tim2
     00009BBF  XFstm8s_tim2$TI1_Config$0$0        stm8s_tim2
     00009BC0  A$stm8s_tim2STM8S_StdPeriph_Lib/   stm8s_tim2
     00009BC0  C$stm8s_tim2.c$1222$1_0$488        stm8s_tim2
     00009BC0  Fstm8s_tim2$TI2_Config$0$0         stm8s_tim2
     00009BC1  A$stm8s_tim2STM8S_StdPeriph_Lib/   stm8s_tim2
     00009BC1  C$stm8s_tim2.c$1227$1_0$488        stm8s_tim2
     00009BC5  A$stm8s_tim2STM8S_StdPeriph_Lib/   stm8s_tim2
     00009BC5  C$stm8s_tim2.c$1230$1_0$488        stm8s_tim2
     00009BC8  A$stm8s_tim2STM8S_StdPeriph_Lib/   stm8s_tim2
     00009BCA  A$stm8s_tim2STM8S_StdPeriph_Lib/   stm8s_tim2
     00009BCC  A$stm8s_tim2STM8S_StdPeriph_Lib/   stm8s_tim2
     00009BCC  C$stm8s_tim2.c$1231$1_0$488        stm8s_tim2
     00009BCE  A$stm8s_tim2STM8S_StdPeriph_Lib/   stm8s_tim2
     00009BCF  A$stm8s_tim2STM8S_StdPeriph_Lib/   stm8s_tim2
     00009BD1  A$stm8s_tim2STM8S_StdPeriph_Lib/   stm8s_tim2
     00009BD3  A$stm8s_tim2STM8S_StdPeriph_Lib/   stm8s_tim2
     00009BD5  A$stm8s_tim2STM8S_StdPeriph_Lib/   stm8s_tim2
     00009BD8  A$stm8s_tim2STM8S_StdPeriph_Lib/   stm8s_tim2
     00009BD8  C$stm8s_tim2.c$1235$1_0$488        stm8s_tim2
     00009BDA  A$stm8s_tim2STM8S_StdPeriph_Lib/   stm8s_tim2
     00009BDC  A$stm8s_tim2STM8S_StdPeriph_Lib/   stm8s_tim2
     00009BDC  C$stm8s_tim2.c$1237$2_0$489        stm8s_tim2
     00009BE0  A$stm8s_tim2STM8S_StdPeriph_Lib/   stm8s_tim2
     00009BE2  A$stm8s_tim2STM8S_StdPeriph_Lib/   stm8s_tim2
     00009BE2  C$stm8s_tim2.c$1241$2_0$490        stm8s_tim2
ASxxxx Linker V03.00 + NoICE + sdld,  page 112.
Hexadecimal  [32-Bits]

Area                                    Addr        Size        Decimal Bytes (Attributes)
--------------------------------        ----        ----        ------- ----- ------------
CODE                                000082B4    0000592D =       22829. bytes (REL,CON)

      Value  Global                              Global Defined In Module
      -----  --------------------------------   ------------------------
     00009BE6  A$stm8s_tim2STM8S_StdPeriph_Lib/   stm8s_tim2
     00009BE6  C$stm8s_tim2.c$1245$1_0$488        stm8s_tim2
     00009BEA  A$stm8s_tim2STM8S_StdPeriph_Lib/   stm8s_tim2
     00009BEB  A$stm8s_tim2STM8S_StdPeriph_Lib/   stm8s_tim2
     00009BEB  C$stm8s_tim2.c$1246$1_0$488        stm8s_tim2
     00009BEB  XFstm8s_tim2$TI2_Config$0$0        stm8s_tim2
     00009BEC  A$stm8s_tim2STM8S_StdPeriph_Lib/   stm8s_tim2
     00009BEC  C$stm8s_tim2.c$1262$1_0$492        stm8s_tim2
     00009BEC  Fstm8s_tim2$TI3_Config$0$0         stm8s_tim2
     00009BED  A$stm8s_tim2STM8S_StdPeriph_Lib/   stm8s_tim2
     00009BED  C$stm8s_tim2.c$1266$1_0$492        stm8s_tim2
     00009BF1  A$stm8s_tim2STM8S_StdPeriph_Lib/   stm8s_tim2
     00009BF1  C$stm8s_tim2.c$1269$1_0$492        stm8s_tim2
     00009BF4  A$stm8s_tim2STM8S_StdPeriph_Lib/   stm8s_tim2
     00009BF6  A$stm8s_tim2STM8S_StdPeriph_Lib/   stm8s_tim2
     00009BF8  A$stm8s_tim2STM8S_StdPeriph_Lib/   stm8s_tim2
     00009BF8  C$stm8s_tim2.c$1270$1_0$492        stm8s_tim2
     00009BFA  A$stm8s_tim2STM8S_StdPeriph_Lib/   stm8s_tim2
     00009BFB  A$stm8s_tim2STM8S_StdPeriph_Lib/   stm8s_tim2
     00009BFD  A$stm8s_tim2STM8S_StdPeriph_Lib/   stm8s_tim2
     00009BFF  A$stm8s_tim2STM8S_StdPeriph_Lib/   stm8s_tim2
     00009C01  A$stm8s_tim2STM8S_StdPeriph_Lib/   stm8s_tim2
     00009C04  A$stm8s_tim2STM8S_StdPeriph_Lib/   stm8s_tim2
     00009C04  C$stm8s_tim2.c$1274$1_0$492        stm8s_tim2
     00009C06  A$stm8s_tim2STM8S_StdPeriph_Lib/   stm8s_tim2
     00009C08  A$stm8s_tim2STM8S_StdPeriph_Lib/   stm8s_tim2
     00009C08  C$stm8s_tim2.c$1276$2_0$493        stm8s_tim2
     00009C0C  A$stm8s_tim2STM8S_StdPeriph_Lib/   stm8s_tim2
     00009C0E  A$stm8s_tim2STM8S_StdPeriph_Lib/   stm8s_tim2
     00009C0E  C$stm8s_tim2.c$1280$2_0$494        stm8s_tim2
     00009C12  A$stm8s_tim2STM8S_StdPeriph_Lib/   stm8s_tim2
     00009C12  C$stm8s_tim2.c$1283$1_0$492        stm8s_tim2
     00009C16  A$stm8s_tim2STM8S_StdPeriph_Lib/   stm8s_tim2
     00009C17  A$stm8s_tim2STM8S_StdPeriph_Lib/   stm8s_tim2
     00009C17  C$stm8s_tim2.c$1284$1_0$492        stm8s_tim2
     00009C17  XFstm8s_tim2$TI3_Config$0$0        stm8s_tim2
     00009C18  A$stm8s_tim3STM8S_StdPeriph_Lib/   stm8s_tim3
     00009C18  C$stm8s_tim3.c$51$0_0$348          stm8s_tim3
     00009C18  C$stm8s_tim3.c$53$1_0$348          stm8s_tim3
     00009C18  G$TIM3_DeInit$0$0                  stm8s_tim3
     00009C18  _TIM3_DeInit                       stm8s_tim3
     00009C1C  A$stm8s_tim3STM8S_StdPeriph_Lib/   stm8s_tim3
     00009C1C  C$stm8s_tim3.c$54$1_0$348          stm8s_tim3
     00009C20  A$stm8s_tim3STM8S_StdPeriph_Lib/   stm8s_tim3
     00009C20  C$stm8s_tim3.c$55$1_0$348          stm8s_tim3
     00009C24  A$stm8s_tim3STM8S_StdPeriph_Lib/   stm8s_tim3
     00009C24  C$stm8s_tim3.c$58$1_0$348          stm8s_tim3
     00009C28  A$stm8s_tim3STM8S_StdPeriph_Lib/   stm8s_tim3
     00009C28  C$stm8s_tim3.c$61$1_0$348          stm8s_tim3
     00009C2C  A$stm8s_tim3STM8S_StdPeriph_Lib/   stm8s_tim3
     00009C2C  C$stm8s_tim3.c$62$1_0$348          stm8s_tim3
ASxxxx Linker V03.00 + NoICE + sdld,  page 113.
Hexadecimal  [32-Bits]

Area                                    Addr        Size        Decimal Bytes (Attributes)
--------------------------------        ----        ----        ------- ----- ------------
CODE                                000082B4    0000592D =       22829. bytes (REL,CON)

      Value  Global                              Global Defined In Module
      -----  --------------------------------   ------------------------
     00009C30  A$stm8s_tim3STM8S_StdPeriph_Lib/   stm8s_tim3
     00009C30  C$stm8s_tim3.c$63$1_0$348          stm8s_tim3
     00009C34  A$stm8s_tim3STM8S_StdPeriph_Lib/   stm8s_tim3
     00009C34  C$stm8s_tim3.c$64$1_0$348          stm8s_tim3
     00009C38  A$stm8s_tim3STM8S_StdPeriph_Lib/   stm8s_tim3
     00009C38  C$stm8s_tim3.c$65$1_0$348          stm8s_tim3
     00009C3C  A$stm8s_tim3STM8S_StdPeriph_Lib/   stm8s_tim3
     00009C3C  C$stm8s_tim3.c$66$1_0$348          stm8s_tim3
     00009C40  A$stm8s_tim3STM8S_StdPeriph_Lib/   stm8s_tim3
     00009C40  C$stm8s_tim3.c$67$1_0$348          stm8s_tim3
     00009C44  A$stm8s_tim3STM8S_StdPeriph_Lib/   stm8s_tim3
     00009C44  C$stm8s_tim3.c$68$1_0$348          stm8s_tim3
     00009C48  A$stm8s_tim3STM8S_StdPeriph_Lib/   stm8s_tim3
     00009C48  C$stm8s_tim3.c$69$1_0$348          stm8s_tim3
     00009C4C  A$stm8s_tim3STM8S_StdPeriph_Lib/   stm8s_tim3
     00009C4C  C$stm8s_tim3.c$70$1_0$348          stm8s_tim3
     00009C50  A$stm8s_tim3STM8S_StdPeriph_Lib/   stm8s_tim3
     00009C50  C$stm8s_tim3.c$71$1_0$348          stm8s_tim3
     00009C54  A$stm8s_tim3STM8S_StdPeriph_Lib/   stm8s_tim3
     00009C54  C$stm8s_tim3.c$72$1_0$348          stm8s_tim3
     00009C58  A$stm8s_tim3STM8S_StdPeriph_Lib/   stm8s_tim3
     00009C58  C$stm8s_tim3.c$73$1_0$348          stm8s_tim3
     00009C5C  A$stm8s_tim3STM8S_StdPeriph_Lib/   stm8s_tim3
     00009C5C  C$stm8s_tim3.c$74$1_0$348          stm8s_tim3
     00009C5C  XG$TIM3_DeInit$0$0                 stm8s_tim3
     00009C5D  A$stm8s_tim3STM8S_StdPeriph_Lib/   stm8s_tim3
     00009C5D  C$stm8s_tim3.c$82$1_0$350          stm8s_tim3
     00009C5D  G$TIM3_TimeBaseInit$0$0            stm8s_tim3
     00009C5D  _TIM3_TimeBaseInit                 stm8s_tim3
     00009C5F  A$stm8s_tim3STM8S_StdPeriph_Lib/   stm8s_tim3
     00009C5F  C$stm8s_tim3.c$86$1_0$350          stm8s_tim3
     00009C62  A$stm8s_tim3STM8S_StdPeriph_Lib/   stm8s_tim3
     00009C64  A$stm8s_tim3STM8S_StdPeriph_Lib/   stm8s_tim3
     00009C65  A$stm8s_tim3STM8S_StdPeriph_Lib/   stm8s_tim3
     00009C65  C$stm8s_tim3.c$88$1_0$350          stm8s_tim3
     00009C67  A$stm8s_tim3STM8S_StdPeriph_Lib/   stm8s_tim3
     00009C69  A$stm8s_tim3STM8S_StdPeriph_Lib/   stm8s_tim3
     00009C6B  A$stm8s_tim3STM8S_StdPeriph_Lib/   stm8s_tim3
     00009C6D  A$stm8s_tim3STM8S_StdPeriph_Lib/   stm8s_tim3
     00009C70  A$stm8s_tim3STM8S_StdPeriph_Lib/   stm8s_tim3
     00009C70  C$stm8s_tim3.c$89$1_0$350          stm8s_tim3
     00009C72  A$stm8s_tim3STM8S_StdPeriph_Lib/   stm8s_tim3
     00009C75  A$stm8s_tim3STM8S_StdPeriph_Lib/   stm8s_tim3
     00009C77  A$stm8s_tim3STM8S_StdPeriph_Lib/   stm8s_tim3
     00009C77  C$stm8s_tim3.c$90$1_0$350          stm8s_tim3
     00009C77  XG$TIM3_TimeBaseInit$0$0           stm8s_tim3
     00009C78  A$stm8s_tim3STM8S_StdPeriph_Lib/   stm8s_tim3
     00009C78  C$stm8s_tim3.c$100$1_0$352         stm8s_tim3
     00009C78  G$TIM3_OC1Init$0$0                 stm8s_tim3
     00009C78  _TIM3_OC1Init                      stm8s_tim3
     00009C7A  A$stm8s_tim3STM8S_StdPeriph_Lib/   stm8s_tim3
ASxxxx Linker V03.00 + NoICE + sdld,  page 114.
Hexadecimal  [32-Bits]

Area                                    Addr        Size        Decimal Bytes (Attributes)
--------------------------------        ----        ----        ------- ----- ------------
CODE                                000082B4    0000592D =       22829. bytes (REL,CON)

      Value  Global                              Global Defined In Module
      -----  --------------------------------   ------------------------
     00009C7A  C$stm8s_tim3.c$111$1_0$352         stm8s_tim3
     00009C7D  A$stm8s_tim3STM8S_StdPeriph_Lib/   stm8s_tim3
     00009C7F  A$stm8s_tim3STM8S_StdPeriph_Lib/   stm8s_tim3
     00009C82  A$stm8s_tim3STM8S_StdPeriph_Lib/   stm8s_tim3
     00009C82  C$stm8s_tim3.c$113$1_0$352         stm8s_tim3
     00009C85  A$stm8s_tim3STM8S_StdPeriph_Lib/   stm8s_tim3
     00009C87  A$stm8s_tim3STM8S_StdPeriph_Lib/   stm8s_tim3
     00009C89  A$stm8s_tim3STM8S_StdPeriph_Lib/   stm8s_tim3
     00009C8B  A$stm8s_tim3STM8S_StdPeriph_Lib/   stm8s_tim3
     00009C8D  A$stm8s_tim3STM8S_StdPeriph_Lib/   stm8s_tim3
     00009C8F  A$stm8s_tim3STM8S_StdPeriph_Lib/   stm8s_tim3
     00009C91  A$stm8s_tim3STM8S_StdPeriph_Lib/   stm8s_tim3
     00009C93  A$stm8s_tim3STM8S_StdPeriph_Lib/   stm8s_tim3
     00009C95  A$stm8s_tim3STM8S_StdPeriph_Lib/   stm8s_tim3
     00009C98  A$stm8s_tim3STM8S_StdPeriph_Lib/   stm8s_tim3
     00009C98  C$stm8s_tim3.c$116$1_0$352         stm8s_tim3
     00009C9B  A$stm8s_tim3STM8S_StdPeriph_Lib/   stm8s_tim3
     00009C9D  A$stm8s_tim3STM8S_StdPeriph_Lib/   stm8s_tim3
     00009C9F  A$stm8s_tim3STM8S_StdPeriph_Lib/   stm8s_tim3
     00009CA2  A$stm8s_tim3STM8S_StdPeriph_Lib/   stm8s_tim3
     00009CA2  C$stm8s_tim3.c$119$1_0$352         stm8s_tim3
     00009CA4  A$stm8s_tim3STM8S_StdPeriph_Lib/   stm8s_tim3
     00009CA7  A$stm8s_tim3STM8S_StdPeriph_Lib/   stm8s_tim3
     00009CA7  C$stm8s_tim3.c$120$1_0$352         stm8s_tim3
     00009CA9  A$stm8s_tim3STM8S_StdPeriph_Lib/   stm8s_tim3
     00009CAC  A$stm8s_tim3STM8S_StdPeriph_Lib/   stm8s_tim3
     00009CAE  A$stm8s_tim3STM8S_StdPeriph_Lib/   stm8s_tim3
     00009CAE  C$stm8s_tim3.c$121$1_0$352         stm8s_tim3
     00009CAE  XG$TIM3_OC1Init$0$0                stm8s_tim3
     00009CAF  A$stm8s_tim3STM8S_StdPeriph_Lib/   stm8s_tim3
     00009CAF  C$stm8s_tim3.c$131$1_0$354         stm8s_tim3
     00009CAF  G$TIM3_OC2Init$0$0                 stm8s_tim3
     00009CAF  _TIM3_OC2Init                      stm8s_tim3
     00009CB1  A$stm8s_tim3STM8S_StdPeriph_Lib/   stm8s_tim3
     00009CB1  C$stm8s_tim3.c$143$1_0$354         stm8s_tim3
     00009CB4  A$stm8s_tim3STM8S_StdPeriph_Lib/   stm8s_tim3
     00009CB6  A$stm8s_tim3STM8S_StdPeriph_Lib/   stm8s_tim3
     00009CB9  A$stm8s_tim3STM8S_StdPeriph_Lib/   stm8s_tim3
     00009CB9  C$stm8s_tim3.c$145$1_0$354         stm8s_tim3
     00009CBC  A$stm8s_tim3STM8S_StdPeriph_Lib/   stm8s_tim3
     00009CBE  A$stm8s_tim3STM8S_StdPeriph_Lib/   stm8s_tim3
     00009CC0  A$stm8s_tim3STM8S_StdPeriph_Lib/   stm8s_tim3
     00009CC2  A$stm8s_tim3STM8S_StdPeriph_Lib/   stm8s_tim3
     00009CC4  A$stm8s_tim3STM8S_StdPeriph_Lib/   stm8s_tim3
     00009CC6  A$stm8s_tim3STM8S_StdPeriph_Lib/   stm8s_tim3
     00009CC8  A$stm8s_tim3STM8S_StdPeriph_Lib/   stm8s_tim3
     00009CCA  A$stm8s_tim3STM8S_StdPeriph_Lib/   stm8s_tim3
     00009CCC  A$stm8s_tim3STM8S_StdPeriph_Lib/   stm8s_tim3
     00009CCF  A$stm8s_tim3STM8S_StdPeriph_Lib/   stm8s_tim3
     00009CCF  C$stm8s_tim3.c$149$1_0$354         stm8s_tim3
     00009CD2  A$stm8s_tim3STM8S_StdPeriph_Lib/   stm8s_tim3
ASxxxx Linker V03.00 + NoICE + sdld,  page 115.
Hexadecimal  [32-Bits]

Area                                    Addr        Size        Decimal Bytes (Attributes)
--------------------------------        ----        ----        ------- ----- ------------
CODE                                000082B4    0000592D =       22829. bytes (REL,CON)

      Value  Global                              Global Defined In Module
      -----  --------------------------------   ------------------------
     00009CD4  A$stm8s_tim3STM8S_StdPeriph_Lib/   stm8s_tim3
     00009CD6  A$stm8s_tim3STM8S_StdPeriph_Lib/   stm8s_tim3
     00009CD9  A$stm8s_tim3STM8S_StdPeriph_Lib/   stm8s_tim3
     00009CD9  C$stm8s_tim3.c$153$1_0$354         stm8s_tim3
     00009CDB  A$stm8s_tim3STM8S_StdPeriph_Lib/   stm8s_tim3
     00009CDE  A$stm8s_tim3STM8S_StdPeriph_Lib/   stm8s_tim3
     00009CDE  C$stm8s_tim3.c$154$1_0$354         stm8s_tim3
     00009CE0  A$stm8s_tim3STM8S_StdPeriph_Lib/   stm8s_tim3
     00009CE3  A$stm8s_tim3STM8S_StdPeriph_Lib/   stm8s_tim3
     00009CE5  A$stm8s_tim3STM8S_StdPeriph_Lib/   stm8s_tim3
     00009CE5  C$stm8s_tim3.c$155$1_0$354         stm8s_tim3
     00009CE5  XG$TIM3_OC2Init$0$0                stm8s_tim3
     00009CE6  A$stm8s_tim3STM8S_StdPeriph_Lib/   stm8s_tim3
     00009CE6  C$stm8s_tim3.c$166$1_0$356         stm8s_tim3
     00009CE6  C$stm8s_tim3.c$179$1_0$356         stm8s_tim3
     00009CE6  G$TIM3_ICInit$0$0                  stm8s_tim3
     00009CE6  _TIM3_ICInit                       stm8s_tim3
     00009CE8  A$stm8s_tim3STM8S_StdPeriph_Lib/   stm8s_tim3
     00009CE9  A$stm8s_tim3STM8S_StdPeriph_Lib/   stm8s_tim3
     00009CEB  A$stm8s_tim3STM8S_StdPeriph_Lib/   stm8s_tim3
     00009CEB  C$stm8s_tim3.c$182$2_0$357         stm8s_tim3
     00009CED  A$stm8s_tim3STM8S_StdPeriph_Lib/   stm8s_tim3
     00009CEE  A$stm8s_tim3STM8S_StdPeriph_Lib/   stm8s_tim3
     00009CF0  A$stm8s_tim3STM8S_StdPeriph_Lib/   stm8s_tim3
     00009CF1  A$stm8s_tim3STM8S_StdPeriph_Lib/   stm8s_tim3
     00009CF3  A$stm8s_tim3STM8S_StdPeriph_Lib/   stm8s_tim3
     00009CF4  A$stm8s_tim3STM8S_StdPeriph_Lib/   stm8s_tim3
     00009CF7  A$stm8s_tim3STM8S_StdPeriph_Lib/   stm8s_tim3
     00009CF9  A$stm8s_tim3STM8S_StdPeriph_Lib/   stm8s_tim3
     00009CF9  C$stm8s_tim3.c$187$2_0$357         stm8s_tim3
     00009CFB  A$stm8s_tim3STM8S_StdPeriph_Lib/   stm8s_tim3
     00009CFC  A$stm8s_tim3STM8S_StdPeriph_Lib/   stm8s_tim3
     00009CFF  A$stm8s_tim3STM8S_StdPeriph_Lib/   stm8s_tim3
     00009D00  A$stm8s_tim3STM8S_StdPeriph_Lib/   stm8s_tim3
     00009D02  A$stm8s_tim3STM8S_StdPeriph_Lib/   stm8s_tim3
     00009D02  C$stm8s_tim3.c$192$2_0$358         stm8s_tim3
     00009D04  A$stm8s_tim3STM8S_StdPeriph_Lib/   stm8s_tim3
     00009D05  A$stm8s_tim3STM8S_StdPeriph_Lib/   stm8s_tim3
     00009D07  A$stm8s_tim3STM8S_StdPeriph_Lib/   stm8s_tim3
     00009D08  A$stm8s_tim3STM8S_StdPeriph_Lib/   stm8s_tim3
     00009D0A  A$stm8s_tim3STM8S_StdPeriph_Lib/   stm8s_tim3
     00009D0B  A$stm8s_tim3STM8S_StdPeriph_Lib/   stm8s_tim3
     00009D0E  A$stm8s_tim3STM8S_StdPeriph_Lib/   stm8s_tim3
     00009D10  A$stm8s_tim3STM8S_StdPeriph_Lib/   stm8s_tim3
     00009D10  C$stm8s_tim3.c$197$2_0$358         stm8s_tim3
     00009D12  A$stm8s_tim3STM8S_StdPeriph_Lib/   stm8s_tim3
     00009D13  A$stm8s_tim3STM8S_StdPeriph_Lib/   stm8s_tim3
     00009D16  A$stm8s_tim3STM8S_StdPeriph_Lib/   stm8s_tim3
     00009D17  A$stm8s_tim3STM8S_StdPeriph_Lib/   stm8s_tim3
     00009D17  C$stm8s_tim3.c$199$1_0$356         stm8s_tim3
     00009D17  XG$TIM3_ICInit$0$0                 stm8s_tim3
ASxxxx Linker V03.00 + NoICE + sdld,  page 116.
Hexadecimal  [32-Bits]

Area                                    Addr        Size        Decimal Bytes (Attributes)
--------------------------------        ----        ----        ------- ----- ------------
CODE                                000082B4    0000592D =       22829. bytes (REL,CON)

      Value  Global                              Global Defined In Module
      -----  --------------------------------   ------------------------
     00009D18  A$stm8s_tim3STM8S_StdPeriph_Lib/   stm8s_tim3
     00009D18  C$stm8s_tim3.c$210$1_0$360         stm8s_tim3
     00009D18  G$TIM3_PWMIConfig$0$0              stm8s_tim3
     00009D18  _TIM3_PWMIConfig                   stm8s_tim3
     00009D1A  A$stm8s_tim3STM8S_StdPeriph_Lib/   stm8s_tim3
     00009D1A  C$stm8s_tim3.c$226$1_0$360         stm8s_tim3
     00009D1C  A$stm8s_tim3STM8S_StdPeriph_Lib/   stm8s_tim3
     00009D1E  A$stm8s_tim3STM8S_StdPeriph_Lib/   stm8s_tim3
     00009D20  A$stm8s_tim3STM8S_StdPeriph_Lib/   stm8s_tim3
     00009D20  C$stm8s_tim3.c$228$2_0$361         stm8s_tim3
     00009D22  A$stm8s_tim3STM8S_StdPeriph_Lib/   stm8s_tim3
     00009D24  A$stm8s_tim3STM8S_StdPeriph_Lib/   stm8s_tim3
     00009D26  A$stm8s_tim3STM8S_StdPeriph_Lib/   stm8s_tim3
     00009D26  C$stm8s_tim3.c$232$2_0$362         stm8s_tim3
     00009D28  A$stm8s_tim3STM8S_StdPeriph_Lib/   stm8s_tim3
     00009D28  C$stm8s_tim3.c$236$1_0$360         stm8s_tim3
     00009D2A  A$stm8s_tim3STM8S_StdPeriph_Lib/   stm8s_tim3
     00009D2B  A$stm8s_tim3STM8S_StdPeriph_Lib/   stm8s_tim3
     00009D2D  A$stm8s_tim3STM8S_StdPeriph_Lib/   stm8s_tim3
     00009D2D  C$stm8s_tim3.c$238$2_0$363         stm8s_tim3
     00009D2F  A$stm8s_tim3STM8S_StdPeriph_Lib/   stm8s_tim3
     00009D31  A$stm8s_tim3STM8S_StdPeriph_Lib/   stm8s_tim3
     00009D33  A$stm8s_tim3STM8S_StdPeriph_Lib/   stm8s_tim3
     00009D33  C$stm8s_tim3.c$242$2_0$364         stm8s_tim3
     00009D35  A$stm8s_tim3STM8S_StdPeriph_Lib/   stm8s_tim3
     00009D37  A$stm8s_tim3STM8S_StdPeriph_Lib/   stm8s_tim3
     00009D37  C$stm8s_tim3.c$245$1_0$360         stm8s_tim3
     00009D39  A$stm8s_tim3STM8S_StdPeriph_Lib/   stm8s_tim3
     00009D3A  A$stm8s_tim3STM8S_StdPeriph_Lib/   stm8s_tim3
     00009D3C  A$stm8s_tim3STM8S_StdPeriph_Lib/   stm8s_tim3
     00009D3C  C$stm8s_tim3.c$248$2_0$365         stm8s_tim3
     00009D3E  A$stm8s_tim3STM8S_StdPeriph_Lib/   stm8s_tim3
     00009D3F  A$stm8s_tim3STM8S_StdPeriph_Lib/   stm8s_tim3
     00009D41  A$stm8s_tim3STM8S_StdPeriph_Lib/   stm8s_tim3
     00009D42  A$stm8s_tim3STM8S_StdPeriph_Lib/   stm8s_tim3
     00009D44  A$stm8s_tim3STM8S_StdPeriph_Lib/   stm8s_tim3
     00009D45  A$stm8s_tim3STM8S_StdPeriph_Lib/   stm8s_tim3
     00009D48  A$stm8s_tim3STM8S_StdPeriph_Lib/   stm8s_tim3
     00009D4A  A$stm8s_tim3STM8S_StdPeriph_Lib/   stm8s_tim3
     00009D4A  C$stm8s_tim3.c$252$2_0$365         stm8s_tim3
     00009D4C  A$stm8s_tim3STM8S_StdPeriph_Lib/   stm8s_tim3
     00009D4D  A$stm8s_tim3STM8S_StdPeriph_Lib/   stm8s_tim3
     00009D50  A$stm8s_tim3STM8S_StdPeriph_Lib/   stm8s_tim3
     00009D51  A$stm8s_tim3STM8S_StdPeriph_Lib/   stm8s_tim3
     00009D51  C$stm8s_tim3.c$255$2_0$365         stm8s_tim3
     00009D53  A$stm8s_tim3STM8S_StdPeriph_Lib/   stm8s_tim3
     00009D54  A$stm8s_tim3STM8S_StdPeriph_Lib/   stm8s_tim3
     00009D56  A$stm8s_tim3STM8S_StdPeriph_Lib/   stm8s_tim3
     00009D57  A$stm8s_tim3STM8S_StdPeriph_Lib/   stm8s_tim3
     00009D59  A$stm8s_tim3STM8S_StdPeriph_Lib/   stm8s_tim3
     00009D5A  A$stm8s_tim3STM8S_StdPeriph_Lib/   stm8s_tim3
ASxxxx Linker V03.00 + NoICE + sdld,  page 117.
Hexadecimal  [32-Bits]

Area                                    Addr        Size        Decimal Bytes (Attributes)
--------------------------------        ----        ----        ------- ----- ------------
CODE                                000082B4    0000592D =       22829. bytes (REL,CON)

      Value  Global                              Global Defined In Module
      -----  --------------------------------   ------------------------
     00009D5D  A$stm8s_tim3STM8S_StdPeriph_Lib/   stm8s_tim3
     00009D5F  A$stm8s_tim3STM8S_StdPeriph_Lib/   stm8s_tim3
     00009D5F  C$stm8s_tim3.c$258$2_0$365         stm8s_tim3
     00009D61  A$stm8s_tim3STM8S_StdPeriph_Lib/   stm8s_tim3
     00009D62  A$stm8s_tim3STM8S_StdPeriph_Lib/   stm8s_tim3
     00009D65  A$stm8s_tim3STM8S_StdPeriph_Lib/   stm8s_tim3
     00009D66  A$stm8s_tim3STM8S_StdPeriph_Lib/   stm8s_tim3
     00009D68  A$stm8s_tim3STM8S_StdPeriph_Lib/   stm8s_tim3
     00009D68  C$stm8s_tim3.c$263$2_0$366         stm8s_tim3
     00009D6A  A$stm8s_tim3STM8S_StdPeriph_Lib/   stm8s_tim3
     00009D6B  A$stm8s_tim3STM8S_StdPeriph_Lib/   stm8s_tim3
     00009D6D  A$stm8s_tim3STM8S_StdPeriph_Lib/   stm8s_tim3
     00009D6E  A$stm8s_tim3STM8S_StdPeriph_Lib/   stm8s_tim3
     00009D70  A$stm8s_tim3STM8S_StdPeriph_Lib/   stm8s_tim3
     00009D71  A$stm8s_tim3STM8S_StdPeriph_Lib/   stm8s_tim3
     00009D74  A$stm8s_tim3STM8S_StdPeriph_Lib/   stm8s_tim3
     00009D76  A$stm8s_tim3STM8S_StdPeriph_Lib/   stm8s_tim3
     00009D76  C$stm8s_tim3.c$267$2_0$366         stm8s_tim3
     00009D78  A$stm8s_tim3STM8S_StdPeriph_Lib/   stm8s_tim3
     00009D79  A$stm8s_tim3STM8S_StdPeriph_Lib/   stm8s_tim3
     00009D7C  A$stm8s_tim3STM8S_StdPeriph_Lib/   stm8s_tim3
     00009D7D  A$stm8s_tim3STM8S_StdPeriph_Lib/   stm8s_tim3
     00009D7D  C$stm8s_tim3.c$270$2_0$366         stm8s_tim3
     00009D7F  A$stm8s_tim3STM8S_StdPeriph_Lib/   stm8s_tim3
     00009D80  A$stm8s_tim3STM8S_StdPeriph_Lib/   stm8s_tim3
     00009D82  A$stm8s_tim3STM8S_StdPeriph_Lib/   stm8s_tim3
     00009D83  A$stm8s_tim3STM8S_StdPeriph_Lib/   stm8s_tim3
     00009D85  A$stm8s_tim3STM8S_StdPeriph_Lib/   stm8s_tim3
     00009D86  A$stm8s_tim3STM8S_StdPeriph_Lib/   stm8s_tim3
     00009D89  A$stm8s_tim3STM8S_StdPeriph_Lib/   stm8s_tim3
     00009D8B  A$stm8s_tim3STM8S_StdPeriph_Lib/   stm8s_tim3
     00009D8B  C$stm8s_tim3.c$273$2_0$366         stm8s_tim3
     00009D8D  A$stm8s_tim3STM8S_StdPeriph_Lib/   stm8s_tim3
     00009D8E  A$stm8s_tim3STM8S_StdPeriph_Lib/   stm8s_tim3
     00009D91  A$stm8s_tim3STM8S_StdPeriph_Lib/   stm8s_tim3
     00009D92  A$stm8s_tim3STM8S_StdPeriph_Lib/   stm8s_tim3
     00009D94  A$stm8s_tim3STM8S_StdPeriph_Lib/   stm8s_tim3
     00009D94  C$stm8s_tim3.c$275$1_0$360         stm8s_tim3
     00009D94  XG$TIM3_PWMIConfig$0$0             stm8s_tim3
     00009D95  A$stm8s_tim3STM8S_StdPeriph_Lib/   stm8s_tim3
     00009D95  C$stm8s_tim3.c$283$1_0$368         stm8s_tim3
     00009D95  C$stm8s_tim3.c$289$1_0$368         stm8s_tim3
     00009D95  G$TIM3_Cmd$0$0                     stm8s_tim3
     00009D95  _TIM3_Cmd                          stm8s_tim3
     00009D97  A$stm8s_tim3STM8S_StdPeriph_Lib/   stm8s_tim3
     00009D99  A$stm8s_tim3STM8S_StdPeriph_Lib/   stm8s_tim3
     00009D99  C$stm8s_tim3.c$291$2_0$369         stm8s_tim3
     00009D9D  A$stm8s_tim3STM8S_StdPeriph_Lib/   stm8s_tim3
     00009D9F  A$stm8s_tim3STM8S_StdPeriph_Lib/   stm8s_tim3
     00009D9F  C$stm8s_tim3.c$295$2_0$370         stm8s_tim3
     00009DA3  A$stm8s_tim3STM8S_StdPeriph_Lib/   stm8s_tim3
ASxxxx Linker V03.00 + NoICE + sdld,  page 118.
Hexadecimal  [32-Bits]

Area                                    Addr        Size        Decimal Bytes (Attributes)
--------------------------------        ----        ----        ------- ----- ------------
CODE                                000082B4    0000592D =       22829. bytes (REL,CON)

      Value  Global                              Global Defined In Module
      -----  --------------------------------   ------------------------
     00009DA3  C$stm8s_tim3.c$297$1_0$368         stm8s_tim3
     00009DA3  XG$TIM3_Cmd$0$0                    stm8s_tim3
     00009DA4  A$stm8s_tim3STM8S_StdPeriph_Lib/   stm8s_tim3
     00009DA4  C$stm8s_tim3.c$311$1_0$372         stm8s_tim3
     00009DA4  G$TIM3_ITConfig$0$0                stm8s_tim3
     00009DA4  _TIM3_ITConfig                     stm8s_tim3
     00009DA5  A$stm8s_tim3STM8S_StdPeriph_Lib/   stm8s_tim3
     00009DA5  C$stm8s_tim3.c$317$1_0$372         stm8s_tim3
     00009DA7  A$stm8s_tim3STM8S_StdPeriph_Lib/   stm8s_tim3
     00009DA9  A$stm8s_tim3STM8S_StdPeriph_Lib/   stm8s_tim3
     00009DA9  C$stm8s_tim3.c$320$2_0$373         stm8s_tim3
     00009DAC  A$stm8s_tim3STM8S_StdPeriph_Lib/   stm8s_tim3
     00009DAE  A$stm8s_tim3STM8S_StdPeriph_Lib/   stm8s_tim3
     00009DB1  A$stm8s_tim3STM8S_StdPeriph_Lib/   stm8s_tim3
     00009DB3  A$stm8s_tim3STM8S_StdPeriph_Lib/   stm8s_tim3
     00009DB3  C$stm8s_tim3.c$325$2_0$374         stm8s_tim3
     00009DB6  A$stm8s_tim3STM8S_StdPeriph_Lib/   stm8s_tim3
     00009DB8  A$stm8s_tim3STM8S_StdPeriph_Lib/   stm8s_tim3
     00009DBA  A$stm8s_tim3STM8S_StdPeriph_Lib/   stm8s_tim3
     00009DBB  A$stm8s_tim3STM8S_StdPeriph_Lib/   stm8s_tim3
     00009DBD  A$stm8s_tim3STM8S_StdPeriph_Lib/   stm8s_tim3
     00009DC0  A$stm8s_tim3STM8S_StdPeriph_Lib/   stm8s_tim3
     00009DC1  A$stm8s_tim3STM8S_StdPeriph_Lib/   stm8s_tim3
     00009DC1  C$stm8s_tim3.c$327$1_0$372         stm8s_tim3
     00009DC1  XG$TIM3_ITConfig$0$0               stm8s_tim3
     00009DC2  A$stm8s_tim3STM8S_StdPeriph_Lib/   stm8s_tim3
     00009DC2  C$stm8s_tim3.c$335$1_0$376         stm8s_tim3
     00009DC2  C$stm8s_tim3.c$341$1_0$376         stm8s_tim3
     00009DC2  G$TIM3_UpdateDisableConfig$0$0     stm8s_tim3
     00009DC2  _TIM3_UpdateDisableConfig          stm8s_tim3
     00009DC4  A$stm8s_tim3STM8S_StdPeriph_Lib/   stm8s_tim3
     00009DC6  A$stm8s_tim3STM8S_StdPeriph_Lib/   stm8s_tim3
     00009DC6  C$stm8s_tim3.c$343$2_0$377         stm8s_tim3
     00009DCA  A$stm8s_tim3STM8S_StdPeriph_Lib/   stm8s_tim3
     00009DCC  A$stm8s_tim3STM8S_StdPeriph_Lib/   stm8s_tim3
     00009DCC  C$stm8s_tim3.c$347$2_0$378         stm8s_tim3
     00009DD0  A$stm8s_tim3STM8S_StdPeriph_Lib/   stm8s_tim3
     00009DD0  C$stm8s_tim3.c$349$1_0$376         stm8s_tim3
     00009DD0  XG$TIM3_UpdateDisableConfig$0$0    stm8s_tim3
     00009DD1  A$stm8s_tim3STM8S_StdPeriph_Lib/   stm8s_tim3
     00009DD1  C$stm8s_tim3.c$359$1_0$380         stm8s_tim3
     00009DD1  C$stm8s_tim3.c$365$1_0$380         stm8s_tim3
     00009DD1  G$TIM3_UpdateRequestConfig$0$0     stm8s_tim3
     00009DD1  _TIM3_UpdateRequestConfig          stm8s_tim3
     00009DD3  A$stm8s_tim3STM8S_StdPeriph_Lib/   stm8s_tim3
     00009DD5  A$stm8s_tim3STM8S_StdPeriph_Lib/   stm8s_tim3
     00009DD5  C$stm8s_tim3.c$367$2_0$381         stm8s_tim3
     00009DD9  A$stm8s_tim3STM8S_StdPeriph_Lib/   stm8s_tim3
     00009DDB  A$stm8s_tim3STM8S_StdPeriph_Lib/   stm8s_tim3
     00009DDB  C$stm8s_tim3.c$371$2_0$382         stm8s_tim3
     00009DDF  A$stm8s_tim3STM8S_StdPeriph_Lib/   stm8s_tim3
ASxxxx Linker V03.00 + NoICE + sdld,  page 119.
Hexadecimal  [32-Bits]

Area                                    Addr        Size        Decimal Bytes (Attributes)
--------------------------------        ----        ----        ------- ----- ------------
CODE                                000082B4    0000592D =       22829. bytes (REL,CON)

      Value  Global                              Global Defined In Module
      -----  --------------------------------   ------------------------
     00009DDF  C$stm8s_tim3.c$373$1_0$380         stm8s_tim3
     00009DDF  XG$TIM3_UpdateRequestConfig$0$0    stm8s_tim3
     00009DE0  A$stm8s_tim3STM8S_StdPeriph_Lib/   stm8s_tim3
     00009DE0  C$stm8s_tim3.c$383$1_0$384         stm8s_tim3
     00009DE0  C$stm8s_tim3.c$389$1_0$384         stm8s_tim3
     00009DE0  G$TIM3_SelectOnePulseMode$0$0      stm8s_tim3
     00009DE0  _TIM3_SelectOnePulseMode           stm8s_tim3
     00009DE2  A$stm8s_tim3STM8S_StdPeriph_Lib/   stm8s_tim3
     00009DE4  A$stm8s_tim3STM8S_StdPeriph_Lib/   stm8s_tim3
     00009DE4  C$stm8s_tim3.c$391$2_0$385         stm8s_tim3
     00009DE8  A$stm8s_tim3STM8S_StdPeriph_Lib/   stm8s_tim3
     00009DEA  A$stm8s_tim3STM8S_StdPeriph_Lib/   stm8s_tim3
     00009DEA  C$stm8s_tim3.c$395$2_0$386         stm8s_tim3
     00009DEE  A$stm8s_tim3STM8S_StdPeriph_Lib/   stm8s_tim3
     00009DEE  C$stm8s_tim3.c$397$1_0$384         stm8s_tim3
     00009DEE  XG$TIM3_SelectOnePulseMode$0$0     stm8s_tim3
     00009DEF  A$stm8s_tim3STM8S_StdPeriph_Lib/   stm8s_tim3
     00009DEF  C$stm8s_tim3.c$427$1_0$388         stm8s_tim3
     00009DEF  C$stm8s_tim3.c$435$1_0$388         stm8s_tim3
     00009DEF  G$TIM3_PrescalerConfig$0$0         stm8s_tim3
     00009DEF  _TIM3_PrescalerConfig              stm8s_tim3
     00009DF2  A$stm8s_tim3STM8S_StdPeriph_Lib/   stm8s_tim3
     00009DF4  A$stm8s_tim3STM8S_StdPeriph_Lib/   stm8s_tim3
     00009DF5  A$stm8s_tim3STM8S_StdPeriph_Lib/   stm8s_tim3
     00009DF5  C$stm8s_tim3.c$438$1_0$388         stm8s_tim3
     00009DF8  A$stm8s_tim3STM8S_StdPeriph_Lib/   stm8s_tim3
     00009DFA  A$stm8s_tim3STM8S_StdPeriph_Lib/   stm8s_tim3
     00009DFB  A$stm8s_tim3STM8S_StdPeriph_Lib/   stm8s_tim3
     00009DFB  C$stm8s_tim3.c$439$1_0$388         stm8s_tim3
     00009DFB  XG$TIM3_PrescalerConfig$0$0        stm8s_tim3
     00009DFC  A$stm8s_tim3STM8S_StdPeriph_Lib/   stm8s_tim3
     00009DFC  C$stm8s_tim3.c$450$1_0$390         stm8s_tim3
     00009DFC  C$stm8s_tim3.c$456$1_0$390         stm8s_tim3
     00009DFC  G$TIM3_ForcedOC1Config$0$0         stm8s_tim3
     00009DFC  _TIM3_ForcedOC1Config              stm8s_tim3
     00009DFF  A$stm8s_tim3STM8S_StdPeriph_Lib/   stm8s_tim3
     00009E01  A$stm8s_tim3STM8S_StdPeriph_Lib/   stm8s_tim3
     00009E03  A$stm8s_tim3STM8S_StdPeriph_Lib/   stm8s_tim3
     00009E06  A$stm8s_tim3STM8S_StdPeriph_Lib/   stm8s_tim3
     00009E06  C$stm8s_tim3.c$457$1_0$390         stm8s_tim3
     00009E06  XG$TIM3_ForcedOC1Config$0$0        stm8s_tim3
     00009E07  A$stm8s_tim3STM8S_StdPeriph_Lib/   stm8s_tim3
     00009E07  C$stm8s_tim3.c$468$1_0$392         stm8s_tim3
     00009E07  C$stm8s_tim3.c$474$1_0$392         stm8s_tim3
     00009E07  G$TIM3_ForcedOC2Config$0$0         stm8s_tim3
     00009E07  _TIM3_ForcedOC2Config              stm8s_tim3
     00009E0A  A$stm8s_tim3STM8S_StdPeriph_Lib/   stm8s_tim3
     00009E0C  A$stm8s_tim3STM8S_StdPeriph_Lib/   stm8s_tim3
     00009E0E  A$stm8s_tim3STM8S_StdPeriph_Lib/   stm8s_tim3
     00009E11  A$stm8s_tim3STM8S_StdPeriph_Lib/   stm8s_tim3
     00009E11  C$stm8s_tim3.c$475$1_0$392         stm8s_tim3
ASxxxx Linker V03.00 + NoICE + sdld,  page 120.
Hexadecimal  [32-Bits]

Area                                    Addr        Size        Decimal Bytes (Attributes)
--------------------------------        ----        ----        ------- ----- ------------
CODE                                000082B4    0000592D =       22829. bytes (REL,CON)

      Value  Global                              Global Defined In Module
      -----  --------------------------------   ------------------------
     00009E11  XG$TIM3_ForcedOC2Config$0$0        stm8s_tim3
     00009E12  A$stm8s_tim3STM8S_StdPeriph_Lib/   stm8s_tim3
     00009E12  C$stm8s_tim3.c$483$1_0$394         stm8s_tim3
     00009E12  C$stm8s_tim3.c$489$1_0$394         stm8s_tim3
     00009E12  G$TIM3_ARRPreloadConfig$0$0        stm8s_tim3
     00009E12  _TIM3_ARRPreloadConfig             stm8s_tim3
     00009E14  A$stm8s_tim3STM8S_StdPeriph_Lib/   stm8s_tim3
     00009E16  A$stm8s_tim3STM8S_StdPeriph_Lib/   stm8s_tim3
     00009E16  C$stm8s_tim3.c$491$2_0$395         stm8s_tim3
     00009E1A  A$stm8s_tim3STM8S_StdPeriph_Lib/   stm8s_tim3
     00009E1C  A$stm8s_tim3STM8S_StdPeriph_Lib/   stm8s_tim3
     00009E1C  C$stm8s_tim3.c$495$2_0$396         stm8s_tim3
     00009E20  A$stm8s_tim3STM8S_StdPeriph_Lib/   stm8s_tim3
     00009E20  C$stm8s_tim3.c$497$1_0$394         stm8s_tim3
     00009E20  XG$TIM3_ARRPreloadConfig$0$0       stm8s_tim3
     00009E21  A$stm8s_tim3STM8S_StdPeriph_Lib/   stm8s_tim3
     00009E21  C$stm8s_tim3.c$505$1_0$398         stm8s_tim3
     00009E21  C$stm8s_tim3.c$511$1_0$398         stm8s_tim3
     00009E21  G$TIM3_OC1PreloadConfig$0$0        stm8s_tim3
     00009E21  _TIM3_OC1PreloadConfig             stm8s_tim3
     00009E23  A$stm8s_tim3STM8S_StdPeriph_Lib/   stm8s_tim3
     00009E25  A$stm8s_tim3STM8S_StdPeriph_Lib/   stm8s_tim3
     00009E25  C$stm8s_tim3.c$513$2_0$399         stm8s_tim3
     00009E29  A$stm8s_tim3STM8S_StdPeriph_Lib/   stm8s_tim3
     00009E2B  A$stm8s_tim3STM8S_StdPeriph_Lib/   stm8s_tim3
     00009E2B  C$stm8s_tim3.c$517$2_0$400         stm8s_tim3
     00009E2F  A$stm8s_tim3STM8S_StdPeriph_Lib/   stm8s_tim3
     00009E2F  C$stm8s_tim3.c$519$1_0$398         stm8s_tim3
     00009E2F  XG$TIM3_OC1PreloadConfig$0$0       stm8s_tim3
     00009E30  A$stm8s_tim3STM8S_StdPeriph_Lib/   stm8s_tim3
     00009E30  C$stm8s_tim3.c$527$1_0$402         stm8s_tim3
     00009E30  C$stm8s_tim3.c$533$1_0$402         stm8s_tim3
     00009E30  G$TIM3_OC2PreloadConfig$0$0        stm8s_tim3
     00009E30  _TIM3_OC2PreloadConfig             stm8s_tim3
     00009E32  A$stm8s_tim3STM8S_StdPeriph_Lib/   stm8s_tim3
     00009E34  A$stm8s_tim3STM8S_StdPeriph_Lib/   stm8s_tim3
     00009E34  C$stm8s_tim3.c$535$2_0$403         stm8s_tim3
     00009E38  A$stm8s_tim3STM8S_StdPeriph_Lib/   stm8s_tim3
     00009E3A  A$stm8s_tim3STM8S_StdPeriph_Lib/   stm8s_tim3
     00009E3A  C$stm8s_tim3.c$539$2_0$404         stm8s_tim3
     00009E3E  A$stm8s_tim3STM8S_StdPeriph_Lib/   stm8s_tim3
     00009E3E  C$stm8s_tim3.c$541$1_0$402         stm8s_tim3
     00009E3E  XG$TIM3_OC2PreloadConfig$0$0       stm8s_tim3
     00009E3F  A$stm8s_tim3STM8S_StdPeriph_Lib/   stm8s_tim3
     00009E3F  C$stm8s_tim3.c$552$1_0$406         stm8s_tim3
     00009E3F  C$stm8s_tim3.c$558$1_0$406         stm8s_tim3
     00009E3F  G$TIM3_GenerateEvent$0$0           stm8s_tim3
     00009E3F  _TIM3_GenerateEvent                stm8s_tim3
     00009E42  A$stm8s_tim3STM8S_StdPeriph_Lib/   stm8s_tim3
     00009E44  A$stm8s_tim3STM8S_StdPeriph_Lib/   stm8s_tim3
     00009E45  A$stm8s_tim3STM8S_StdPeriph_Lib/   stm8s_tim3
ASxxxx Linker V03.00 + NoICE + sdld,  page 121.
Hexadecimal  [32-Bits]

Area                                    Addr        Size        Decimal Bytes (Attributes)
--------------------------------        ----        ----        ------- ----- ------------
CODE                                000082B4    0000592D =       22829. bytes (REL,CON)

      Value  Global                              Global Defined In Module
      -----  --------------------------------   ------------------------
     00009E45  C$stm8s_tim3.c$559$1_0$406         stm8s_tim3
     00009E45  XG$TIM3_GenerateEvent$0$0          stm8s_tim3
     00009E46  A$stm8s_tim3STM8S_StdPeriph_Lib/   stm8s_tim3
     00009E46  C$stm8s_tim3.c$569$1_0$408         stm8s_tim3
     00009E46  C$stm8s_tim3.c$575$1_0$408         stm8s_tim3
     00009E46  G$TIM3_OC1PolarityConfig$0$0       stm8s_tim3
     00009E46  _TIM3_OC1PolarityConfig            stm8s_tim3
     00009E48  A$stm8s_tim3STM8S_StdPeriph_Lib/   stm8s_tim3
     00009E4A  A$stm8s_tim3STM8S_StdPeriph_Lib/   stm8s_tim3
     00009E4A  C$stm8s_tim3.c$577$2_0$409         stm8s_tim3
     00009E4E  A$stm8s_tim3STM8S_StdPeriph_Lib/   stm8s_tim3
     00009E50  A$stm8s_tim3STM8S_StdPeriph_Lib/   stm8s_tim3
     00009E50  C$stm8s_tim3.c$581$2_0$410         stm8s_tim3
     00009E54  A$stm8s_tim3STM8S_StdPeriph_Lib/   stm8s_tim3
     00009E54  C$stm8s_tim3.c$583$1_0$408         stm8s_tim3
     00009E54  XG$TIM3_OC1PolarityConfig$0$0      stm8s_tim3
     00009E55  A$stm8s_tim3STM8S_StdPeriph_Lib/   stm8s_tim3
     00009E55  C$stm8s_tim3.c$593$1_0$412         stm8s_tim3
     00009E55  C$stm8s_tim3.c$599$1_0$412         stm8s_tim3
     00009E55  G$TIM3_OC2PolarityConfig$0$0       stm8s_tim3
     00009E55  _TIM3_OC2PolarityConfig            stm8s_tim3
     00009E57  A$stm8s_tim3STM8S_StdPeriph_Lib/   stm8s_tim3
     00009E59  A$stm8s_tim3STM8S_StdPeriph_Lib/   stm8s_tim3
     00009E59  C$stm8s_tim3.c$601$2_0$413         stm8s_tim3
     00009E5D  A$stm8s_tim3STM8S_StdPeriph_Lib/   stm8s_tim3
     00009E5F  A$stm8s_tim3STM8S_StdPeriph_Lib/   stm8s_tim3
     00009E5F  C$stm8s_tim3.c$605$2_0$414         stm8s_tim3
     00009E63  A$stm8s_tim3STM8S_StdPeriph_Lib/   stm8s_tim3
     00009E63  C$stm8s_tim3.c$607$1_0$412         stm8s_tim3
     00009E63  XG$TIM3_OC2PolarityConfig$0$0      stm8s_tim3
     00009E64  A$stm8s_tim3STM8S_StdPeriph_Lib/   stm8s_tim3
     00009E64  C$stm8s_tim3.c$619$1_0$416         stm8s_tim3
     00009E64  C$stm8s_tim3.c$625$1_0$416         stm8s_tim3
     00009E64  G$TIM3_CCxCmd$0$0                  stm8s_tim3
     00009E64  _TIM3_CCxCmd                       stm8s_tim3
     00009E66  A$stm8s_tim3STM8S_StdPeriph_Lib/   stm8s_tim3
     00009E68  A$stm8s_tim3STM8S_StdPeriph_Lib/   stm8s_tim3
     00009E68  C$stm8s_tim3.c$628$2_0$417         stm8s_tim3
     00009E6A  A$stm8s_tim3STM8S_StdPeriph_Lib/   stm8s_tim3
     00009E6C  A$stm8s_tim3STM8S_StdPeriph_Lib/   stm8s_tim3
     00009E6C  C$stm8s_tim3.c$630$3_0$418         stm8s_tim3
     00009E70  A$stm8s_tim3STM8S_StdPeriph_Lib/   stm8s_tim3
     00009E72  A$stm8s_tim3STM8S_StdPeriph_Lib/   stm8s_tim3
     00009E72  C$stm8s_tim3.c$634$3_0$419         stm8s_tim3
     00009E76  A$stm8s_tim3STM8S_StdPeriph_Lib/   stm8s_tim3
     00009E78  A$stm8s_tim3STM8S_StdPeriph_Lib/   stm8s_tim3
     00009E78  C$stm8s_tim3.c$641$2_0$420         stm8s_tim3
     00009E7A  A$stm8s_tim3STM8S_StdPeriph_Lib/   stm8s_tim3
     00009E7C  A$stm8s_tim3STM8S_StdPeriph_Lib/   stm8s_tim3
     00009E7C  C$stm8s_tim3.c$643$3_0$421         stm8s_tim3
     00009E80  A$stm8s_tim3STM8S_StdPeriph_Lib/   stm8s_tim3
ASxxxx Linker V03.00 + NoICE + sdld,  page 122.
Hexadecimal  [32-Bits]

Area                                    Addr        Size        Decimal Bytes (Attributes)
--------------------------------        ----        ----        ------- ----- ------------
CODE                                000082B4    0000592D =       22829. bytes (REL,CON)

      Value  Global                              Global Defined In Module
      -----  --------------------------------   ------------------------
     00009E82  A$stm8s_tim3STM8S_StdPeriph_Lib/   stm8s_tim3
     00009E82  C$stm8s_tim3.c$647$3_0$422         stm8s_tim3
     00009E86  A$stm8s_tim3STM8S_StdPeriph_Lib/   stm8s_tim3
     00009E86  C$stm8s_tim3.c$650$1_0$416         stm8s_tim3
     00009E86  XG$TIM3_CCxCmd$0$0                 stm8s_tim3
     00009E87  A$stm8s_tim3STM8S_StdPeriph_Lib/   stm8s_tim3
     00009E87  C$stm8s_tim3.c$671$1_0$424         stm8s_tim3
     00009E87  C$stm8s_tim3.c$677$1_0$424         stm8s_tim3
     00009E87  G$TIM3_SelectOCxM$0$0              stm8s_tim3
     00009E87  _TIM3_SelectOCxM                   stm8s_tim3
     00009E89  A$stm8s_tim3STM8S_StdPeriph_Lib/   stm8s_tim3
     00009E8B  A$stm8s_tim3STM8S_StdPeriph_Lib/   stm8s_tim3
     00009E8B  C$stm8s_tim3.c$680$2_0$425         stm8s_tim3
     00009E8F  A$stm8s_tim3STM8S_StdPeriph_Lib/   stm8s_tim3
     00009E8F  C$stm8s_tim3.c$683$2_0$425         stm8s_tim3
     00009E92  A$stm8s_tim3STM8S_StdPeriph_Lib/   stm8s_tim3
     00009E94  A$stm8s_tim3STM8S_StdPeriph_Lib/   stm8s_tim3
     00009E96  A$stm8s_tim3STM8S_StdPeriph_Lib/   stm8s_tim3
     00009E99  A$stm8s_tim3STM8S_StdPeriph_Lib/   stm8s_tim3
     00009E9B  A$stm8s_tim3STM8S_StdPeriph_Lib/   stm8s_tim3
     00009E9B  C$stm8s_tim3.c$688$2_0$426         stm8s_tim3
     00009E9F  A$stm8s_tim3STM8S_StdPeriph_Lib/   stm8s_tim3
     00009E9F  C$stm8s_tim3.c$691$2_0$426         stm8s_tim3
     00009EA2  A$stm8s_tim3STM8S_StdPeriph_Lib/   stm8s_tim3
     00009EA4  A$stm8s_tim3STM8S_StdPeriph_Lib/   stm8s_tim3
     00009EA6  A$stm8s_tim3STM8S_StdPeriph_Lib/   stm8s_tim3
     00009EA9  A$stm8s_tim3STM8S_StdPeriph_Lib/   stm8s_tim3
     00009EA9  C$stm8s_tim3.c$693$1_0$424         stm8s_tim3
     00009EA9  XG$TIM3_SelectOCxM$0$0             stm8s_tim3
     00009EAA  A$stm8s_tim3STM8S_StdPeriph_Lib/   stm8s_tim3
     00009EAA  C$stm8s_tim3.c$701$1_0$428         stm8s_tim3
     00009EAA  G$TIM3_SetCounter$0$0              stm8s_tim3
     00009EAA  _TIM3_SetCounter                   stm8s_tim3
     00009EAC  A$stm8s_tim3STM8S_StdPeriph_Lib/   stm8s_tim3
     00009EAC  C$stm8s_tim3.c$704$1_0$428         stm8s_tim3
     00009EAE  A$stm8s_tim3STM8S_StdPeriph_Lib/   stm8s_tim3
     00009EB0  A$stm8s_tim3STM8S_StdPeriph_Lib/   stm8s_tim3
     00009EB2  A$stm8s_tim3STM8S_StdPeriph_Lib/   stm8s_tim3
     00009EB4  A$stm8s_tim3STM8S_StdPeriph_Lib/   stm8s_tim3
     00009EB7  A$stm8s_tim3STM8S_StdPeriph_Lib/   stm8s_tim3
     00009EB7  C$stm8s_tim3.c$705$1_0$428         stm8s_tim3
     00009EB9  A$stm8s_tim3STM8S_StdPeriph_Lib/   stm8s_tim3
     00009EBC  A$stm8s_tim3STM8S_StdPeriph_Lib/   stm8s_tim3
     00009EBE  A$stm8s_tim3STM8S_StdPeriph_Lib/   stm8s_tim3
     00009EBE  C$stm8s_tim3.c$706$1_0$428         stm8s_tim3
     00009EBE  XG$TIM3_SetCounter$0$0             stm8s_tim3
     00009EBF  A$stm8s_tim3STM8S_StdPeriph_Lib/   stm8s_tim3
     00009EBF  C$stm8s_tim3.c$714$1_0$430         stm8s_tim3
     00009EBF  G$TIM3_SetAutoreload$0$0           stm8s_tim3
     00009EBF  _TIM3_SetAutoreload                stm8s_tim3
     00009EC1  A$stm8s_tim3STM8S_StdPeriph_Lib/   stm8s_tim3
ASxxxx Linker V03.00 + NoICE + sdld,  page 123.
Hexadecimal  [32-Bits]

Area                                    Addr        Size        Decimal Bytes (Attributes)
--------------------------------        ----        ----        ------- ----- ------------
CODE                                000082B4    0000592D =       22829. bytes (REL,CON)

      Value  Global                              Global Defined In Module
      -----  --------------------------------   ------------------------
     00009EC1  C$stm8s_tim3.c$717$1_0$430         stm8s_tim3
     00009EC3  A$stm8s_tim3STM8S_StdPeriph_Lib/   stm8s_tim3
     00009EC5  A$stm8s_tim3STM8S_StdPeriph_Lib/   stm8s_tim3
     00009EC7  A$stm8s_tim3STM8S_StdPeriph_Lib/   stm8s_tim3
     00009EC9  A$stm8s_tim3STM8S_StdPeriph_Lib/   stm8s_tim3
     00009ECC  A$stm8s_tim3STM8S_StdPeriph_Lib/   stm8s_tim3
     00009ECC  C$stm8s_tim3.c$718$1_0$430         stm8s_tim3
     00009ECE  A$stm8s_tim3STM8S_StdPeriph_Lib/   stm8s_tim3
     00009ED1  A$stm8s_tim3STM8S_StdPeriph_Lib/   stm8s_tim3
     00009ED3  A$stm8s_tim3STM8S_StdPeriph_Lib/   stm8s_tim3
     00009ED3  C$stm8s_tim3.c$719$1_0$430         stm8s_tim3
     00009ED3  XG$TIM3_SetAutoreload$0$0          stm8s_tim3
     00009ED4  A$stm8s_tim3STM8S_StdPeriph_Lib/   stm8s_tim3
     00009ED4  C$stm8s_tim3.c$727$1_0$432         stm8s_tim3
     00009ED4  G$TIM3_SetCompare1$0$0             stm8s_tim3
     00009ED4  _TIM3_SetCompare1                  stm8s_tim3
     00009ED6  A$stm8s_tim3STM8S_StdPeriph_Lib/   stm8s_tim3
     00009ED6  C$stm8s_tim3.c$730$1_0$432         stm8s_tim3
     00009ED8  A$stm8s_tim3STM8S_StdPeriph_Lib/   stm8s_tim3
     00009EDA  A$stm8s_tim3STM8S_StdPeriph_Lib/   stm8s_tim3
     00009EDC  A$stm8s_tim3STM8S_StdPeriph_Lib/   stm8s_tim3
     00009EDE  A$stm8s_tim3STM8S_StdPeriph_Lib/   stm8s_tim3
     00009EE1  A$stm8s_tim3STM8S_StdPeriph_Lib/   stm8s_tim3
     00009EE1  C$stm8s_tim3.c$731$1_0$432         stm8s_tim3
     00009EE3  A$stm8s_tim3STM8S_StdPeriph_Lib/   stm8s_tim3
     00009EE6  A$stm8s_tim3STM8S_StdPeriph_Lib/   stm8s_tim3
     00009EE8  A$stm8s_tim3STM8S_StdPeriph_Lib/   stm8s_tim3
     00009EE8  C$stm8s_tim3.c$732$1_0$432         stm8s_tim3
     00009EE8  XG$TIM3_SetCompare1$0$0            stm8s_tim3
     00009EE9  A$stm8s_tim3STM8S_StdPeriph_Lib/   stm8s_tim3
     00009EE9  C$stm8s_tim3.c$740$1_0$434         stm8s_tim3
     00009EE9  G$TIM3_SetCompare2$0$0             stm8s_tim3
     00009EE9  _TIM3_SetCompare2                  stm8s_tim3
     00009EEB  A$stm8s_tim3STM8S_StdPeriph_Lib/   stm8s_tim3
     00009EEB  C$stm8s_tim3.c$743$1_0$434         stm8s_tim3
     00009EED  A$stm8s_tim3STM8S_StdPeriph_Lib/   stm8s_tim3
     00009EEF  A$stm8s_tim3STM8S_StdPeriph_Lib/   stm8s_tim3
     00009EF1  A$stm8s_tim3STM8S_StdPeriph_Lib/   stm8s_tim3
     00009EF3  A$stm8s_tim3STM8S_StdPeriph_Lib/   stm8s_tim3
     00009EF6  A$stm8s_tim3STM8S_StdPeriph_Lib/   stm8s_tim3
     00009EF6  C$stm8s_tim3.c$744$1_0$434         stm8s_tim3
     00009EF8  A$stm8s_tim3STM8S_StdPeriph_Lib/   stm8s_tim3
     00009EFB  A$stm8s_tim3STM8S_StdPeriph_Lib/   stm8s_tim3
     00009EFD  A$stm8s_tim3STM8S_StdPeriph_Lib/   stm8s_tim3
     00009EFD  C$stm8s_tim3.c$745$1_0$434         stm8s_tim3
     00009EFD  XG$TIM3_SetCompare2$0$0            stm8s_tim3
     00009EFE  A$stm8s_tim3STM8S_StdPeriph_Lib/   stm8s_tim3
     00009EFE  C$stm8s_tim3.c$757$1_0$436         stm8s_tim3
     00009EFE  C$stm8s_tim3.c$763$1_0$436         stm8s_tim3
     00009EFE  G$TIM3_SetIC1Prescaler$0$0         stm8s_tim3
     00009EFE  _TIM3_SetIC1Prescaler              stm8s_tim3
ASxxxx Linker V03.00 + NoICE + sdld,  page 124.
Hexadecimal  [32-Bits]

Area                                    Addr        Size        Decimal Bytes (Attributes)
--------------------------------        ----        ----        ------- ----- ------------
CODE                                000082B4    0000592D =       22829. bytes (REL,CON)

      Value  Global                              Global Defined In Module
      -----  --------------------------------   ------------------------
     00009F01  A$stm8s_tim3STM8S_StdPeriph_Lib/   stm8s_tim3
     00009F03  A$stm8s_tim3STM8S_StdPeriph_Lib/   stm8s_tim3
     00009F05  A$stm8s_tim3STM8S_StdPeriph_Lib/   stm8s_tim3
     00009F08  A$stm8s_tim3STM8S_StdPeriph_Lib/   stm8s_tim3
     00009F08  C$stm8s_tim3.c$764$1_0$436         stm8s_tim3
     00009F08  XG$TIM3_SetIC1Prescaler$0$0        stm8s_tim3
     00009F09  A$stm8s_tim3STM8S_StdPeriph_Lib/   stm8s_tim3
     00009F09  C$stm8s_tim3.c$776$1_0$438         stm8s_tim3
     00009F09  C$stm8s_tim3.c$782$1_0$438         stm8s_tim3
     00009F09  G$TIM3_SetIC2Prescaler$0$0         stm8s_tim3
     00009F09  _TIM3_SetIC2Prescaler              stm8s_tim3
     00009F0C  A$stm8s_tim3STM8S_StdPeriph_Lib/   stm8s_tim3
     00009F0E  A$stm8s_tim3STM8S_StdPeriph_Lib/   stm8s_tim3
     00009F10  A$stm8s_tim3STM8S_StdPeriph_Lib/   stm8s_tim3
     00009F13  A$stm8s_tim3STM8S_StdPeriph_Lib/   stm8s_tim3
     00009F13  C$stm8s_tim3.c$783$1_0$438         stm8s_tim3
     00009F13  XG$TIM3_SetIC2Prescaler$0$0        stm8s_tim3
     00009F14  A$stm8s_tim3STM8S_StdPeriph_Lib/   stm8s_tim3
     00009F14  C$stm8s_tim3.c$790$1_0$440         stm8s_tim3
     00009F14  G$TIM3_GetCapture1$0$0             stm8s_tim3
     00009F14  _TIM3_GetCapture1                  stm8s_tim3
     00009F16  A$stm8s_tim3STM8S_StdPeriph_Lib/   stm8s_tim3
     00009F16  C$stm8s_tim3.c$796$1_0$440         stm8s_tim3
     00009F19  A$stm8s_tim3STM8S_StdPeriph_Lib/   stm8s_tim3
     00009F1A  A$stm8s_tim3STM8S_StdPeriph_Lib/   stm8s_tim3
     00009F1A  C$stm8s_tim3.c$797$1_0$440         stm8s_tim3
     00009F1D  A$stm8s_tim3STM8S_StdPeriph_Lib/   stm8s_tim3
     00009F1D  C$stm8s_tim3.c$799$1_0$440         stm8s_tim3
     00009F1E  A$stm8s_tim3STM8S_StdPeriph_Lib/   stm8s_tim3
     00009F1F  A$stm8s_tim3STM8S_StdPeriph_Lib/   stm8s_tim3
     00009F1F  C$stm8s_tim3.c$800$1_0$440         stm8s_tim3
     00009F21  A$stm8s_tim3STM8S_StdPeriph_Lib/   stm8s_tim3
     00009F22  A$stm8s_tim3STM8S_StdPeriph_Lib/   stm8s_tim3
     00009F24  A$stm8s_tim3STM8S_StdPeriph_Lib/   stm8s_tim3
     00009F25  A$stm8s_tim3STM8S_StdPeriph_Lib/   stm8s_tim3
     00009F26  A$stm8s_tim3STM8S_StdPeriph_Lib/   stm8s_tim3
     00009F28  A$stm8s_tim3STM8S_StdPeriph_Lib/   stm8s_tim3
     00009F29  A$stm8s_tim3STM8S_StdPeriph_Lib/   stm8s_tim3
     00009F29  C$stm8s_tim3.c$802$1_0$440         stm8s_tim3
     00009F2B  A$stm8s_tim3STM8S_StdPeriph_Lib/   stm8s_tim3
     00009F2B  C$stm8s_tim3.c$803$1_0$440         stm8s_tim3
     00009F2B  XG$TIM3_GetCapture1$0$0            stm8s_tim3
     00009F2C  A$stm8s_tim3STM8S_StdPeriph_Lib/   stm8s_tim3
     00009F2C  C$stm8s_tim3.c$810$1_0$442         stm8s_tim3
     00009F2C  G$TIM3_GetCapture2$0$0             stm8s_tim3
     00009F2C  _TIM3_GetCapture2                  stm8s_tim3
     00009F2E  A$stm8s_tim3STM8S_StdPeriph_Lib/   stm8s_tim3
     00009F2E  C$stm8s_tim3.c$816$1_0$442         stm8s_tim3
     00009F31  A$stm8s_tim3STM8S_StdPeriph_Lib/   stm8s_tim3
     00009F32  A$stm8s_tim3STM8S_StdPeriph_Lib/   stm8s_tim3
     00009F32  C$stm8s_tim3.c$817$1_0$442         stm8s_tim3
ASxxxx Linker V03.00 + NoICE + sdld,  page 125.
Hexadecimal  [32-Bits]

Area                                    Addr        Size        Decimal Bytes (Attributes)
--------------------------------        ----        ----        ------- ----- ------------
CODE                                000082B4    0000592D =       22829. bytes (REL,CON)

      Value  Global                              Global Defined In Module
      -----  --------------------------------   ------------------------
     00009F35  A$stm8s_tim3STM8S_StdPeriph_Lib/   stm8s_tim3
     00009F35  C$stm8s_tim3.c$819$1_0$442         stm8s_tim3
     00009F36  A$stm8s_tim3STM8S_StdPeriph_Lib/   stm8s_tim3
     00009F37  A$stm8s_tim3STM8S_StdPeriph_Lib/   stm8s_tim3
     00009F37  C$stm8s_tim3.c$820$1_0$442         stm8s_tim3
     00009F39  A$stm8s_tim3STM8S_StdPeriph_Lib/   stm8s_tim3
     00009F3A  A$stm8s_tim3STM8S_StdPeriph_Lib/   stm8s_tim3
     00009F3C  A$stm8s_tim3STM8S_StdPeriph_Lib/   stm8s_tim3
     00009F3D  A$stm8s_tim3STM8S_StdPeriph_Lib/   stm8s_tim3
     00009F3E  A$stm8s_tim3STM8S_StdPeriph_Lib/   stm8s_tim3
     00009F40  A$stm8s_tim3STM8S_StdPeriph_Lib/   stm8s_tim3
     00009F41  A$stm8s_tim3STM8S_StdPeriph_Lib/   stm8s_tim3
     00009F41  C$stm8s_tim3.c$822$1_0$442         stm8s_tim3
     00009F43  A$stm8s_tim3STM8S_StdPeriph_Lib/   stm8s_tim3
     00009F43  C$stm8s_tim3.c$823$1_0$442         stm8s_tim3
     00009F43  XG$TIM3_GetCapture2$0$0            stm8s_tim3
     00009F44  A$stm8s_tim3STM8S_StdPeriph_Lib/   stm8s_tim3
     00009F44  C$stm8s_tim3.c$830$1_0$444         stm8s_tim3
     00009F44  G$TIM3_GetCounter$0$0              stm8s_tim3
     00009F44  _TIM3_GetCounter                   stm8s_tim3
     00009F46  A$stm8s_tim3STM8S_StdPeriph_Lib/   stm8s_tim3
     00009F46  C$stm8s_tim3.c$834$1_0$444         stm8s_tim3
     00009F49  A$stm8s_tim3STM8S_StdPeriph_Lib/   stm8s_tim3
     00009F4A  A$stm8s_tim3STM8S_StdPeriph_Lib/   stm8s_tim3
     00009F4B  A$stm8s_tim3STM8S_StdPeriph_Lib/   stm8s_tim3
     00009F4D  A$stm8s_tim3STM8S_StdPeriph_Lib/   stm8s_tim3
     00009F4D  C$stm8s_tim3.c$836$1_0$444         stm8s_tim3
     00009F50  A$stm8s_tim3STM8S_StdPeriph_Lib/   stm8s_tim3
     00009F52  A$stm8s_tim3STM8S_StdPeriph_Lib/   stm8s_tim3
     00009F54  A$stm8s_tim3STM8S_StdPeriph_Lib/   stm8s_tim3
     00009F56  A$stm8s_tim3STM8S_StdPeriph_Lib/   stm8s_tim3
     00009F58  A$stm8s_tim3STM8S_StdPeriph_Lib/   stm8s_tim3
     00009F59  A$stm8s_tim3STM8S_StdPeriph_Lib/   stm8s_tim3
     00009F5B  A$stm8s_tim3STM8S_StdPeriph_Lib/   stm8s_tim3
     00009F5C  A$stm8s_tim3STM8S_StdPeriph_Lib/   stm8s_tim3
     00009F5E  A$stm8s_tim3STM8S_StdPeriph_Lib/   stm8s_tim3
     00009F5E  C$stm8s_tim3.c$837$1_0$444         stm8s_tim3
     00009F5E  XG$TIM3_GetCounter$0$0             stm8s_tim3
     00009F5F  A$stm8s_tim3STM8S_StdPeriph_Lib/   stm8s_tim3
     00009F5F  C$stm8s_tim3.c$844$1_0$446         stm8s_tim3
     00009F5F  C$stm8s_tim3.c$847$1_0$446         stm8s_tim3
     00009F5F  G$TIM3_GetPrescaler$0$0            stm8s_tim3
     00009F5F  _TIM3_GetPrescaler                 stm8s_tim3
     00009F62  A$stm8s_tim3STM8S_StdPeriph_Lib/   stm8s_tim3
     00009F62  C$stm8s_tim3.c$848$1_0$446         stm8s_tim3
     00009F62  XG$TIM3_GetPrescaler$0$0           stm8s_tim3
     00009F63  A$stm8s_tim3STM8S_StdPeriph_Lib/   stm8s_tim3
     00009F63  C$stm8s_tim3.c$861$1_0$448         stm8s_tim3
     00009F63  G$TIM3_GetFlagStatus$0$0           stm8s_tim3
     00009F63  _TIM3_GetFlagStatus                stm8s_tim3
     00009F65  A$stm8s_tim3STM8S_StdPeriph_Lib/   stm8s_tim3
ASxxxx Linker V03.00 + NoICE + sdld,  page 126.
Hexadecimal  [32-Bits]

Area                                    Addr        Size        Decimal Bytes (Attributes)
--------------------------------        ----        ----        ------- ----- ------------
CODE                                000082B4    0000592D =       22829. bytes (REL,CON)

      Value  Global                              Global Defined In Module
      -----  --------------------------------   ------------------------
     00009F65  C$stm8s_tim3.c$869$1_0$448         stm8s_tim3
     00009F68  A$stm8s_tim3STM8S_StdPeriph_Lib/   stm8s_tim3
     00009F6A  A$stm8s_tim3STM8S_StdPeriph_Lib/   stm8s_tim3
     00009F6C  A$stm8s_tim3STM8S_StdPeriph_Lib/   stm8s_tim3
     00009F6E  A$stm8s_tim3STM8S_StdPeriph_Lib/   stm8s_tim3
     00009F70  A$stm8s_tim3STM8S_StdPeriph_Lib/   stm8s_tim3
     00009F70  C$stm8s_tim3.c$870$1_0$448         stm8s_tim3
     00009F72  A$stm8s_tim3STM8S_StdPeriph_Lib/   stm8s_tim3
     00009F74  A$stm8s_tim3STM8S_StdPeriph_Lib/   stm8s_tim3
     00009F76  A$stm8s_tim3STM8S_StdPeriph_Lib/   stm8s_tim3
     00009F76  C$stm8s_tim3.c$872$1_0$448         stm8s_tim3
     00009F79  A$stm8s_tim3STM8S_StdPeriph_Lib/   stm8s_tim3
     00009F7B  A$stm8s_tim3STM8S_StdPeriph_Lib/   stm8s_tim3
     00009F7D  A$stm8s_tim3STM8S_StdPeriph_Lib/   stm8s_tim3
     00009F7F  A$stm8s_tim3STM8S_StdPeriph_Lib/   stm8s_tim3
     00009F7F  C$stm8s_tim3.c$874$2_0$449         stm8s_tim3
     00009F81  A$stm8s_tim3STM8S_StdPeriph_Lib/   stm8s_tim3
     00009F83  A$stm8s_tim3STM8S_StdPeriph_Lib/   stm8s_tim3
     00009F83  C$stm8s_tim3.c$878$2_0$450         stm8s_tim3
     00009F84  A$stm8s_tim3STM8S_StdPeriph_Lib/   stm8s_tim3
     00009F84  C$stm8s_tim3.c$880$1_0$448         stm8s_tim3
     00009F86  A$stm8s_tim3STM8S_StdPeriph_Lib/   stm8s_tim3
     00009F86  C$stm8s_tim3.c$881$1_0$448         stm8s_tim3
     00009F86  XG$TIM3_GetFlagStatus$0$0          stm8s_tim3
     00009F87  A$stm8s_tim3STM8S_StdPeriph_Lib/   stm8s_tim3
     00009F87  C$stm8s_tim3.c$894$1_0$452         stm8s_tim3
     00009F87  C$stm8s_tim3.c$900$1_0$452         stm8s_tim3
     00009F87  G$TIM3_ClearFlag$0$0               stm8s_tim3
     00009F87  _TIM3_ClearFlag                    stm8s_tim3
     00009F89  A$stm8s_tim3STM8S_StdPeriph_Lib/   stm8s_tim3
     00009F8A  A$stm8s_tim3STM8S_StdPeriph_Lib/   stm8s_tim3
     00009F8D  A$stm8s_tim3STM8S_StdPeriph_Lib/   stm8s_tim3
     00009F8D  C$stm8s_tim3.c$901$1_0$452         stm8s_tim3
     00009F8F  A$stm8s_tim3STM8S_StdPeriph_Lib/   stm8s_tim3
     00009F90  A$stm8s_tim3STM8S_StdPeriph_Lib/   stm8s_tim3
     00009F93  A$stm8s_tim3STM8S_StdPeriph_Lib/   stm8s_tim3
     00009F93  C$stm8s_tim3.c$902$1_0$452         stm8s_tim3
     00009F93  XG$TIM3_ClearFlag$0$0              stm8s_tim3
     00009F94  A$stm8s_tim3STM8S_StdPeriph_Lib/   stm8s_tim3
     00009F94  C$stm8s_tim3.c$913$1_0$454         stm8s_tim3
     00009F94  G$TIM3_GetITStatus$0$0             stm8s_tim3
     00009F94  _TIM3_GetITStatus                  stm8s_tim3
     00009F95  A$stm8s_tim3STM8S_StdPeriph_Lib/   stm8s_tim3
     00009F95  C$stm8s_tim3.c$921$1_0$454         stm8s_tim3
     00009F98  A$stm8s_tim3STM8S_StdPeriph_Lib/   stm8s_tim3
     00009F9A  A$stm8s_tim3STM8S_StdPeriph_Lib/   stm8s_tim3
     00009F9C  A$stm8s_tim3STM8S_StdPeriph_Lib/   stm8s_tim3
     00009F9C  C$stm8s_tim3.c$923$1_0$454         stm8s_tim3
     00009F9F  A$stm8s_tim3STM8S_StdPeriph_Lib/   stm8s_tim3
     00009FA1  A$stm8s_tim3STM8S_StdPeriph_Lib/   stm8s_tim3
     00009FA1  C$stm8s_tim3.c$925$1_0$454         stm8s_tim3
ASxxxx Linker V03.00 + NoICE + sdld,  page 127.
Hexadecimal  [32-Bits]

Area                                    Addr        Size        Decimal Bytes (Attributes)
--------------------------------        ----        ----        ------- ----- ------------
CODE                                000082B4    0000592D =       22829. bytes (REL,CON)

      Value  Global                              Global Defined In Module
      -----  --------------------------------   ------------------------
     00009FA3  A$stm8s_tim3STM8S_StdPeriph_Lib/   stm8s_tim3
     00009FA5  A$stm8s_tim3STM8S_StdPeriph_Lib/   stm8s_tim3
     00009FA6  A$stm8s_tim3STM8S_StdPeriph_Lib/   stm8s_tim3
     00009FA8  A$stm8s_tim3STM8S_StdPeriph_Lib/   stm8s_tim3
     00009FA8  C$stm8s_tim3.c$927$2_0$455         stm8s_tim3
     00009FAA  A$stm8s_tim3STM8S_StdPeriph_Lib/   stm8s_tim3
     00009FAC  A$stm8s_tim3STM8S_StdPeriph_Lib/   stm8s_tim3
     00009FAC  C$stm8s_tim3.c$931$2_0$456         stm8s_tim3
     00009FAD  A$stm8s_tim3STM8S_StdPeriph_Lib/   stm8s_tim3
     00009FAD  C$stm8s_tim3.c$933$1_0$454         stm8s_tim3
     00009FAF  A$stm8s_tim3STM8S_StdPeriph_Lib/   stm8s_tim3
     00009FAF  C$stm8s_tim3.c$934$1_0$454         stm8s_tim3
     00009FAF  XG$TIM3_GetITStatus$0$0            stm8s_tim3
     00009FB0  A$stm8s_tim3STM8S_StdPeriph_Lib/   stm8s_tim3
     00009FB0  C$stm8s_tim3.c$945$1_0$458         stm8s_tim3
     00009FB0  C$stm8s_tim3.c$951$1_0$458         stm8s_tim3
     00009FB0  G$TIM3_ClearITPendingBit$0$0       stm8s_tim3
     00009FB0  _TIM3_ClearITPendingBit            stm8s_tim3
     00009FB2  A$stm8s_tim3STM8S_StdPeriph_Lib/   stm8s_tim3
     00009FB3  A$stm8s_tim3STM8S_StdPeriph_Lib/   stm8s_tim3
     00009FB6  A$stm8s_tim3STM8S_StdPeriph_Lib/   stm8s_tim3
     00009FB6  C$stm8s_tim3.c$952$1_0$458         stm8s_tim3
     00009FB6  XG$TIM3_ClearITPendingBit$0$0      stm8s_tim3
     00009FB7  A$stm8s_tim3STM8S_StdPeriph_Lib/   stm8s_tim3
     00009FB7  C$stm8s_tim3.c$970$1_0$460         stm8s_tim3
     00009FB7  Fstm8s_tim3$TI1_Config$0$0         stm8s_tim3
     00009FB8  A$stm8s_tim3STM8S_StdPeriph_Lib/   stm8s_tim3
     00009FB8  C$stm8s_tim3.c$975$1_0$460         stm8s_tim3
     00009FBC  A$stm8s_tim3STM8S_StdPeriph_Lib/   stm8s_tim3
     00009FBC  C$stm8s_tim3.c$978$1_0$460         stm8s_tim3
     00009FBF  A$stm8s_tim3STM8S_StdPeriph_Lib/   stm8s_tim3
     00009FC1  A$stm8s_tim3STM8S_StdPeriph_Lib/   stm8s_tim3
     00009FC3  A$stm8s_tim3STM8S_StdPeriph_Lib/   stm8s_tim3
     00009FC5  A$stm8s_tim3STM8S_StdPeriph_Lib/   stm8s_tim3
     00009FC6  A$stm8s_tim3STM8S_StdPeriph_Lib/   stm8s_tim3
     00009FC8  A$stm8s_tim3STM8S_StdPeriph_Lib/   stm8s_tim3
     00009FCA  A$stm8s_tim3STM8S_StdPeriph_Lib/   stm8s_tim3
     00009FCC  A$stm8s_tim3STM8S_StdPeriph_Lib/   stm8s_tim3
     00009FCF  A$stm8s_tim3STM8S_StdPeriph_Lib/   stm8s_tim3
     00009FCF  C$stm8s_tim3.c$981$1_0$460         stm8s_tim3
     00009FD1  A$stm8s_tim3STM8S_StdPeriph_Lib/   stm8s_tim3
     00009FD3  A$stm8s_tim3STM8S_StdPeriph_Lib/   stm8s_tim3
     00009FD3  C$stm8s_tim3.c$983$2_0$461         stm8s_tim3
     00009FD7  A$stm8s_tim3STM8S_StdPeriph_Lib/   stm8s_tim3
     00009FD9  A$stm8s_tim3STM8S_StdPeriph_Lib/   stm8s_tim3
     00009FD9  C$stm8s_tim3.c$987$2_0$462         stm8s_tim3
     00009FDD  A$stm8s_tim3STM8S_StdPeriph_Lib/   stm8s_tim3
     00009FDD  C$stm8s_tim3.c$990$1_0$460         stm8s_tim3
     00009FE1  A$stm8s_tim3STM8S_StdPeriph_Lib/   stm8s_tim3
     00009FE2  A$stm8s_tim3STM8S_StdPeriph_Lib/   stm8s_tim3
     00009FE2  C$stm8s_tim3.c$991$1_0$460         stm8s_tim3
ASxxxx Linker V03.00 + NoICE + sdld,  page 128.
Hexadecimal  [32-Bits]

Area                                    Addr        Size        Decimal Bytes (Attributes)
--------------------------------        ----        ----        ------- ----- ------------
CODE                                000082B4    0000592D =       22829. bytes (REL,CON)

      Value  Global                              Global Defined In Module
      -----  --------------------------------   ------------------------
     00009FE2  XFstm8s_tim3$TI1_Config$0$0        stm8s_tim3
     00009FE3  A$stm8s_tim3STM8S_StdPeriph_Lib/   stm8s_tim3
     00009FE3  C$stm8s_tim3.c$1009$1_0$464        stm8s_tim3
     00009FE3  Fstm8s_tim3$TI2_Config$0$0         stm8s_tim3
     00009FE4  A$stm8s_tim3STM8S_StdPeriph_Lib/   stm8s_tim3
     00009FE4  C$stm8s_tim3.c$1014$1_0$464        stm8s_tim3
     00009FE8  A$stm8s_tim3STM8S_StdPeriph_Lib/   stm8s_tim3
     00009FE8  C$stm8s_tim3.c$1017$1_0$464        stm8s_tim3
     00009FEB  A$stm8s_tim3STM8S_StdPeriph_Lib/   stm8s_tim3
     00009FED  A$stm8s_tim3STM8S_StdPeriph_Lib/   stm8s_tim3
     00009FEF  A$stm8s_tim3STM8S_StdPeriph_Lib/   stm8s_tim3
     00009FEF  C$stm8s_tim3.c$1019$1_0$464        stm8s_tim3
     00009FF1  A$stm8s_tim3STM8S_StdPeriph_Lib/   stm8s_tim3
     00009FF2  A$stm8s_tim3STM8S_StdPeriph_Lib/   stm8s_tim3
     00009FF4  A$stm8s_tim3STM8S_StdPeriph_Lib/   stm8s_tim3
     00009FF6  A$stm8s_tim3STM8S_StdPeriph_Lib/   stm8s_tim3
     00009FF8  A$stm8s_tim3STM8S_StdPeriph_Lib/   stm8s_tim3
     00009FFB  A$stm8s_tim3STM8S_StdPeriph_Lib/   stm8s_tim3
     00009FFB  C$stm8s_tim3.c$1022$1_0$464        stm8s_tim3
     00009FFD  A$stm8s_tim3STM8S_StdPeriph_Lib/   stm8s_tim3
     00009FFF  A$stm8s_tim3STM8S_StdPeriph_Lib/   stm8s_tim3
     00009FFF  C$stm8s_tim3.c$1024$2_0$465        stm8s_tim3
     0000A003  A$stm8s_tim3STM8S_StdPeriph_Lib/   stm8s_tim3
     0000A005  A$stm8s_tim3STM8S_StdPeriph_Lib/   stm8s_tim3
     0000A005  C$stm8s_tim3.c$1028$2_0$466        stm8s_tim3
     0000A009  A$stm8s_tim3STM8S_StdPeriph_Lib/   stm8s_tim3
     0000A009  C$stm8s_tim3.c$1032$1_0$464        stm8s_tim3
     0000A00D  A$stm8s_tim3STM8S_StdPeriph_Lib/   stm8s_tim3
     0000A00E  A$stm8s_tim3STM8S_StdPeriph_Lib/   stm8s_tim3
     0000A00E  C$stm8s_tim3.c$1033$1_0$464        stm8s_tim3
     0000A00E  XFstm8s_tim3$TI2_Config$0$0        stm8s_tim3
     0000A00F  A$stm8s_extiSTM8S_StdPeriph_Lib/   stm8s_exti
     0000A00F  C$stm8s_exti.c$53$0_0$346          stm8s_exti
     0000A00F  C$stm8s_exti.c$55$1_0$346          stm8s_exti
     0000A00F  G$EXTI_DeInit$0$0                  stm8s_exti
     0000A00F  _EXTI_DeInit                       stm8s_exti
     0000A013  A$stm8s_extiSTM8S_StdPeriph_Lib/   stm8s_exti
     0000A013  C$stm8s_exti.c$56$1_0$346          stm8s_exti
     0000A017  A$stm8s_extiSTM8S_StdPeriph_Lib/   stm8s_exti
     0000A017  C$stm8s_exti.c$57$1_0$346          stm8s_exti
     0000A017  XG$EXTI_DeInit$0$0                 stm8s_exti
     0000A018  A$stm8s_extiSTM8S_StdPeriph_Lib/   stm8s_exti
     0000A018  C$stm8s_exti.c$70$1_0$348          stm8s_exti
     0000A018  G$EXTI_SetExtIntSensitivity$0$0    stm8s_exti
     0000A018  _EXTI_SetExtIntSensitivity         stm8s_exti
     0000A019  A$stm8s_extiSTM8S_StdPeriph_Lib/   stm8s_exti
     0000A019  C$stm8s_exti.c$77$1_0$348          stm8s_exti
     0000A01B  A$stm8s_extiSTM8S_StdPeriph_Lib/   stm8s_exti
     0000A01D  A$stm8s_extiSTM8S_StdPeriph_Lib/   stm8s_exti
     0000A01F  A$stm8s_extiSTM8S_StdPeriph_Lib/   stm8s_exti
     0000A022  A$stm8s_extiSTM8S_StdPeriph_Lib/   stm8s_exti
ASxxxx Linker V03.00 + NoICE + sdld,  page 129.
Hexadecimal  [32-Bits]

Area                                    Addr        Size        Decimal Bytes (Attributes)
--------------------------------        ----        ----        ------- ----- ------------
CODE                                000082B4    0000592D =       22829. bytes (REL,CON)

      Value  Global                              Global Defined In Module
      -----  --------------------------------   ------------------------
     0000A023  A$stm8s_extiSTM8S_StdPeriph_Lib/   stm8s_exti
     0000A025  A$stm8s_extiSTM8S_StdPeriph_Lib/   stm8s_exti
     0000A026  A$stm8s_extiSTM8S_StdPeriph_Lib/   stm8s_exti
     0000A027  A$stm8s_extiSTM8S_StdPeriph_Lib/   stm8s_exti
     0000A02A  A$stm8s_extiSTM8S_StdPeriph_Lib/   stm8s_exti
     0000A035  A$stm8s_extiSTM8S_StdPeriph_Lib/   stm8s_exti
     0000A035  C$stm8s_exti.c$79$2_0$349          stm8s_exti
     0000A035  C$stm8s_exti.c$80$2_0$349          stm8s_exti
     0000A038  A$stm8s_extiSTM8S_StdPeriph_Lib/   stm8s_exti
     0000A03A  A$stm8s_extiSTM8S_StdPeriph_Lib/   stm8s_exti
     0000A03D  A$stm8s_extiSTM8S_StdPeriph_Lib/   stm8s_exti
     0000A03D  C$stm8s_exti.c$81$2_0$349          stm8s_exti
     0000A040  A$stm8s_extiSTM8S_StdPeriph_Lib/   stm8s_exti
     0000A042  A$stm8s_extiSTM8S_StdPeriph_Lib/   stm8s_exti
     0000A045  A$stm8s_extiSTM8S_StdPeriph_Lib/   stm8s_exti
     0000A045  C$stm8s_exti.c$82$2_0$349          stm8s_exti
     0000A048  A$stm8s_extiSTM8S_StdPeriph_Lib/   stm8s_exti
     0000A048  C$stm8s_exti.c$83$2_0$349          stm8s_exti
     0000A048  C$stm8s_exti.c$84$2_0$349          stm8s_exti
     0000A04B  A$stm8s_extiSTM8S_StdPeriph_Lib/   stm8s_exti
     0000A04D  A$stm8s_extiSTM8S_StdPeriph_Lib/   stm8s_exti
     0000A050  A$stm8s_extiSTM8S_StdPeriph_Lib/   stm8s_exti
     0000A050  C$stm8s_exti.c$85$2_0$349          stm8s_exti
     0000A053  A$stm8s_extiSTM8S_StdPeriph_Lib/   stm8s_exti
     0000A055  A$stm8s_extiSTM8S_StdPeriph_Lib/   stm8s_exti
     0000A057  A$stm8s_extiSTM8S_StdPeriph_Lib/   stm8s_exti
     0000A058  A$stm8s_extiSTM8S_StdPeriph_Lib/   stm8s_exti
     0000A059  A$stm8s_extiSTM8S_StdPeriph_Lib/   stm8s_exti
     0000A05B  A$stm8s_extiSTM8S_StdPeriph_Lib/   stm8s_exti
     0000A05E  A$stm8s_extiSTM8S_StdPeriph_Lib/   stm8s_exti
     0000A05E  C$stm8s_exti.c$86$2_0$349          stm8s_exti
     0000A061  A$stm8s_extiSTM8S_StdPeriph_Lib/   stm8s_exti
     0000A061  C$stm8s_exti.c$87$2_0$349          stm8s_exti
     0000A061  C$stm8s_exti.c$88$2_0$349          stm8s_exti
     0000A064  A$stm8s_extiSTM8S_StdPeriph_Lib/   stm8s_exti
     0000A066  A$stm8s_extiSTM8S_StdPeriph_Lib/   stm8s_exti
     0000A069  A$stm8s_extiSTM8S_StdPeriph_Lib/   stm8s_exti
     0000A069  C$stm8s_exti.c$89$2_0$349          stm8s_exti
     0000A06C  A$stm8s_extiSTM8S_StdPeriph_Lib/   stm8s_exti
     0000A06E  A$stm8s_extiSTM8S_StdPeriph_Lib/   stm8s_exti
     0000A070  A$stm8s_extiSTM8S_StdPeriph_Lib/   stm8s_exti
     0000A071  A$stm8s_extiSTM8S_StdPeriph_Lib/   stm8s_exti
     0000A073  A$stm8s_extiSTM8S_StdPeriph_Lib/   stm8s_exti
     0000A075  A$stm8s_extiSTM8S_StdPeriph_Lib/   stm8s_exti
     0000A078  A$stm8s_extiSTM8S_StdPeriph_Lib/   stm8s_exti
     0000A078  C$stm8s_exti.c$90$2_0$349          stm8s_exti
     0000A07A  A$stm8s_extiSTM8S_StdPeriph_Lib/   stm8s_exti
     0000A07A  C$stm8s_exti.c$91$2_0$349          stm8s_exti
     0000A07A  C$stm8s_exti.c$92$2_0$349          stm8s_exti
     0000A07D  A$stm8s_extiSTM8S_StdPeriph_Lib/   stm8s_exti
     0000A07F  A$stm8s_extiSTM8S_StdPeriph_Lib/   stm8s_exti
ASxxxx Linker V03.00 + NoICE + sdld,  page 130.
Hexadecimal  [32-Bits]

Area                                    Addr        Size        Decimal Bytes (Attributes)
--------------------------------        ----        ----        ------- ----- ------------
CODE                                000082B4    0000592D =       22829. bytes (REL,CON)

      Value  Global                              Global Defined In Module
      -----  --------------------------------   ------------------------
     0000A082  A$stm8s_extiSTM8S_StdPeriph_Lib/   stm8s_exti
     0000A082  C$stm8s_exti.c$93$2_0$349          stm8s_exti
     0000A085  A$stm8s_extiSTM8S_StdPeriph_Lib/   stm8s_exti
     0000A087  A$stm8s_extiSTM8S_StdPeriph_Lib/   stm8s_exti
     0000A089  A$stm8s_extiSTM8S_StdPeriph_Lib/   stm8s_exti
     0000A08A  A$stm8s_extiSTM8S_StdPeriph_Lib/   stm8s_exti
     0000A08C  A$stm8s_extiSTM8S_StdPeriph_Lib/   stm8s_exti
     0000A08D  A$stm8s_extiSTM8S_StdPeriph_Lib/   stm8s_exti
     0000A08E  A$stm8s_extiSTM8S_StdPeriph_Lib/   stm8s_exti
     0000A090  A$stm8s_extiSTM8S_StdPeriph_Lib/   stm8s_exti
     0000A093  A$stm8s_extiSTM8S_StdPeriph_Lib/   stm8s_exti
     0000A093  C$stm8s_exti.c$94$2_0$349          stm8s_exti
     0000A095  A$stm8s_extiSTM8S_StdPeriph_Lib/   stm8s_exti
     0000A095  C$stm8s_exti.c$95$2_0$349          stm8s_exti
     0000A095  C$stm8s_exti.c$96$2_0$349          stm8s_exti
     0000A098  A$stm8s_extiSTM8S_StdPeriph_Lib/   stm8s_exti
     0000A09A  A$stm8s_extiSTM8S_StdPeriph_Lib/   stm8s_exti
     0000A09D  A$stm8s_extiSTM8S_StdPeriph_Lib/   stm8s_exti
     0000A09D  C$stm8s_exti.c$97$2_0$349          stm8s_exti
     0000A0A0  A$stm8s_extiSTM8S_StdPeriph_Lib/   stm8s_exti
     0000A0A2  A$stm8s_extiSTM8S_StdPeriph_Lib/   stm8s_exti
     0000A0A5  A$stm8s_extiSTM8S_StdPeriph_Lib/   stm8s_exti
     0000A0A5  C$stm8s_exti.c$101$1_0$348         stm8s_exti
     0000A0A6  A$stm8s_extiSTM8S_StdPeriph_Lib/   stm8s_exti
     0000A0A6  C$stm8s_exti.c$102$1_0$348         stm8s_exti
     0000A0A6  XG$EXTI_SetExtIntSensitivity$0$0   stm8s_exti
     0000A0A7  A$stm8s_extiSTM8S_StdPeriph_Lib/   stm8s_exti
     0000A0A7  C$stm8s_exti.c$111$1_0$351         stm8s_exti
     0000A0A7  C$stm8s_exti.c$117$1_0$351         stm8s_exti
     0000A0A7  G$EXTI_SetTLISensitivity$0$0       stm8s_exti
     0000A0A7  _EXTI_SetTLISensitivity            stm8s_exti
     0000A0AA  A$stm8s_extiSTM8S_StdPeriph_Lib/   stm8s_exti
     0000A0AC  A$stm8s_extiSTM8S_StdPeriph_Lib/   stm8s_exti
     0000A0AF  A$stm8s_extiSTM8S_StdPeriph_Lib/   stm8s_exti
     0000A0AF  C$stm8s_exti.c$118$1_0$351         stm8s_exti
     0000A0B2  A$stm8s_extiSTM8S_StdPeriph_Lib/   stm8s_exti
     0000A0B4  A$stm8s_extiSTM8S_StdPeriph_Lib/   stm8s_exti
     0000A0B7  A$stm8s_extiSTM8S_StdPeriph_Lib/   stm8s_exti
     0000A0B7  C$stm8s_exti.c$119$1_0$351         stm8s_exti
     0000A0B7  XG$EXTI_SetTLISensitivity$0$0      stm8s_exti
     0000A0B8  A$stm8s_extiSTM8S_StdPeriph_Lib/   stm8s_exti
     0000A0B8  C$stm8s_exti.c$126$1_0$353         stm8s_exti
     0000A0B8  C$stm8s_exti.c$128$2_0$353         stm8s_exti
     0000A0B8  G$EXTI_GetExtIntSensitivity$0$0    stm8s_exti
     0000A0B8  _EXTI_GetExtIntSensitivity         stm8s_exti
     0000A0B9  A$stm8s_extiSTM8S_StdPeriph_Lib/   stm8s_exti
     0000A0B9  C$stm8s_exti.c$133$1_0$353         stm8s_exti
     0000A0BA  A$stm8s_extiSTM8S_StdPeriph_Lib/   stm8s_exti
     0000A0BC  A$stm8s_extiSTM8S_StdPeriph_Lib/   stm8s_exti
     0000A0BE  A$stm8s_extiSTM8S_StdPeriph_Lib/   stm8s_exti
     0000A0BF  A$stm8s_extiSTM8S_StdPeriph_Lib/   stm8s_exti
ASxxxx Linker V03.00 + NoICE + sdld,  page 131.
Hexadecimal  [32-Bits]

Area                                    Addr        Size        Decimal Bytes (Attributes)
--------------------------------        ----        ----        ------- ----- ------------
CODE                                000082B4    0000592D =       22829. bytes (REL,CON)

      Value  Global                              Global Defined In Module
      -----  --------------------------------   ------------------------
     0000A0C1  A$stm8s_extiSTM8S_StdPeriph_Lib/   stm8s_exti
     0000A0C4  A$stm8s_extiSTM8S_StdPeriph_Lib/   stm8s_exti
     0000A0C5  A$stm8s_extiSTM8S_StdPeriph_Lib/   stm8s_exti
     0000A0C7  A$stm8s_extiSTM8S_StdPeriph_Lib/   stm8s_exti
     0000A0C8  A$stm8s_extiSTM8S_StdPeriph_Lib/   stm8s_exti
     0000A0C9  A$stm8s_extiSTM8S_StdPeriph_Lib/   stm8s_exti
     0000A0CC  A$stm8s_extiSTM8S_StdPeriph_Lib/   stm8s_exti
     0000A0D7  A$stm8s_extiSTM8S_StdPeriph_Lib/   stm8s_exti
     0000A0D7  C$stm8s_exti.c$135$2_0$354         stm8s_exti
     0000A0D7  C$stm8s_exti.c$136$2_0$354         stm8s_exti
     0000A0DA  A$stm8s_extiSTM8S_StdPeriph_Lib/   stm8s_exti
     0000A0DC  A$stm8s_extiSTM8S_StdPeriph_Lib/   stm8s_exti
     0000A0DC  C$stm8s_exti.c$137$2_0$354         stm8s_exti
     0000A0DE  A$stm8s_extiSTM8S_StdPeriph_Lib/   stm8s_exti
     0000A0DE  C$stm8s_exti.c$138$2_0$354         stm8s_exti
     0000A0DE  C$stm8s_exti.c$139$2_0$354         stm8s_exti
     0000A0E1  A$stm8s_extiSTM8S_StdPeriph_Lib/   stm8s_exti
     0000A0E3  A$stm8s_extiSTM8S_StdPeriph_Lib/   stm8s_exti
     0000A0E4  A$stm8s_extiSTM8S_StdPeriph_Lib/   stm8s_exti
     0000A0E5  A$stm8s_extiSTM8S_StdPeriph_Lib/   stm8s_exti
     0000A0E5  C$stm8s_exti.c$140$2_0$354         stm8s_exti
     0000A0E7  A$stm8s_extiSTM8S_StdPeriph_Lib/   stm8s_exti
     0000A0E7  C$stm8s_exti.c$141$2_0$354         stm8s_exti
     0000A0E7  C$stm8s_exti.c$142$2_0$354         stm8s_exti
     0000A0EA  A$stm8s_extiSTM8S_StdPeriph_Lib/   stm8s_exti
     0000A0EC  A$stm8s_extiSTM8S_StdPeriph_Lib/   stm8s_exti
     0000A0ED  A$stm8s_extiSTM8S_StdPeriph_Lib/   stm8s_exti
     0000A0EF  A$stm8s_extiSTM8S_StdPeriph_Lib/   stm8s_exti
     0000A0EF  C$stm8s_exti.c$143$2_0$354         stm8s_exti
     0000A0F1  A$stm8s_extiSTM8S_StdPeriph_Lib/   stm8s_exti
     0000A0F1  C$stm8s_exti.c$144$2_0$354         stm8s_exti
     0000A0F1  C$stm8s_exti.c$145$2_0$354         stm8s_exti
     0000A0F4  A$stm8s_extiSTM8S_StdPeriph_Lib/   stm8s_exti
     0000A0F6  A$stm8s_extiSTM8S_StdPeriph_Lib/   stm8s_exti
     0000A0F7  A$stm8s_extiSTM8S_StdPeriph_Lib/   stm8s_exti
     0000A0F9  A$stm8s_extiSTM8S_StdPeriph_Lib/   stm8s_exti
     0000A0FA  A$stm8s_extiSTM8S_StdPeriph_Lib/   stm8s_exti
     0000A0FB  A$stm8s_extiSTM8S_StdPeriph_Lib/   stm8s_exti
     0000A0FB  C$stm8s_exti.c$146$2_0$354         stm8s_exti
     0000A0FD  A$stm8s_extiSTM8S_StdPeriph_Lib/   stm8s_exti
     0000A0FD  C$stm8s_exti.c$147$2_0$354         stm8s_exti
     0000A0FD  C$stm8s_exti.c$148$2_0$354         stm8s_exti
     0000A100  A$stm8s_extiSTM8S_StdPeriph_Lib/   stm8s_exti
     0000A102  A$stm8s_extiSTM8S_StdPeriph_Lib/   stm8s_exti
     0000A102  C$stm8s_exti.c$152$1_0$353         stm8s_exti
     0000A102  C$stm8s_exti.c$154$1_0$353         stm8s_exti
     0000A102  C$stm8s_exti.c$155$1_0$353         stm8s_exti
     0000A102  XG$EXTI_GetExtIntSensitivity$0$0   stm8s_exti
     0000A103  A$stm8s_extiSTM8S_StdPeriph_Lib/   stm8s_exti
     0000A103  C$stm8s_exti.c$162$1_0$356         stm8s_exti
     0000A103  C$stm8s_exti.c$167$1_0$356         stm8s_exti
ASxxxx Linker V03.00 + NoICE + sdld,  page 132.
Hexadecimal  [32-Bits]

Area                                    Addr        Size        Decimal Bytes (Attributes)
--------------------------------        ----        ----        ------- ----- ------------
CODE                                000082B4    0000592D =       22829. bytes (REL,CON)

      Value  Global                              Global Defined In Module
      -----  --------------------------------   ------------------------
     0000A103  G$EXTI_GetTLISensitivity$0$0       stm8s_exti
     0000A103  _EXTI_GetTLISensitivity            stm8s_exti
     0000A106  A$stm8s_extiSTM8S_StdPeriph_Lib/   stm8s_exti
     0000A108  A$stm8s_extiSTM8S_StdPeriph_Lib/   stm8s_exti
     0000A108  C$stm8s_exti.c$169$1_0$356         stm8s_exti
     0000A108  C$stm8s_exti.c$170$1_0$356         stm8s_exti
     0000A108  XG$EXTI_GetTLISensitivity$0$0      stm8s_exti
     0000A109  A$stm8s_adc1STM8S_StdPeriph_Lib/   stm8s_adc1
     0000A109  C$stm8s_adc1.c$52$0_0$346          stm8s_adc1
     0000A109  C$stm8s_adc1.c$54$1_0$346          stm8s_adc1
     0000A109  G$ADC1_DeInit$0$0                  stm8s_adc1
     0000A109  _ADC1_DeInit                       stm8s_adc1
     0000A10D  A$stm8s_adc1STM8S_StdPeriph_Lib/   stm8s_adc1
     0000A10D  C$stm8s_adc1.c$55$1_0$346          stm8s_adc1
     0000A111  A$stm8s_adc1STM8S_StdPeriph_Lib/   stm8s_adc1
     0000A111  C$stm8s_adc1.c$56$1_0$346          stm8s_adc1
     0000A115  A$stm8s_adc1STM8S_StdPeriph_Lib/   stm8s_adc1
     0000A115  C$stm8s_adc1.c$57$1_0$346          stm8s_adc1
     0000A119  A$stm8s_adc1STM8S_StdPeriph_Lib/   stm8s_adc1
     0000A119  C$stm8s_adc1.c$58$1_0$346          stm8s_adc1
     0000A11D  A$stm8s_adc1STM8S_StdPeriph_Lib/   stm8s_adc1
     0000A11D  C$stm8s_adc1.c$59$1_0$346          stm8s_adc1
     0000A121  A$stm8s_adc1STM8S_StdPeriph_Lib/   stm8s_adc1
     0000A121  C$stm8s_adc1.c$60$1_0$346          stm8s_adc1
     0000A125  A$stm8s_adc1STM8S_StdPeriph_Lib/   stm8s_adc1
     0000A125  C$stm8s_adc1.c$61$1_0$346          stm8s_adc1
     0000A129  A$stm8s_adc1STM8S_StdPeriph_Lib/   stm8s_adc1
     0000A129  C$stm8s_adc1.c$62$1_0$346          stm8s_adc1
     0000A12D  A$stm8s_adc1STM8S_StdPeriph_Lib/   stm8s_adc1
     0000A12D  C$stm8s_adc1.c$63$1_0$346          stm8s_adc1
     0000A131  A$stm8s_adc1STM8S_StdPeriph_Lib/   stm8s_adc1
     0000A131  C$stm8s_adc1.c$64$1_0$346          stm8s_adc1
     0000A135  A$stm8s_adc1STM8S_StdPeriph_Lib/   stm8s_adc1
     0000A135  C$stm8s_adc1.c$65$1_0$346          stm8s_adc1
     0000A139  A$stm8s_adc1STM8S_StdPeriph_Lib/   stm8s_adc1
     0000A139  C$stm8s_adc1.c$66$1_0$346          stm8s_adc1
     0000A139  XG$ADC1_DeInit$0$0                 stm8s_adc1
     0000A13A  A$stm8s_adc1STM8S_StdPeriph_Lib/   stm8s_adc1
     0000A13A  C$stm8s_adc1.c$88$1_0$348          stm8s_adc1
     0000A13A  C$stm8s_adc1.c$93$1_0$348          stm8s_adc1
     0000A13A  G$ADC1_Init$0$0                    stm8s_adc1
     0000A13A  _ADC1_Init                         stm8s_adc1
     0000A13C  A$stm8s_adc1STM8S_StdPeriph_Lib/   stm8s_adc1
     0000A13D  A$stm8s_adc1STM8S_StdPeriph_Lib/   stm8s_adc1
     0000A13F  A$stm8s_adc1STM8S_StdPeriph_Lib/   stm8s_adc1
     0000A140  A$stm8s_adc1STM8S_StdPeriph_Lib/   stm8s_adc1
     0000A142  A$stm8s_adc1STM8S_StdPeriph_Lib/   stm8s_adc1
     0000A143  A$stm8s_adc1STM8S_StdPeriph_Lib/   stm8s_adc1
     0000A146  A$stm8s_adc1STM8S_StdPeriph_Lib/   stm8s_adc1
     0000A148  A$stm8s_adc1STM8S_StdPeriph_Lib/   stm8s_adc1
     0000A148  C$stm8s_adc1.c$95$1_0$348          stm8s_adc1
ASxxxx Linker V03.00 + NoICE + sdld,  page 133.
Hexadecimal  [32-Bits]

Area                                    Addr        Size        Decimal Bytes (Attributes)
--------------------------------        ----        ----        ------- ----- ------------
CODE                                000082B4    0000592D =       22829. bytes (REL,CON)

      Value  Global                              Global Defined In Module
      -----  --------------------------------   ------------------------
     0000A14A  A$stm8s_adc1STM8S_StdPeriph_Lib/   stm8s_adc1
     0000A14B  A$stm8s_adc1STM8S_StdPeriph_Lib/   stm8s_adc1
     0000A14E  A$stm8s_adc1STM8S_StdPeriph_Lib/   stm8s_adc1
     0000A14F  A$stm8s_adc1STM8S_StdPeriph_Lib/   stm8s_adc1
     0000A14F  C$stm8s_adc1.c$100$1_0$348         stm8s_adc1
     0000A151  A$stm8s_adc1STM8S_StdPeriph_Lib/   stm8s_adc1
     0000A152  A$stm8s_adc1STM8S_StdPeriph_Lib/   stm8s_adc1
     0000A154  A$stm8s_adc1STM8S_StdPeriph_Lib/   stm8s_adc1
     0000A155  A$stm8s_adc1STM8S_StdPeriph_Lib/   stm8s_adc1
     0000A158  A$stm8s_adc1STM8S_StdPeriph_Lib/   stm8s_adc1
     0000A15A  A$stm8s_adc1STM8S_StdPeriph_Lib/   stm8s_adc1
     0000A15A  C$stm8s_adc1.c$105$1_0$348         stm8s_adc1
     0000A15C  A$stm8s_adc1STM8S_StdPeriph_Lib/   stm8s_adc1
     0000A15D  A$stm8s_adc1STM8S_StdPeriph_Lib/   stm8s_adc1
     0000A15F  A$stm8s_adc1STM8S_StdPeriph_Lib/   stm8s_adc1
     0000A160  A$stm8s_adc1STM8S_StdPeriph_Lib/   stm8s_adc1
     0000A163  A$stm8s_adc1STM8S_StdPeriph_Lib/   stm8s_adc1
     0000A165  A$stm8s_adc1STM8S_StdPeriph_Lib/   stm8s_adc1
     0000A165  C$stm8s_adc1.c$108$1_0$348         stm8s_adc1
     0000A169  A$stm8s_adc1STM8S_StdPeriph_Lib/   stm8s_adc1
     0000A169  C$stm8s_adc1.c$109$1_0$348         stm8s_adc1
     0000A169  XG$ADC1_Init$0$0                   stm8s_adc1
     0000A16A  A$stm8s_adc1STM8S_StdPeriph_Lib/   stm8s_adc1
     0000A16A  C$stm8s_adc1.c$116$1_0$350         stm8s_adc1
     0000A16A  C$stm8s_adc1.c$121$1_0$350         stm8s_adc1
     0000A16A  G$ADC1_Cmd$0$0                     stm8s_adc1
     0000A16A  _ADC1_Cmd                          stm8s_adc1
     0000A16C  A$stm8s_adc1STM8S_StdPeriph_Lib/   stm8s_adc1
     0000A16E  A$stm8s_adc1STM8S_StdPeriph_Lib/   stm8s_adc1
     0000A16E  C$stm8s_adc1.c$123$2_0$351         stm8s_adc1
     0000A172  A$stm8s_adc1STM8S_StdPeriph_Lib/   stm8s_adc1
     0000A174  A$stm8s_adc1STM8S_StdPeriph_Lib/   stm8s_adc1
     0000A174  C$stm8s_adc1.c$127$2_0$352         stm8s_adc1
     0000A178  A$stm8s_adc1STM8S_StdPeriph_Lib/   stm8s_adc1
     0000A178  C$stm8s_adc1.c$129$1_0$350         stm8s_adc1
     0000A178  XG$ADC1_Cmd$0$0                    stm8s_adc1
     0000A179  A$stm8s_adc1STM8S_StdPeriph_Lib/   stm8s_adc1
     0000A179  C$stm8s_adc1.c$136$1_0$354         stm8s_adc1
     0000A179  C$stm8s_adc1.c$141$1_0$354         stm8s_adc1
     0000A179  G$ADC1_ScanModeCmd$0$0             stm8s_adc1
     0000A179  _ADC1_ScanModeCmd                  stm8s_adc1
     0000A17B  A$stm8s_adc1STM8S_StdPeriph_Lib/   stm8s_adc1
     0000A17D  A$stm8s_adc1STM8S_StdPeriph_Lib/   stm8s_adc1
     0000A17D  C$stm8s_adc1.c$143$2_0$355         stm8s_adc1
     0000A181  A$stm8s_adc1STM8S_StdPeriph_Lib/   stm8s_adc1
     0000A183  A$stm8s_adc1STM8S_StdPeriph_Lib/   stm8s_adc1
     0000A183  C$stm8s_adc1.c$147$2_0$356         stm8s_adc1
     0000A187  A$stm8s_adc1STM8S_StdPeriph_Lib/   stm8s_adc1
     0000A187  C$stm8s_adc1.c$149$1_0$354         stm8s_adc1
     0000A187  XG$ADC1_ScanModeCmd$0$0            stm8s_adc1
     0000A188  A$stm8s_adc1STM8S_StdPeriph_Lib/   stm8s_adc1
ASxxxx Linker V03.00 + NoICE + sdld,  page 134.
Hexadecimal  [32-Bits]

Area                                    Addr        Size        Decimal Bytes (Attributes)
--------------------------------        ----        ----        ------- ----- ------------
CODE                                000082B4    0000592D =       22829. bytes (REL,CON)

      Value  Global                              Global Defined In Module
      -----  --------------------------------   ------------------------
     0000A188  C$stm8s_adc1.c$156$1_0$358         stm8s_adc1
     0000A188  C$stm8s_adc1.c$161$1_0$358         stm8s_adc1
     0000A188  G$ADC1_DataBufferCmd$0$0           stm8s_adc1
     0000A188  _ADC1_DataBufferCmd                stm8s_adc1
     0000A18A  A$stm8s_adc1STM8S_StdPeriph_Lib/   stm8s_adc1
     0000A18C  A$stm8s_adc1STM8S_StdPeriph_Lib/   stm8s_adc1
     0000A18C  C$stm8s_adc1.c$163$2_0$359         stm8s_adc1
     0000A190  A$stm8s_adc1STM8S_StdPeriph_Lib/   stm8s_adc1
     0000A192  A$stm8s_adc1STM8S_StdPeriph_Lib/   stm8s_adc1
     0000A192  C$stm8s_adc1.c$167$2_0$360         stm8s_adc1
     0000A196  A$stm8s_adc1STM8S_StdPeriph_Lib/   stm8s_adc1
     0000A196  C$stm8s_adc1.c$169$1_0$358         stm8s_adc1
     0000A196  XG$ADC1_DataBufferCmd$0$0          stm8s_adc1
     0000A197  A$stm8s_adc1STM8S_StdPeriph_Lib/   stm8s_adc1
     0000A197  C$stm8s_adc1.c$180$1_0$362         stm8s_adc1
     0000A197  G$ADC1_ITConfig$0$0                stm8s_adc1
     0000A197  _ADC1_ITConfig                     stm8s_adc1
     0000A198  A$stm8s_adc1STM8S_StdPeriph_Lib/   stm8s_adc1
     0000A198  C$stm8s_adc1.c$182$1_0$362         stm8s_adc1
     0000A19A  A$stm8s_adc1STM8S_StdPeriph_Lib/   stm8s_adc1
     0000A19C  A$stm8s_adc1STM8S_StdPeriph_Lib/   stm8s_adc1
     0000A19C  C$stm8s_adc1.c$185$2_0$363         stm8s_adc1
     0000A19F  A$stm8s_adc1STM8S_StdPeriph_Lib/   stm8s_adc1
     0000A1A1  A$stm8s_adc1STM8S_StdPeriph_Lib/   stm8s_adc1
     0000A1A3  A$stm8s_adc1STM8S_StdPeriph_Lib/   stm8s_adc1
     0000A1A5  A$stm8s_adc1STM8S_StdPeriph_Lib/   stm8s_adc1
     0000A1A8  A$stm8s_adc1STM8S_StdPeriph_Lib/   stm8s_adc1
     0000A1AA  A$stm8s_adc1STM8S_StdPeriph_Lib/   stm8s_adc1
     0000A1AA  C$stm8s_adc1.c$190$2_0$364         stm8s_adc1
     0000A1AD  A$stm8s_adc1STM8S_StdPeriph_Lib/   stm8s_adc1
     0000A1AF  A$stm8s_adc1STM8S_StdPeriph_Lib/   stm8s_adc1
     0000A1B0  A$stm8s_adc1STM8S_StdPeriph_Lib/   stm8s_adc1
     0000A1B1  A$stm8s_adc1STM8S_StdPeriph_Lib/   stm8s_adc1
     0000A1B3  A$stm8s_adc1STM8S_StdPeriph_Lib/   stm8s_adc1
     0000A1B4  A$stm8s_adc1STM8S_StdPeriph_Lib/   stm8s_adc1
     0000A1B7  A$stm8s_adc1STM8S_StdPeriph_Lib/   stm8s_adc1
     0000A1B8  A$stm8s_adc1STM8S_StdPeriph_Lib/   stm8s_adc1
     0000A1B8  C$stm8s_adc1.c$192$1_0$362         stm8s_adc1
     0000A1B8  XG$ADC1_ITConfig$0$0               stm8s_adc1
     0000A1B9  A$stm8s_adc1STM8S_StdPeriph_Lib/   stm8s_adc1
     0000A1B9  C$stm8s_adc1.c$200$1_0$366         stm8s_adc1
     0000A1B9  C$stm8s_adc1.c$203$1_0$366         stm8s_adc1
     0000A1B9  G$ADC1_PrescalerConfig$0$0         stm8s_adc1
     0000A1B9  _ADC1_PrescalerConfig              stm8s_adc1
     0000A1BC  A$stm8s_adc1STM8S_StdPeriph_Lib/   stm8s_adc1
     0000A1BE  A$stm8s_adc1STM8S_StdPeriph_Lib/   stm8s_adc1
     0000A1C1  A$stm8s_adc1STM8S_StdPeriph_Lib/   stm8s_adc1
     0000A1C1  C$stm8s_adc1.c$205$1_0$366         stm8s_adc1
     0000A1C4  A$stm8s_adc1STM8S_StdPeriph_Lib/   stm8s_adc1
     0000A1C6  A$stm8s_adc1STM8S_StdPeriph_Lib/   stm8s_adc1
     0000A1C9  A$stm8s_adc1STM8S_StdPeriph_Lib/   stm8s_adc1
ASxxxx Linker V03.00 + NoICE + sdld,  page 135.
Hexadecimal  [32-Bits]

Area                                    Addr        Size        Decimal Bytes (Attributes)
--------------------------------        ----        ----        ------- ----- ------------
CODE                                000082B4    0000592D =       22829. bytes (REL,CON)

      Value  Global                              Global Defined In Module
      -----  --------------------------------   ------------------------
     0000A1C9  C$stm8s_adc1.c$206$1_0$366         stm8s_adc1
     0000A1C9  XG$ADC1_PrescalerConfig$0$0        stm8s_adc1
     0000A1CA  A$stm8s_adc1STM8S_StdPeriph_Lib/   stm8s_adc1
     0000A1CA  C$stm8s_adc1.c$216$1_0$368         stm8s_adc1
     0000A1CA  G$ADC1_SchmittTriggerConfig$0$0    stm8s_adc1
     0000A1CA  _ADC1_SchmittTriggerConfig         stm8s_adc1
     0000A1CB  A$stm8s_adc1STM8S_StdPeriph_Lib/   stm8s_adc1
     0000A1CB  C$stm8s_adc1.c$218$1_0$368         stm8s_adc1
     0000A1CD  A$stm8s_adc1STM8S_StdPeriph_Lib/   stm8s_adc1
     0000A1CE  A$stm8s_adc1STM8S_StdPeriph_Lib/   stm8s_adc1
     0000A1D0  A$stm8s_adc1STM8S_StdPeriph_Lib/   stm8s_adc1
     0000A1D0  C$stm8s_adc1.c$220$2_0$369         stm8s_adc1
     0000A1D2  A$stm8s_adc1STM8S_StdPeriph_Lib/   stm8s_adc1
     0000A1D4  A$stm8s_adc1STM8S_StdPeriph_Lib/   stm8s_adc1
     0000A1D4  C$stm8s_adc1.c$222$3_0$370         stm8s_adc1
     0000A1D7  A$stm8s_adc1STM8S_StdPeriph_Lib/   stm8s_adc1
     0000A1DB  A$stm8s_adc1STM8S_StdPeriph_Lib/   stm8s_adc1
     0000A1DB  C$stm8s_adc1.c$223$3_0$370         stm8s_adc1
     0000A1DE  A$stm8s_adc1STM8S_StdPeriph_Lib/   stm8s_adc1
     0000A1E2  A$stm8s_adc1STM8S_StdPeriph_Lib/   stm8s_adc1
     0000A1E5  A$stm8s_adc1STM8S_StdPeriph_Lib/   stm8s_adc1
     0000A1E5  C$stm8s_adc1.c$227$3_0$371         stm8s_adc1
     0000A1E8  A$stm8s_adc1STM8S_StdPeriph_Lib/   stm8s_adc1
     0000A1EC  A$stm8s_adc1STM8S_StdPeriph_Lib/   stm8s_adc1
     0000A1EC  C$stm8s_adc1.c$228$3_0$371         stm8s_adc1
     0000A1EF  A$stm8s_adc1STM8S_StdPeriph_Lib/   stm8s_adc1
     0000A1F3  A$stm8s_adc1STM8S_StdPeriph_Lib/   stm8s_adc1
     0000A1F6  A$stm8s_adc1STM8S_StdPeriph_Lib/   stm8s_adc1
     0000A1F6  C$stm8s_adc1.c$231$1_0$368         stm8s_adc1
     0000A1F8  A$stm8s_adc1STM8S_StdPeriph_Lib/   stm8s_adc1
     0000A1FA  A$stm8s_adc1STM8S_StdPeriph_Lib/   stm8s_adc1
     0000A1FC  A$stm8s_adc1STM8S_StdPeriph_Lib/   stm8s_adc1
     0000A1FC  C$stm8s_adc1.c$233$2_0$372         stm8s_adc1
     0000A1FE  A$stm8s_adc1STM8S_StdPeriph_Lib/   stm8s_adc1
     0000A200  A$stm8s_adc1STM8S_StdPeriph_Lib/   stm8s_adc1
     0000A200  C$stm8s_adc1.c$235$3_0$373         stm8s_adc1
     0000A203  A$stm8s_adc1STM8S_StdPeriph_Lib/   stm8s_adc1
     0000A205  A$stm8s_adc1STM8S_StdPeriph_Lib/   stm8s_adc1
     0000A207  A$stm8s_adc1STM8S_StdPeriph_Lib/   stm8s_adc1
     0000A208  A$stm8s_adc1STM8S_StdPeriph_Lib/   stm8s_adc1
     0000A20A  A$stm8s_adc1STM8S_StdPeriph_Lib/   stm8s_adc1
     0000A20C  A$stm8s_adc1STM8S_StdPeriph_Lib/   stm8s_adc1
     0000A20E  A$stm8s_adc1STM8S_StdPeriph_Lib/   stm8s_adc1
     0000A20F  A$stm8s_adc1STM8S_StdPeriph_Lib/   stm8s_adc1
     0000A211  A$stm8s_adc1STM8S_StdPeriph_Lib/   stm8s_adc1
     0000A212  A$stm8s_adc1STM8S_StdPeriph_Lib/   stm8s_adc1
     0000A213  A$stm8s_adc1STM8S_StdPeriph_Lib/   stm8s_adc1
     0000A215  A$stm8s_adc1STM8S_StdPeriph_Lib/   stm8s_adc1
     0000A218  A$stm8s_adc1STM8S_StdPeriph_Lib/   stm8s_adc1
     0000A21A  A$stm8s_adc1STM8S_StdPeriph_Lib/   stm8s_adc1
     0000A21A  C$stm8s_adc1.c$239$3_0$374         stm8s_adc1
ASxxxx Linker V03.00 + NoICE + sdld,  page 136.
Hexadecimal  [32-Bits]

Area                                    Addr        Size        Decimal Bytes (Attributes)
--------------------------------        ----        ----        ------- ----- ------------
CODE                                000082B4    0000592D =       22829. bytes (REL,CON)

      Value  Global                              Global Defined In Module
      -----  --------------------------------   ------------------------
     0000A21D  A$stm8s_adc1STM8S_StdPeriph_Lib/   stm8s_adc1
     0000A21E  A$stm8s_adc1STM8S_StdPeriph_Lib/   stm8s_adc1
     0000A220  A$stm8s_adc1STM8S_StdPeriph_Lib/   stm8s_adc1
     0000A222  A$stm8s_adc1STM8S_StdPeriph_Lib/   stm8s_adc1
     0000A224  A$stm8s_adc1STM8S_StdPeriph_Lib/   stm8s_adc1
     0000A226  A$stm8s_adc1STM8S_StdPeriph_Lib/   stm8s_adc1
     0000A228  A$stm8s_adc1STM8S_StdPeriph_Lib/   stm8s_adc1
     0000A229  A$stm8s_adc1STM8S_StdPeriph_Lib/   stm8s_adc1
     0000A22B  A$stm8s_adc1STM8S_StdPeriph_Lib/   stm8s_adc1
     0000A22C  A$stm8s_adc1STM8S_StdPeriph_Lib/   stm8s_adc1
     0000A22E  A$stm8s_adc1STM8S_StdPeriph_Lib/   stm8s_adc1
     0000A231  A$stm8s_adc1STM8S_StdPeriph_Lib/   stm8s_adc1
     0000A233  A$stm8s_adc1STM8S_StdPeriph_Lib/   stm8s_adc1
     0000A233  C$stm8s_adc1.c$244$2_0$375         stm8s_adc1
     0000A235  A$stm8s_adc1STM8S_StdPeriph_Lib/   stm8s_adc1
     0000A237  A$stm8s_adc1STM8S_StdPeriph_Lib/   stm8s_adc1
     0000A237  C$stm8s_adc1.c$246$3_0$376         stm8s_adc1
     0000A23A  A$stm8s_adc1STM8S_StdPeriph_Lib/   stm8s_adc1
     0000A23C  A$stm8s_adc1STM8S_StdPeriph_Lib/   stm8s_adc1
     0000A23E  A$stm8s_adc1STM8S_StdPeriph_Lib/   stm8s_adc1
     0000A240  A$stm8s_adc1STM8S_StdPeriph_Lib/   stm8s_adc1
     0000A241  A$stm8s_adc1STM8S_StdPeriph_Lib/   stm8s_adc1
     0000A243  A$stm8s_adc1STM8S_StdPeriph_Lib/   stm8s_adc1
     0000A244  A$stm8s_adc1STM8S_StdPeriph_Lib/   stm8s_adc1
     0000A245  A$stm8s_adc1STM8S_StdPeriph_Lib/   stm8s_adc1
     0000A246  A$stm8s_adc1STM8S_StdPeriph_Lib/   stm8s_adc1
     0000A248  A$stm8s_adc1STM8S_StdPeriph_Lib/   stm8s_adc1
     0000A24A  A$stm8s_adc1STM8S_StdPeriph_Lib/   stm8s_adc1
     0000A24B  A$stm8s_adc1STM8S_StdPeriph_Lib/   stm8s_adc1
     0000A24D  A$stm8s_adc1STM8S_StdPeriph_Lib/   stm8s_adc1
     0000A24E  A$stm8s_adc1STM8S_StdPeriph_Lib/   stm8s_adc1
     0000A24F  A$stm8s_adc1STM8S_StdPeriph_Lib/   stm8s_adc1
     0000A251  A$stm8s_adc1STM8S_StdPeriph_Lib/   stm8s_adc1
     0000A254  A$stm8s_adc1STM8S_StdPeriph_Lib/   stm8s_adc1
     0000A256  A$stm8s_adc1STM8S_StdPeriph_Lib/   stm8s_adc1
     0000A256  C$stm8s_adc1.c$250$3_0$377         stm8s_adc1
     0000A259  A$stm8s_adc1STM8S_StdPeriph_Lib/   stm8s_adc1
     0000A25A  A$stm8s_adc1STM8S_StdPeriph_Lib/   stm8s_adc1
     0000A25C  A$stm8s_adc1STM8S_StdPeriph_Lib/   stm8s_adc1
     0000A25E  A$stm8s_adc1STM8S_StdPeriph_Lib/   stm8s_adc1
     0000A25F  A$stm8s_adc1STM8S_StdPeriph_Lib/   stm8s_adc1
     0000A261  A$stm8s_adc1STM8S_StdPeriph_Lib/   stm8s_adc1
     0000A263  A$stm8s_adc1STM8S_StdPeriph_Lib/   stm8s_adc1
     0000A264  A$stm8s_adc1STM8S_StdPeriph_Lib/   stm8s_adc1
     0000A265  A$stm8s_adc1STM8S_StdPeriph_Lib/   stm8s_adc1
     0000A267  A$stm8s_adc1STM8S_StdPeriph_Lib/   stm8s_adc1
     0000A269  A$stm8s_adc1STM8S_StdPeriph_Lib/   stm8s_adc1
     0000A26A  A$stm8s_adc1STM8S_StdPeriph_Lib/   stm8s_adc1
     0000A26C  A$stm8s_adc1STM8S_StdPeriph_Lib/   stm8s_adc1
     0000A26D  A$stm8s_adc1STM8S_StdPeriph_Lib/   stm8s_adc1
     0000A26F  A$stm8s_adc1STM8S_StdPeriph_Lib/   stm8s_adc1
ASxxxx Linker V03.00 + NoICE + sdld,  page 137.
Hexadecimal  [32-Bits]

Area                                    Addr        Size        Decimal Bytes (Attributes)
--------------------------------        ----        ----        ------- ----- ------------
CODE                                000082B4    0000592D =       22829. bytes (REL,CON)

      Value  Global                              Global Defined In Module
      -----  --------------------------------   ------------------------
     0000A272  A$stm8s_adc1STM8S_StdPeriph_Lib/   stm8s_adc1
     0000A273  A$stm8s_adc1STM8S_StdPeriph_Lib/   stm8s_adc1
     0000A273  C$stm8s_adc1.c$253$1_0$368         stm8s_adc1
     0000A273  XG$ADC1_SchmittTriggerConfig$0$0   stm8s_adc1
     0000A274  A$stm8s_adc1STM8S_StdPeriph_Lib/   stm8s_adc1
     0000A274  C$stm8s_adc1.c$265$1_0$379         stm8s_adc1
     0000A274  C$stm8s_adc1.c$268$1_0$379         stm8s_adc1
     0000A274  G$ADC1_ConversionConfig$0$0        stm8s_adc1
     0000A274  _ADC1_ConversionConfig             stm8s_adc1
     0000A278  A$stm8s_adc1STM8S_StdPeriph_Lib/   stm8s_adc1
     0000A278  C$stm8s_adc1.c$270$1_0$379         stm8s_adc1
     0000A27B  A$stm8s_adc1STM8S_StdPeriph_Lib/   stm8s_adc1
     0000A27D  A$stm8s_adc1STM8S_StdPeriph_Lib/   stm8s_adc1
     0000A280  A$stm8s_adc1STM8S_StdPeriph_Lib/   stm8s_adc1
     0000A280  C$stm8s_adc1.c$272$1_0$379         stm8s_adc1
     0000A282  A$stm8s_adc1STM8S_StdPeriph_Lib/   stm8s_adc1
     0000A283  A$stm8s_adc1STM8S_StdPeriph_Lib/   stm8s_adc1
     0000A285  A$stm8s_adc1STM8S_StdPeriph_Lib/   stm8s_adc1
     0000A285  C$stm8s_adc1.c$275$2_0$380         stm8s_adc1
     0000A289  A$stm8s_adc1STM8S_StdPeriph_Lib/   stm8s_adc1
     0000A28B  A$stm8s_adc1STM8S_StdPeriph_Lib/   stm8s_adc1
     0000A28B  C$stm8s_adc1.c$280$2_0$381         stm8s_adc1
     0000A28F  A$stm8s_adc1STM8S_StdPeriph_Lib/   stm8s_adc1
     0000A28F  C$stm8s_adc1.c$284$1_0$379         stm8s_adc1
     0000A292  A$stm8s_adc1STM8S_StdPeriph_Lib/   stm8s_adc1
     0000A294  A$stm8s_adc1STM8S_StdPeriph_Lib/   stm8s_adc1
     0000A297  A$stm8s_adc1STM8S_StdPeriph_Lib/   stm8s_adc1
     0000A297  C$stm8s_adc1.c$286$1_0$379         stm8s_adc1
     0000A29A  A$stm8s_adc1STM8S_StdPeriph_Lib/   stm8s_adc1
     0000A29C  A$stm8s_adc1STM8S_StdPeriph_Lib/   stm8s_adc1
     0000A29F  A$stm8s_adc1STM8S_StdPeriph_Lib/   stm8s_adc1
     0000A29F  C$stm8s_adc1.c$287$1_0$379         stm8s_adc1
     0000A29F  XG$ADC1_ConversionConfig$0$0       stm8s_adc1
     0000A2A0  A$stm8s_adc1STM8S_StdPeriph_Lib/   stm8s_adc1
     0000A2A0  C$stm8s_adc1.c$299$1_0$383         stm8s_adc1
     0000A2A0  C$stm8s_adc1.c$302$1_0$383         stm8s_adc1
     0000A2A0  G$ADC1_ExternalTriggerConfig$0$0   stm8s_adc1
     0000A2A0  _ADC1_ExternalTriggerConfig        stm8s_adc1
     0000A2A3  A$stm8s_adc1STM8S_StdPeriph_Lib/   stm8s_adc1
     0000A2A5  A$stm8s_adc1STM8S_StdPeriph_Lib/   stm8s_adc1
     0000A2A8  A$stm8s_adc1STM8S_StdPeriph_Lib/   stm8s_adc1
     0000A2A8  C$stm8s_adc1.c$304$1_0$383         stm8s_adc1
     0000A2AA  A$stm8s_adc1STM8S_StdPeriph_Lib/   stm8s_adc1
     0000A2AC  A$stm8s_adc1STM8S_StdPeriph_Lib/   stm8s_adc1
     0000A2AC  C$stm8s_adc1.c$307$2_0$384         stm8s_adc1
     0000A2B0  A$stm8s_adc1STM8S_StdPeriph_Lib/   stm8s_adc1
     0000A2B2  A$stm8s_adc1STM8S_StdPeriph_Lib/   stm8s_adc1
     0000A2B2  C$stm8s_adc1.c$312$2_0$385         stm8s_adc1
     0000A2B6  A$stm8s_adc1STM8S_StdPeriph_Lib/   stm8s_adc1
     0000A2B6  C$stm8s_adc1.c$316$1_0$383         stm8s_adc1
     0000A2B9  A$stm8s_adc1STM8S_StdPeriph_Lib/   stm8s_adc1
ASxxxx Linker V03.00 + NoICE + sdld,  page 138.
Hexadecimal  [32-Bits]

Area                                    Addr        Size        Decimal Bytes (Attributes)
--------------------------------        ----        ----        ------- ----- ------------
CODE                                000082B4    0000592D =       22829. bytes (REL,CON)

      Value  Global                              Global Defined In Module
      -----  --------------------------------   ------------------------
     0000A2BB  A$stm8s_adc1STM8S_StdPeriph_Lib/   stm8s_adc1
     0000A2BE  A$stm8s_adc1STM8S_StdPeriph_Lib/   stm8s_adc1
     0000A2BE  C$stm8s_adc1.c$317$1_0$383         stm8s_adc1
     0000A2BE  XG$ADC1_ExternalTriggerConfig$0$   stm8s_adc1
     0000A2BF  A$stm8s_adc1STM8S_StdPeriph_Lib/   stm8s_adc1
     0000A2BF  C$stm8s_adc1.c$328$1_0$387         stm8s_adc1
     0000A2BF  C$stm8s_adc1.c$330$1_0$387         stm8s_adc1
     0000A2BF  G$ADC1_StartConversion$0$0         stm8s_adc1
     0000A2BF  _ADC1_StartConversion              stm8s_adc1
     0000A2C3  A$stm8s_adc1STM8S_StdPeriph_Lib/   stm8s_adc1
     0000A2C3  C$stm8s_adc1.c$331$1_0$387         stm8s_adc1
     0000A2C3  XG$ADC1_StartConversion$0$0        stm8s_adc1
     0000A2C4  A$stm8s_adc1STM8S_StdPeriph_Lib/   stm8s_adc1
     0000A2C4  C$stm8s_adc1.c$340$1_0$389         stm8s_adc1
     0000A2C4  G$ADC1_GetConversionValue$0$0      stm8s_adc1
     0000A2C4  _ADC1_GetConversionValue           stm8s_adc1
     0000A2C6  A$stm8s_adc1STM8S_StdPeriph_Lib/   stm8s_adc1
     0000A2C6  C$stm8s_adc1.c$345$1_0$389         stm8s_adc1
     0000A2C9  A$stm8s_adc1STM8S_StdPeriph_Lib/   stm8s_adc1
     0000A2CB  A$stm8s_adc1STM8S_StdPeriph_Lib/   stm8s_adc1
     0000A2CD  A$stm8s_adc1STM8S_StdPeriph_Lib/   stm8s_adc1
     0000A2CD  C$stm8s_adc1.c$348$2_0$390         stm8s_adc1
     0000A2D0  A$stm8s_adc1STM8S_StdPeriph_Lib/   stm8s_adc1
     0000A2D1  A$stm8s_adc1STM8S_StdPeriph_Lib/   stm8s_adc1
     0000A2D1  C$stm8s_adc1.c$350$2_0$390         stm8s_adc1
     0000A2D4  A$stm8s_adc1STM8S_StdPeriph_Lib/   stm8s_adc1
     0000A2D4  C$stm8s_adc1.c$352$2_0$390         stm8s_adc1
     0000A2D6  A$stm8s_adc1STM8S_StdPeriph_Lib/   stm8s_adc1
     0000A2D7  A$stm8s_adc1STM8S_StdPeriph_Lib/   stm8s_adc1
     0000A2D9  A$stm8s_adc1STM8S_StdPeriph_Lib/   stm8s_adc1
     0000A2DA  A$stm8s_adc1STM8S_StdPeriph_Lib/   stm8s_adc1
     0000A2DC  A$stm8s_adc1STM8S_StdPeriph_Lib/   stm8s_adc1
     0000A2DE  A$stm8s_adc1STM8S_StdPeriph_Lib/   stm8s_adc1
     0000A2DF  A$stm8s_adc1STM8S_StdPeriph_Lib/   stm8s_adc1
     0000A2E1  A$stm8s_adc1STM8S_StdPeriph_Lib/   stm8s_adc1
     0000A2E3  A$stm8s_adc1STM8S_StdPeriph_Lib/   stm8s_adc1
     0000A2E4  A$stm8s_adc1STM8S_StdPeriph_Lib/   stm8s_adc1
     0000A2E6  A$stm8s_adc1STM8S_StdPeriph_Lib/   stm8s_adc1
     0000A2E8  A$stm8s_adc1STM8S_StdPeriph_Lib/   stm8s_adc1
     0000A2E8  C$stm8s_adc1.c$357$2_0$391         stm8s_adc1
     0000A2EB  A$stm8s_adc1STM8S_StdPeriph_Lib/   stm8s_adc1
     0000A2EC  A$stm8s_adc1STM8S_StdPeriph_Lib/   stm8s_adc1
     0000A2ED  A$stm8s_adc1STM8S_StdPeriph_Lib/   stm8s_adc1
     0000A2EE  A$stm8s_adc1STM8S_StdPeriph_Lib/   stm8s_adc1
     0000A2EE  C$stm8s_adc1.c$359$2_0$391         stm8s_adc1
     0000A2F1  A$stm8s_adc1STM8S_StdPeriph_Lib/   stm8s_adc1
     0000A2F1  C$stm8s_adc1.c$361$2_0$391         stm8s_adc1
     0000A2F2  A$stm8s_adc1STM8S_StdPeriph_Lib/   stm8s_adc1
     0000A2F3  A$stm8s_adc1STM8S_StdPeriph_Lib/   stm8s_adc1
     0000A2F4  A$stm8s_adc1STM8S_StdPeriph_Lib/   stm8s_adc1
     0000A2F5  A$stm8s_adc1STM8S_StdPeriph_Lib/   stm8s_adc1
ASxxxx Linker V03.00 + NoICE + sdld,  page 139.
Hexadecimal  [32-Bits]

Area                                    Addr        Size        Decimal Bytes (Attributes)
--------------------------------        ----        ----        ------- ----- ------------
CODE                                000082B4    0000592D =       22829. bytes (REL,CON)

      Value  Global                              Global Defined In Module
      -----  --------------------------------   ------------------------
     0000A2F6  A$stm8s_adc1STM8S_StdPeriph_Lib/   stm8s_adc1
     0000A2F7  A$stm8s_adc1STM8S_StdPeriph_Lib/   stm8s_adc1
     0000A2F8  A$stm8s_adc1STM8S_StdPeriph_Lib/   stm8s_adc1
     0000A2F9  A$stm8s_adc1STM8S_StdPeriph_Lib/   stm8s_adc1
     0000A2FB  A$stm8s_adc1STM8S_StdPeriph_Lib/   stm8s_adc1
     0000A2FD  A$stm8s_adc1STM8S_StdPeriph_Lib/   stm8s_adc1
     0000A2FE  A$stm8s_adc1STM8S_StdPeriph_Lib/   stm8s_adc1
     0000A300  A$stm8s_adc1STM8S_StdPeriph_Lib/   stm8s_adc1
     0000A302  A$stm8s_adc1STM8S_StdPeriph_Lib/   stm8s_adc1
     0000A303  A$stm8s_adc1STM8S_StdPeriph_Lib/   stm8s_adc1
     0000A305  A$stm8s_adc1STM8S_StdPeriph_Lib/   stm8s_adc1
     0000A305  C$stm8s_adc1.c$364$1_0$389         stm8s_adc1
     0000A307  A$stm8s_adc1STM8S_StdPeriph_Lib/   stm8s_adc1
     0000A309  A$stm8s_adc1STM8S_StdPeriph_Lib/   stm8s_adc1
     0000A309  C$stm8s_adc1.c$365$1_0$389         stm8s_adc1
     0000A309  XG$ADC1_GetConversionValue$0$0     stm8s_adc1
     0000A30A  A$stm8s_adc1STM8S_StdPeriph_Lib/   stm8s_adc1
     0000A30A  C$stm8s_adc1.c$375$1_0$393         stm8s_adc1
     0000A30A  G$ADC1_AWDChannelConfig$0$0        stm8s_adc1
     0000A30A  _ADC1_AWDChannelConfig             stm8s_adc1
     0000A30B  A$stm8s_adc1STM8S_StdPeriph_Lib/   stm8s_adc1
     0000A30B  C$stm8s_adc1.c$381$1_0$393         stm8s_adc1
     0000A30D  A$stm8s_adc1STM8S_StdPeriph_Lib/   stm8s_adc1
     0000A30F  A$stm8s_adc1STM8S_StdPeriph_Lib/   stm8s_adc1
     0000A311  A$stm8s_adc1STM8S_StdPeriph_Lib/   stm8s_adc1
     0000A311  C$stm8s_adc1.c$383$2_0$394         stm8s_adc1
     0000A313  A$stm8s_adc1STM8S_StdPeriph_Lib/   stm8s_adc1
     0000A315  A$stm8s_adc1STM8S_StdPeriph_Lib/   stm8s_adc1
     0000A315  C$stm8s_adc1.c$385$3_0$395         stm8s_adc1
     0000A318  A$stm8s_adc1STM8S_StdPeriph_Lib/   stm8s_adc1
     0000A319  A$stm8s_adc1STM8S_StdPeriph_Lib/   stm8s_adc1
     0000A31B  A$stm8s_adc1STM8S_StdPeriph_Lib/   stm8s_adc1
     0000A31D  A$stm8s_adc1STM8S_StdPeriph_Lib/   stm8s_adc1
     0000A31F  A$stm8s_adc1STM8S_StdPeriph_Lib/   stm8s_adc1
     0000A321  A$stm8s_adc1STM8S_StdPeriph_Lib/   stm8s_adc1
     0000A323  A$stm8s_adc1STM8S_StdPeriph_Lib/   stm8s_adc1
     0000A324  A$stm8s_adc1STM8S_StdPeriph_Lib/   stm8s_adc1
     0000A326  A$stm8s_adc1STM8S_StdPeriph_Lib/   stm8s_adc1
     0000A327  A$stm8s_adc1STM8S_StdPeriph_Lib/   stm8s_adc1
     0000A329  A$stm8s_adc1STM8S_StdPeriph_Lib/   stm8s_adc1
     0000A32C  A$stm8s_adc1STM8S_StdPeriph_Lib/   stm8s_adc1
     0000A32E  A$stm8s_adc1STM8S_StdPeriph_Lib/   stm8s_adc1
     0000A32E  C$stm8s_adc1.c$389$3_0$396         stm8s_adc1
     0000A331  A$stm8s_adc1STM8S_StdPeriph_Lib/   stm8s_adc1
     0000A333  A$stm8s_adc1STM8S_StdPeriph_Lib/   stm8s_adc1
     0000A335  A$stm8s_adc1STM8S_StdPeriph_Lib/   stm8s_adc1
     0000A336  A$stm8s_adc1STM8S_StdPeriph_Lib/   stm8s_adc1
     0000A338  A$stm8s_adc1STM8S_StdPeriph_Lib/   stm8s_adc1
     0000A33A  A$stm8s_adc1STM8S_StdPeriph_Lib/   stm8s_adc1
     0000A33C  A$stm8s_adc1STM8S_StdPeriph_Lib/   stm8s_adc1
     0000A33D  A$stm8s_adc1STM8S_StdPeriph_Lib/   stm8s_adc1
ASxxxx Linker V03.00 + NoICE + sdld,  page 140.
Hexadecimal  [32-Bits]

Area                                    Addr        Size        Decimal Bytes (Attributes)
--------------------------------        ----        ----        ------- ----- ------------
CODE                                000082B4    0000592D =       22829. bytes (REL,CON)

      Value  Global                              Global Defined In Module
      -----  --------------------------------   ------------------------
     0000A33F  A$stm8s_adc1STM8S_StdPeriph_Lib/   stm8s_adc1
     0000A340  A$stm8s_adc1STM8S_StdPeriph_Lib/   stm8s_adc1
     0000A341  A$stm8s_adc1STM8S_StdPeriph_Lib/   stm8s_adc1
     0000A343  A$stm8s_adc1STM8S_StdPeriph_Lib/   stm8s_adc1
     0000A346  A$stm8s_adc1STM8S_StdPeriph_Lib/   stm8s_adc1
     0000A348  A$stm8s_adc1STM8S_StdPeriph_Lib/   stm8s_adc1
     0000A348  C$stm8s_adc1.c$394$2_0$397         stm8s_adc1
     0000A34A  A$stm8s_adc1STM8S_StdPeriph_Lib/   stm8s_adc1
     0000A34C  A$stm8s_adc1STM8S_StdPeriph_Lib/   stm8s_adc1
     0000A34C  C$stm8s_adc1.c$396$3_0$398         stm8s_adc1
     0000A34F  A$stm8s_adc1STM8S_StdPeriph_Lib/   stm8s_adc1
     0000A350  A$stm8s_adc1STM8S_StdPeriph_Lib/   stm8s_adc1
     0000A352  A$stm8s_adc1STM8S_StdPeriph_Lib/   stm8s_adc1
     0000A354  A$stm8s_adc1STM8S_StdPeriph_Lib/   stm8s_adc1
     0000A355  A$stm8s_adc1STM8S_StdPeriph_Lib/   stm8s_adc1
     0000A357  A$stm8s_adc1STM8S_StdPeriph_Lib/   stm8s_adc1
     0000A359  A$stm8s_adc1STM8S_StdPeriph_Lib/   stm8s_adc1
     0000A35A  A$stm8s_adc1STM8S_StdPeriph_Lib/   stm8s_adc1
     0000A35B  A$stm8s_adc1STM8S_StdPeriph_Lib/   stm8s_adc1
     0000A35D  A$stm8s_adc1STM8S_StdPeriph_Lib/   stm8s_adc1
     0000A35F  A$stm8s_adc1STM8S_StdPeriph_Lib/   stm8s_adc1
     0000A360  A$stm8s_adc1STM8S_StdPeriph_Lib/   stm8s_adc1
     0000A362  A$stm8s_adc1STM8S_StdPeriph_Lib/   stm8s_adc1
     0000A363  A$stm8s_adc1STM8S_StdPeriph_Lib/   stm8s_adc1
     0000A365  A$stm8s_adc1STM8S_StdPeriph_Lib/   stm8s_adc1
     0000A368  A$stm8s_adc1STM8S_StdPeriph_Lib/   stm8s_adc1
     0000A36A  A$stm8s_adc1STM8S_StdPeriph_Lib/   stm8s_adc1
     0000A36A  C$stm8s_adc1.c$400$3_0$399         stm8s_adc1
     0000A36D  A$stm8s_adc1STM8S_StdPeriph_Lib/   stm8s_adc1
     0000A36F  A$stm8s_adc1STM8S_StdPeriph_Lib/   stm8s_adc1
     0000A371  A$stm8s_adc1STM8S_StdPeriph_Lib/   stm8s_adc1
     0000A373  A$stm8s_adc1STM8S_StdPeriph_Lib/   stm8s_adc1
     0000A374  A$stm8s_adc1STM8S_StdPeriph_Lib/   stm8s_adc1
     0000A376  A$stm8s_adc1STM8S_StdPeriph_Lib/   stm8s_adc1
     0000A377  A$stm8s_adc1STM8S_StdPeriph_Lib/   stm8s_adc1
     0000A378  A$stm8s_adc1STM8S_StdPeriph_Lib/   stm8s_adc1
     0000A379  A$stm8s_adc1STM8S_StdPeriph_Lib/   stm8s_adc1
     0000A37B  A$stm8s_adc1STM8S_StdPeriph_Lib/   stm8s_adc1
     0000A37D  A$stm8s_adc1STM8S_StdPeriph_Lib/   stm8s_adc1
     0000A37E  A$stm8s_adc1STM8S_StdPeriph_Lib/   stm8s_adc1
     0000A380  A$stm8s_adc1STM8S_StdPeriph_Lib/   stm8s_adc1
     0000A381  A$stm8s_adc1STM8S_StdPeriph_Lib/   stm8s_adc1
     0000A382  A$stm8s_adc1STM8S_StdPeriph_Lib/   stm8s_adc1
     0000A384  A$stm8s_adc1STM8S_StdPeriph_Lib/   stm8s_adc1
     0000A387  A$stm8s_adc1STM8S_StdPeriph_Lib/   stm8s_adc1
     0000A388  A$stm8s_adc1STM8S_StdPeriph_Lib/   stm8s_adc1
     0000A388  C$stm8s_adc1.c$403$1_0$393         stm8s_adc1
     0000A388  XG$ADC1_AWDChannelConfig$0$0       stm8s_adc1
     0000A389  A$stm8s_adc1STM8S_StdPeriph_Lib/   stm8s_adc1
     0000A389  C$stm8s_adc1.c$411$1_0$401         stm8s_adc1
     0000A389  C$stm8s_adc1.c$413$1_0$401         stm8s_adc1
ASxxxx Linker V03.00 + NoICE + sdld,  page 141.
Hexadecimal  [32-Bits]

Area                                    Addr        Size        Decimal Bytes (Attributes)
--------------------------------        ----        ----        ------- ----- ------------
CODE                                000082B4    0000592D =       22829. bytes (REL,CON)

      Value  Global                              Global Defined In Module
      -----  --------------------------------   ------------------------
     0000A389  G$ADC1_SetHighThreshold$0$0        stm8s_adc1
     0000A389  _ADC1_SetHighThreshold             stm8s_adc1
     0000A38B  A$stm8s_adc1STM8S_StdPeriph_Lib/   stm8s_adc1
     0000A38C  A$stm8s_adc1STM8S_StdPeriph_Lib/   stm8s_adc1
     0000A38D  A$stm8s_adc1STM8S_StdPeriph_Lib/   stm8s_adc1
     0000A38E  A$stm8s_adc1STM8S_StdPeriph_Lib/   stm8s_adc1
     0000A391  A$stm8s_adc1STM8S_StdPeriph_Lib/   stm8s_adc1
     0000A391  C$stm8s_adc1.c$414$1_0$401         stm8s_adc1
     0000A393  A$stm8s_adc1STM8S_StdPeriph_Lib/   stm8s_adc1
     0000A396  A$stm8s_adc1STM8S_StdPeriph_Lib/   stm8s_adc1
     0000A396  C$stm8s_adc1.c$415$1_0$401         stm8s_adc1
     0000A396  XG$ADC1_SetHighThreshold$0$0       stm8s_adc1
     0000A397  A$stm8s_adc1STM8S_StdPeriph_Lib/   stm8s_adc1
     0000A397  C$stm8s_adc1.c$423$1_0$403         stm8s_adc1
     0000A397  C$stm8s_adc1.c$425$1_0$403         stm8s_adc1
     0000A397  G$ADC1_SetLowThreshold$0$0         stm8s_adc1
     0000A397  _ADC1_SetLowThreshold              stm8s_adc1
     0000A399  A$stm8s_adc1STM8S_StdPeriph_Lib/   stm8s_adc1
     0000A39C  A$stm8s_adc1STM8S_StdPeriph_Lib/   stm8s_adc1
     0000A39C  C$stm8s_adc1.c$426$1_0$403         stm8s_adc1
     0000A39E  A$stm8s_adc1STM8S_StdPeriph_Lib/   stm8s_adc1
     0000A39F  A$stm8s_adc1STM8S_StdPeriph_Lib/   stm8s_adc1
     0000A3A0  A$stm8s_adc1STM8S_StdPeriph_Lib/   stm8s_adc1
     0000A3A1  A$stm8s_adc1STM8S_StdPeriph_Lib/   stm8s_adc1
     0000A3A4  A$stm8s_adc1STM8S_StdPeriph_Lib/   stm8s_adc1
     0000A3A4  C$stm8s_adc1.c$427$1_0$403         stm8s_adc1
     0000A3A4  XG$ADC1_SetLowThreshold$0$0        stm8s_adc1
     0000A3A5  A$stm8s_adc1STM8S_StdPeriph_Lib/   stm8s_adc1
     0000A3A5  C$stm8s_adc1.c$436$1_0$405         stm8s_adc1
     0000A3A5  G$ADC1_GetBufferValue$0$0          stm8s_adc1
     0000A3A5  _ADC1_GetBufferValue               stm8s_adc1
     0000A3A7  A$stm8s_adc1STM8S_StdPeriph_Lib/   stm8s_adc1
     0000A3A7  C$stm8s_adc1.c$444$1_0$405         stm8s_adc1
     0000A3AA  A$stm8s_adc1STM8S_StdPeriph_Lib/   stm8s_adc1
     0000A3AC  A$stm8s_adc1STM8S_StdPeriph_Lib/   stm8s_adc1
     0000A3AE  A$stm8s_adc1STM8S_StdPeriph_Lib/   stm8s_adc1
     0000A3AE  C$stm8s_adc1.c$447$2_0$406         stm8s_adc1
     0000A3B0  A$stm8s_adc1STM8S_StdPeriph_Lib/   stm8s_adc1
     0000A3B1  A$stm8s_adc1STM8S_StdPeriph_Lib/   stm8s_adc1
     0000A3B2  A$stm8s_adc1STM8S_StdPeriph_Lib/   stm8s_adc1
     0000A3B3  A$stm8s_adc1STM8S_StdPeriph_Lib/   stm8s_adc1
     0000A3B4  A$stm8s_adc1STM8S_StdPeriph_Lib/   stm8s_adc1
     0000A3B5  A$stm8s_adc1STM8S_StdPeriph_Lib/   stm8s_adc1
     0000A3B8  A$stm8s_adc1STM8S_StdPeriph_Lib/   stm8s_adc1
     0000A3B9  A$stm8s_adc1STM8S_StdPeriph_Lib/   stm8s_adc1
     0000A3BA  A$stm8s_adc1STM8S_StdPeriph_Lib/   stm8s_adc1
     0000A3BA  C$stm8s_adc1.c$449$2_0$406         stm8s_adc1
     0000A3BE  A$stm8s_adc1STM8S_StdPeriph_Lib/   stm8s_adc1
     0000A3C0  A$stm8s_adc1STM8S_StdPeriph_Lib/   stm8s_adc1
     0000A3C0  C$stm8s_adc1.c$451$2_0$406         stm8s_adc1
     0000A3C2  A$stm8s_adc1STM8S_StdPeriph_Lib/   stm8s_adc1
ASxxxx Linker V03.00 + NoICE + sdld,  page 142.
Hexadecimal  [32-Bits]

Area                                    Addr        Size        Decimal Bytes (Attributes)
--------------------------------        ----        ----        ------- ----- ------------
CODE                                000082B4    0000592D =       22829. bytes (REL,CON)

      Value  Global                              Global Defined In Module
      -----  --------------------------------   ------------------------
     0000A3C3  A$stm8s_adc1STM8S_StdPeriph_Lib/   stm8s_adc1
     0000A3C5  A$stm8s_adc1STM8S_StdPeriph_Lib/   stm8s_adc1
     0000A3C6  A$stm8s_adc1STM8S_StdPeriph_Lib/   stm8s_adc1
     0000A3C8  A$stm8s_adc1STM8S_StdPeriph_Lib/   stm8s_adc1
     0000A3CA  A$stm8s_adc1STM8S_StdPeriph_Lib/   stm8s_adc1
     0000A3CB  A$stm8s_adc1STM8S_StdPeriph_Lib/   stm8s_adc1
     0000A3CD  A$stm8s_adc1STM8S_StdPeriph_Lib/   stm8s_adc1
     0000A3CF  A$stm8s_adc1STM8S_StdPeriph_Lib/   stm8s_adc1
     0000A3D0  A$stm8s_adc1STM8S_StdPeriph_Lib/   stm8s_adc1
     0000A3D2  A$stm8s_adc1STM8S_StdPeriph_Lib/   stm8s_adc1
     0000A3D4  A$stm8s_adc1STM8S_StdPeriph_Lib/   stm8s_adc1
     0000A3D4  C$stm8s_adc1.c$456$2_0$407         stm8s_adc1
     0000A3D6  A$stm8s_adc1STM8S_StdPeriph_Lib/   stm8s_adc1
     0000A3D7  A$stm8s_adc1STM8S_StdPeriph_Lib/   stm8s_adc1
     0000A3D8  A$stm8s_adc1STM8S_StdPeriph_Lib/   stm8s_adc1
     0000A3D9  A$stm8s_adc1STM8S_StdPeriph_Lib/   stm8s_adc1
     0000A3DB  A$stm8s_adc1STM8S_StdPeriph_Lib/   stm8s_adc1
     0000A3DF  A$stm8s_adc1STM8S_StdPeriph_Lib/   stm8s_adc1
     0000A3E1  A$stm8s_adc1STM8S_StdPeriph_Lib/   stm8s_adc1
     0000A3E3  A$stm8s_adc1STM8S_StdPeriph_Lib/   stm8s_adc1
     0000A3E5  A$stm8s_adc1STM8S_StdPeriph_Lib/   stm8s_adc1
     0000A3E5  C$stm8s_adc1.c$458$2_0$407         stm8s_adc1
     0000A3E8  A$stm8s_adc1STM8S_StdPeriph_Lib/   stm8s_adc1
     0000A3E9  A$stm8s_adc1STM8S_StdPeriph_Lib/   stm8s_adc1
     0000A3E9  C$stm8s_adc1.c$460$2_0$407         stm8s_adc1
     0000A3EA  A$stm8s_adc1STM8S_StdPeriph_Lib/   stm8s_adc1
     0000A3EB  A$stm8s_adc1STM8S_StdPeriph_Lib/   stm8s_adc1
     0000A3EC  A$stm8s_adc1STM8S_StdPeriph_Lib/   stm8s_adc1
     0000A3ED  A$stm8s_adc1STM8S_StdPeriph_Lib/   stm8s_adc1
     0000A3EE  A$stm8s_adc1STM8S_StdPeriph_Lib/   stm8s_adc1
     0000A3EF  A$stm8s_adc1STM8S_StdPeriph_Lib/   stm8s_adc1
     0000A3F0  A$stm8s_adc1STM8S_StdPeriph_Lib/   stm8s_adc1
     0000A3F1  A$stm8s_adc1STM8S_StdPeriph_Lib/   stm8s_adc1
     0000A3F3  A$stm8s_adc1STM8S_StdPeriph_Lib/   stm8s_adc1
     0000A3F5  A$stm8s_adc1STM8S_StdPeriph_Lib/   stm8s_adc1
     0000A3F6  A$stm8s_adc1STM8S_StdPeriph_Lib/   stm8s_adc1
     0000A3F8  A$stm8s_adc1STM8S_StdPeriph_Lib/   stm8s_adc1
     0000A3FA  A$stm8s_adc1STM8S_StdPeriph_Lib/   stm8s_adc1
     0000A3FB  A$stm8s_adc1STM8S_StdPeriph_Lib/   stm8s_adc1
     0000A3FD  A$stm8s_adc1STM8S_StdPeriph_Lib/   stm8s_adc1
     0000A3FD  C$stm8s_adc1.c$463$1_0$405         stm8s_adc1
     0000A3FF  A$stm8s_adc1STM8S_StdPeriph_Lib/   stm8s_adc1
     0000A401  A$stm8s_adc1STM8S_StdPeriph_Lib/   stm8s_adc1
     0000A401  C$stm8s_adc1.c$464$1_0$405         stm8s_adc1
     0000A401  XG$ADC1_GetBufferValue$0$0         stm8s_adc1
     0000A402  A$stm8s_adc1STM8S_StdPeriph_Lib/   stm8s_adc1
     0000A402  C$stm8s_adc1.c$472$1_0$409         stm8s_adc1
     0000A402  G$ADC1_GetAWDChannelStatus$0$0     stm8s_adc1
     0000A402  _ADC1_GetAWDChannelStatus          stm8s_adc1
     0000A403  A$stm8s_adc1STM8S_StdPeriph_Lib/   stm8s_adc1
     0000A403  C$stm8s_adc1.c$479$1_0$409         stm8s_adc1
ASxxxx Linker V03.00 + NoICE + sdld,  page 143.
Hexadecimal  [32-Bits]

Area                                    Addr        Size        Decimal Bytes (Attributes)
--------------------------------        ----        ----        ------- ----- ------------
CODE                                000082B4    0000592D =       22829. bytes (REL,CON)

      Value  Global                              Global Defined In Module
      -----  --------------------------------   ------------------------
     0000A405  A$stm8s_adc1STM8S_StdPeriph_Lib/   stm8s_adc1
     0000A407  A$stm8s_adc1STM8S_StdPeriph_Lib/   stm8s_adc1
     0000A409  A$stm8s_adc1STM8S_StdPeriph_Lib/   stm8s_adc1
     0000A409  C$stm8s_adc1.c$481$2_0$410         stm8s_adc1
     0000A40C  A$stm8s_adc1STM8S_StdPeriph_Lib/   stm8s_adc1
     0000A40D  A$stm8s_adc1STM8S_StdPeriph_Lib/   stm8s_adc1
     0000A40F  A$stm8s_adc1STM8S_StdPeriph_Lib/   stm8s_adc1
     0000A411  A$stm8s_adc1STM8S_StdPeriph_Lib/   stm8s_adc1
     0000A413  A$stm8s_adc1STM8S_StdPeriph_Lib/   stm8s_adc1
     0000A415  A$stm8s_adc1STM8S_StdPeriph_Lib/   stm8s_adc1
     0000A417  A$stm8s_adc1STM8S_StdPeriph_Lib/   stm8s_adc1
     0000A418  A$stm8s_adc1STM8S_StdPeriph_Lib/   stm8s_adc1
     0000A41A  A$stm8s_adc1STM8S_StdPeriph_Lib/   stm8s_adc1
     0000A41B  A$stm8s_adc1STM8S_StdPeriph_Lib/   stm8s_adc1
     0000A41D  A$stm8s_adc1STM8S_StdPeriph_Lib/   stm8s_adc1
     0000A41F  A$stm8s_adc1STM8S_StdPeriph_Lib/   stm8s_adc1
     0000A41F  C$stm8s_adc1.c$485$2_0$411         stm8s_adc1
     0000A422  A$stm8s_adc1STM8S_StdPeriph_Lib/   stm8s_adc1
     0000A423  A$stm8s_adc1STM8S_StdPeriph_Lib/   stm8s_adc1
     0000A425  A$stm8s_adc1STM8S_StdPeriph_Lib/   stm8s_adc1
     0000A427  A$stm8s_adc1STM8S_StdPeriph_Lib/   stm8s_adc1
     0000A428  A$stm8s_adc1STM8S_StdPeriph_Lib/   stm8s_adc1
     0000A42A  A$stm8s_adc1STM8S_StdPeriph_Lib/   stm8s_adc1
     0000A42C  A$stm8s_adc1STM8S_StdPeriph_Lib/   stm8s_adc1
     0000A42D  A$stm8s_adc1STM8S_StdPeriph_Lib/   stm8s_adc1
     0000A42E  A$stm8s_adc1STM8S_StdPeriph_Lib/   stm8s_adc1
     0000A430  A$stm8s_adc1STM8S_StdPeriph_Lib/   stm8s_adc1
     0000A432  A$stm8s_adc1STM8S_StdPeriph_Lib/   stm8s_adc1
     0000A433  A$stm8s_adc1STM8S_StdPeriph_Lib/   stm8s_adc1
     0000A435  A$stm8s_adc1STM8S_StdPeriph_Lib/   stm8s_adc1
     0000A436  A$stm8s_adc1STM8S_StdPeriph_Lib/   stm8s_adc1
     0000A438  A$stm8s_adc1STM8S_StdPeriph_Lib/   stm8s_adc1
     0000A438  C$stm8s_adc1.c$488$1_0$409         stm8s_adc1
     0000A43A  A$stm8s_adc1STM8S_StdPeriph_Lib/   stm8s_adc1
     0000A43A  C$stm8s_adc1.c$489$1_0$409         stm8s_adc1
     0000A43A  XG$ADC1_GetAWDChannelStatus$0$0    stm8s_adc1
     0000A43B  A$stm8s_adc1STM8S_StdPeriph_Lib/   stm8s_adc1
     0000A43B  C$stm8s_adc1.c$497$1_0$413         stm8s_adc1
     0000A43B  G$ADC1_GetFlagStatus$0$0           stm8s_adc1
     0000A43B  _ADC1_GetFlagStatus                stm8s_adc1
     0000A43D  A$stm8s_adc1STM8S_StdPeriph_Lib/   stm8s_adc1
     0000A43D  C$stm8s_adc1.c$502$1_0$413         stm8s_adc1
     0000A43F  A$stm8s_adc1STM8S_StdPeriph_Lib/   stm8s_adc1
     0000A441  A$stm8s_adc1STM8S_StdPeriph_Lib/   stm8s_adc1
     0000A443  A$stm8s_adc1STM8S_StdPeriph_Lib/   stm8s_adc1
     0000A445  A$stm8s_adc1STM8S_StdPeriph_Lib/   stm8s_adc1
     0000A447  A$stm8s_adc1STM8S_StdPeriph_Lib/   stm8s_adc1
     0000A448  A$stm8s_adc1STM8S_StdPeriph_Lib/   stm8s_adc1
     0000A449  A$stm8s_adc1STM8S_StdPeriph_Lib/   stm8s_adc1
     0000A44A  A$stm8s_adc1STM8S_StdPeriph_Lib/   stm8s_adc1
     0000A44B  A$stm8s_adc1STM8S_StdPeriph_Lib/   stm8s_adc1
ASxxxx Linker V03.00 + NoICE + sdld,  page 144.
Hexadecimal  [32-Bits]

Area                                    Addr        Size        Decimal Bytes (Attributes)
--------------------------------        ----        ----        ------- ----- ------------
CODE                                000082B4    0000592D =       22829. bytes (REL,CON)

      Value  Global                              Global Defined In Module
      -----  --------------------------------   ------------------------
     0000A44D  A$stm8s_adc1STM8S_StdPeriph_Lib/   stm8s_adc1
     0000A44D  C$stm8s_adc1.c$505$2_0$414         stm8s_adc1
     0000A450  A$stm8s_adc1STM8S_StdPeriph_Lib/   stm8s_adc1
     0000A452  A$stm8s_adc1STM8S_StdPeriph_Lib/   stm8s_adc1
     0000A454  A$stm8s_adc1STM8S_StdPeriph_Lib/   stm8s_adc1
     0000A454  C$stm8s_adc1.c$507$1_0$413         stm8s_adc1
     0000A456  A$stm8s_adc1STM8S_StdPeriph_Lib/   stm8s_adc1
     0000A458  A$stm8s_adc1STM8S_StdPeriph_Lib/   stm8s_adc1
     0000A459  A$stm8s_adc1STM8S_StdPeriph_Lib/   stm8s_adc1
     0000A45A  A$stm8s_adc1STM8S_StdPeriph_Lib/   stm8s_adc1
     0000A45B  A$stm8s_adc1STM8S_StdPeriph_Lib/   stm8s_adc1
     0000A45E  A$stm8s_adc1STM8S_StdPeriph_Lib/   stm8s_adc1
     0000A460  A$stm8s_adc1STM8S_StdPeriph_Lib/   stm8s_adc1
     0000A460  C$stm8s_adc1.c$510$2_0$415         stm8s_adc1
     0000A462  A$stm8s_adc1STM8S_StdPeriph_Lib/   stm8s_adc1
     0000A464  A$stm8s_adc1STM8S_StdPeriph_Lib/   stm8s_adc1
     0000A465  A$stm8s_adc1STM8S_StdPeriph_Lib/   stm8s_adc1
     0000A465  C$stm8s_adc1.c$511$2_0$415         stm8s_adc1
     0000A466  A$stm8s_adc1STM8S_StdPeriph_Lib/   stm8s_adc1
     0000A468  A$stm8s_adc1STM8S_StdPeriph_Lib/   stm8s_adc1
     0000A46A  A$stm8s_adc1STM8S_StdPeriph_Lib/   stm8s_adc1
     0000A46A  C$stm8s_adc1.c$513$3_0$416         stm8s_adc1
     0000A46D  A$stm8s_adc1STM8S_StdPeriph_Lib/   stm8s_adc1
     0000A46F  A$stm8s_adc1STM8S_StdPeriph_Lib/   stm8s_adc1
     0000A471  A$stm8s_adc1STM8S_StdPeriph_Lib/   stm8s_adc1
     0000A472  A$stm8s_adc1STM8S_StdPeriph_Lib/   stm8s_adc1
     0000A473  A$stm8s_adc1STM8S_StdPeriph_Lib/   stm8s_adc1
     0000A474  A$stm8s_adc1STM8S_StdPeriph_Lib/   stm8s_adc1
     0000A476  A$stm8s_adc1STM8S_StdPeriph_Lib/   stm8s_adc1
     0000A478  A$stm8s_adc1STM8S_StdPeriph_Lib/   stm8s_adc1
     0000A479  A$stm8s_adc1STM8S_StdPeriph_Lib/   stm8s_adc1
     0000A47B  A$stm8s_adc1STM8S_StdPeriph_Lib/   stm8s_adc1
     0000A47C  A$stm8s_adc1STM8S_StdPeriph_Lib/   stm8s_adc1
     0000A47E  A$stm8s_adc1STM8S_StdPeriph_Lib/   stm8s_adc1
     0000A480  A$stm8s_adc1STM8S_StdPeriph_Lib/   stm8s_adc1
     0000A480  C$stm8s_adc1.c$517$3_0$417         stm8s_adc1
     0000A483  A$stm8s_adc1STM8S_StdPeriph_Lib/   stm8s_adc1
     0000A485  A$stm8s_adc1STM8S_StdPeriph_Lib/   stm8s_adc1
     0000A488  A$stm8s_adc1STM8S_StdPeriph_Lib/   stm8s_adc1
     0000A48A  A$stm8s_adc1STM8S_StdPeriph_Lib/   stm8s_adc1
     0000A48B  A$stm8s_adc1STM8S_StdPeriph_Lib/   stm8s_adc1
     0000A48C  A$stm8s_adc1STM8S_StdPeriph_Lib/   stm8s_adc1
     0000A48D  A$stm8s_adc1STM8S_StdPeriph_Lib/   stm8s_adc1
     0000A48F  A$stm8s_adc1STM8S_StdPeriph_Lib/   stm8s_adc1
     0000A491  A$stm8s_adc1STM8S_StdPeriph_Lib/   stm8s_adc1
     0000A492  A$stm8s_adc1STM8S_StdPeriph_Lib/   stm8s_adc1
     0000A494  A$stm8s_adc1STM8S_StdPeriph_Lib/   stm8s_adc1
     0000A495  A$stm8s_adc1STM8S_StdPeriph_Lib/   stm8s_adc1
     0000A497  A$stm8s_adc1STM8S_StdPeriph_Lib/   stm8s_adc1
     0000A499  A$stm8s_adc1STM8S_StdPeriph_Lib/   stm8s_adc1
     0000A499  C$stm8s_adc1.c$522$2_0$418         stm8s_adc1
ASxxxx Linker V03.00 + NoICE + sdld,  page 145.
Hexadecimal  [32-Bits]

Area                                    Addr        Size        Decimal Bytes (Attributes)
--------------------------------        ----        ----        ------- ----- ------------
CODE                                000082B4    0000592D =       22829. bytes (REL,CON)

      Value  Global                              Global Defined In Module
      -----  --------------------------------   ------------------------
     0000A49C  A$stm8s_adc1STM8S_StdPeriph_Lib/   stm8s_adc1
     0000A49E  A$stm8s_adc1STM8S_StdPeriph_Lib/   stm8s_adc1
     0000A49E  C$stm8s_adc1.c$524$1_0$413         stm8s_adc1
     0000A4A0  A$stm8s_adc1STM8S_StdPeriph_Lib/   stm8s_adc1
     0000A4A0  C$stm8s_adc1.c$526$1_0$413         stm8s_adc1
     0000A4A0  XG$ADC1_GetFlagStatus$0$0          stm8s_adc1
     0000A4A1  A$stm8s_adc1STM8S_StdPeriph_Lib/   stm8s_adc1
     0000A4A1  C$stm8s_adc1.c$534$1_0$420         stm8s_adc1
     0000A4A1  G$ADC1_ClearFlag$0$0               stm8s_adc1
     0000A4A1  _ADC1_ClearFlag                    stm8s_adc1
     0000A4A3  A$stm8s_adc1STM8S_StdPeriph_Lib/   stm8s_adc1
     0000A4A3  C$stm8s_adc1.c$541$1_0$420         stm8s_adc1
     0000A4A5  A$stm8s_adc1STM8S_StdPeriph_Lib/   stm8s_adc1
     0000A4A7  A$stm8s_adc1STM8S_StdPeriph_Lib/   stm8s_adc1
     0000A4A9  A$stm8s_adc1STM8S_StdPeriph_Lib/   stm8s_adc1
     0000A4AA  A$stm8s_adc1STM8S_StdPeriph_Lib/   stm8s_adc1
     0000A4AC  A$stm8s_adc1STM8S_StdPeriph_Lib/   stm8s_adc1
     0000A4AE  A$stm8s_adc1STM8S_StdPeriph_Lib/   stm8s_adc1
     0000A4AF  A$stm8s_adc1STM8S_StdPeriph_Lib/   stm8s_adc1
     0000A4B0  A$stm8s_adc1STM8S_StdPeriph_Lib/   stm8s_adc1
     0000A4B1  A$stm8s_adc1STM8S_StdPeriph_Lib/   stm8s_adc1
     0000A4B2  A$stm8s_adc1STM8S_StdPeriph_Lib/   stm8s_adc1
     0000A4B3  A$stm8s_adc1STM8S_StdPeriph_Lib/   stm8s_adc1
     0000A4B5  A$stm8s_adc1STM8S_StdPeriph_Lib/   stm8s_adc1
     0000A4B5  C$stm8s_adc1.c$544$2_0$421         stm8s_adc1
     0000A4B9  A$stm8s_adc1STM8S_StdPeriph_Lib/   stm8s_adc1
     0000A4BB  A$stm8s_adc1STM8S_StdPeriph_Lib/   stm8s_adc1
     0000A4BB  C$stm8s_adc1.c$546$1_0$420         stm8s_adc1
     0000A4BD  A$stm8s_adc1STM8S_StdPeriph_Lib/   stm8s_adc1
     0000A4BF  A$stm8s_adc1STM8S_StdPeriph_Lib/   stm8s_adc1
     0000A4C0  A$stm8s_adc1STM8S_StdPeriph_Lib/   stm8s_adc1
     0000A4C1  A$stm8s_adc1STM8S_StdPeriph_Lib/   stm8s_adc1
     0000A4C2  A$stm8s_adc1STM8S_StdPeriph_Lib/   stm8s_adc1
     0000A4C5  A$stm8s_adc1STM8S_StdPeriph_Lib/   stm8s_adc1
     0000A4C7  A$stm8s_adc1STM8S_StdPeriph_Lib/   stm8s_adc1
     0000A4C7  C$stm8s_adc1.c$549$2_0$422         stm8s_adc1
     0000A4C9  A$stm8s_adc1STM8S_StdPeriph_Lib/   stm8s_adc1
     0000A4CB  A$stm8s_adc1STM8S_StdPeriph_Lib/   stm8s_adc1
     0000A4CC  A$stm8s_adc1STM8S_StdPeriph_Lib/   stm8s_adc1
     0000A4CC  C$stm8s_adc1.c$550$2_0$422         stm8s_adc1
     0000A4CD  A$stm8s_adc1STM8S_StdPeriph_Lib/   stm8s_adc1
     0000A4CF  A$stm8s_adc1STM8S_StdPeriph_Lib/   stm8s_adc1
     0000A4D1  A$stm8s_adc1STM8S_StdPeriph_Lib/   stm8s_adc1
     0000A4D1  C$stm8s_adc1.c$552$3_0$423         stm8s_adc1
     0000A4D4  A$stm8s_adc1STM8S_StdPeriph_Lib/   stm8s_adc1
     0000A4D6  A$stm8s_adc1STM8S_StdPeriph_Lib/   stm8s_adc1
     0000A4D8  A$stm8s_adc1STM8S_StdPeriph_Lib/   stm8s_adc1
     0000A4D9  A$stm8s_adc1STM8S_StdPeriph_Lib/   stm8s_adc1
     0000A4DA  A$stm8s_adc1STM8S_StdPeriph_Lib/   stm8s_adc1
     0000A4DB  A$stm8s_adc1STM8S_StdPeriph_Lib/   stm8s_adc1
     0000A4DD  A$stm8s_adc1STM8S_StdPeriph_Lib/   stm8s_adc1
ASxxxx Linker V03.00 + NoICE + sdld,  page 146.
Hexadecimal  [32-Bits]

Area                                    Addr        Size        Decimal Bytes (Attributes)
--------------------------------        ----        ----        ------- ----- ------------
CODE                                000082B4    0000592D =       22829. bytes (REL,CON)

      Value  Global                              Global Defined In Module
      -----  --------------------------------   ------------------------
     0000A4DF  A$stm8s_adc1STM8S_StdPeriph_Lib/   stm8s_adc1
     0000A4E0  A$stm8s_adc1STM8S_StdPeriph_Lib/   stm8s_adc1
     0000A4E2  A$stm8s_adc1STM8S_StdPeriph_Lib/   stm8s_adc1
     0000A4E3  A$stm8s_adc1STM8S_StdPeriph_Lib/   stm8s_adc1
     0000A4E4  A$stm8s_adc1STM8S_StdPeriph_Lib/   stm8s_adc1
     0000A4E6  A$stm8s_adc1STM8S_StdPeriph_Lib/   stm8s_adc1
     0000A4E9  A$stm8s_adc1STM8S_StdPeriph_Lib/   stm8s_adc1
     0000A4EB  A$stm8s_adc1STM8S_StdPeriph_Lib/   stm8s_adc1
     0000A4EB  C$stm8s_adc1.c$556$3_0$424         stm8s_adc1
     0000A4EE  A$stm8s_adc1STM8S_StdPeriph_Lib/   stm8s_adc1
     0000A4F0  A$stm8s_adc1STM8S_StdPeriph_Lib/   stm8s_adc1
     0000A4F3  A$stm8s_adc1STM8S_StdPeriph_Lib/   stm8s_adc1
     0000A4F5  A$stm8s_adc1STM8S_StdPeriph_Lib/   stm8s_adc1
     0000A4F6  A$stm8s_adc1STM8S_StdPeriph_Lib/   stm8s_adc1
     0000A4F7  A$stm8s_adc1STM8S_StdPeriph_Lib/   stm8s_adc1
     0000A4F8  A$stm8s_adc1STM8S_StdPeriph_Lib/   stm8s_adc1
     0000A4FA  A$stm8s_adc1STM8S_StdPeriph_Lib/   stm8s_adc1
     0000A4FC  A$stm8s_adc1STM8S_StdPeriph_Lib/   stm8s_adc1
     0000A4FD  A$stm8s_adc1STM8S_StdPeriph_Lib/   stm8s_adc1
     0000A4FF  A$stm8s_adc1STM8S_StdPeriph_Lib/   stm8s_adc1
     0000A500  A$stm8s_adc1STM8S_StdPeriph_Lib/   stm8s_adc1
     0000A501  A$stm8s_adc1STM8S_StdPeriph_Lib/   stm8s_adc1
     0000A503  A$stm8s_adc1STM8S_StdPeriph_Lib/   stm8s_adc1
     0000A506  A$stm8s_adc1STM8S_StdPeriph_Lib/   stm8s_adc1
     0000A508  A$stm8s_adc1STM8S_StdPeriph_Lib/   stm8s_adc1
     0000A508  C$stm8s_adc1.c$561$2_0$425         stm8s_adc1
     0000A50B  A$stm8s_adc1STM8S_StdPeriph_Lib/   stm8s_adc1
     0000A50D  A$stm8s_adc1STM8S_StdPeriph_Lib/   stm8s_adc1
     0000A50F  A$stm8s_adc1STM8S_StdPeriph_Lib/   stm8s_adc1
     0000A510  A$stm8s_adc1STM8S_StdPeriph_Lib/   stm8s_adc1
     0000A512  A$stm8s_adc1STM8S_StdPeriph_Lib/   stm8s_adc1
     0000A515  A$stm8s_adc1STM8S_StdPeriph_Lib/   stm8s_adc1
     0000A517  A$stm8s_adc1STM8S_StdPeriph_Lib/   stm8s_adc1
     0000A517  C$stm8s_adc1.c$563$1_0$420         stm8s_adc1
     0000A517  XG$ADC1_ClearFlag$0$0              stm8s_adc1
     0000A518  A$stm8s_adc1STM8S_StdPeriph_Lib/   stm8s_adc1
     0000A518  C$stm8s_adc1.c$583$1_0$427         stm8s_adc1
     0000A518  G$ADC1_GetITStatus$0$0             stm8s_adc1
     0000A518  _ADC1_GetITStatus                  stm8s_adc1
     0000A519  A$stm8s_adc1STM8S_StdPeriph_Lib/   stm8s_adc1
     0000A519  C$stm8s_adc1.c$591$1_0$427         stm8s_adc1
     0000A51B  A$stm8s_adc1STM8S_StdPeriph_Lib/   stm8s_adc1
     0000A51D  A$stm8s_adc1STM8S_StdPeriph_Lib/   stm8s_adc1
     0000A51E  A$stm8s_adc1STM8S_StdPeriph_Lib/   stm8s_adc1
     0000A51F  A$stm8s_adc1STM8S_StdPeriph_Lib/   stm8s_adc1
     0000A520  A$stm8s_adc1STM8S_StdPeriph_Lib/   stm8s_adc1
     0000A523  A$stm8s_adc1STM8S_StdPeriph_Lib/   stm8s_adc1
     0000A525  A$stm8s_adc1STM8S_StdPeriph_Lib/   stm8s_adc1
     0000A525  C$stm8s_adc1.c$594$1_0$427         stm8s_adc1
     0000A527  A$stm8s_adc1STM8S_StdPeriph_Lib/   stm8s_adc1
     0000A529  A$stm8s_adc1STM8S_StdPeriph_Lib/   stm8s_adc1
ASxxxx Linker V03.00 + NoICE + sdld,  page 147.
Hexadecimal  [32-Bits]

Area                                    Addr        Size        Decimal Bytes (Attributes)
--------------------------------        ----        ----        ------- ----- ------------
CODE                                000082B4    0000592D =       22829. bytes (REL,CON)

      Value  Global                              Global Defined In Module
      -----  --------------------------------   ------------------------
     0000A52A  A$stm8s_adc1STM8S_StdPeriph_Lib/   stm8s_adc1
     0000A52A  C$stm8s_adc1.c$595$2_0$428         stm8s_adc1
     0000A52B  A$stm8s_adc1STM8S_StdPeriph_Lib/   stm8s_adc1
     0000A52D  A$stm8s_adc1STM8S_StdPeriph_Lib/   stm8s_adc1
     0000A52F  A$stm8s_adc1STM8S_StdPeriph_Lib/   stm8s_adc1
     0000A52F  C$stm8s_adc1.c$597$3_0$429         stm8s_adc1
     0000A532  A$stm8s_adc1STM8S_StdPeriph_Lib/   stm8s_adc1
     0000A534  A$stm8s_adc1STM8S_StdPeriph_Lib/   stm8s_adc1
     0000A536  A$stm8s_adc1STM8S_StdPeriph_Lib/   stm8s_adc1
     0000A537  A$stm8s_adc1STM8S_StdPeriph_Lib/   stm8s_adc1
     0000A538  A$stm8s_adc1STM8S_StdPeriph_Lib/   stm8s_adc1
     0000A539  A$stm8s_adc1STM8S_StdPeriph_Lib/   stm8s_adc1
     0000A53B  A$stm8s_adc1STM8S_StdPeriph_Lib/   stm8s_adc1
     0000A53D  A$stm8s_adc1STM8S_StdPeriph_Lib/   stm8s_adc1
     0000A53E  A$stm8s_adc1STM8S_StdPeriph_Lib/   stm8s_adc1
     0000A540  A$stm8s_adc1STM8S_StdPeriph_Lib/   stm8s_adc1
     0000A541  A$stm8s_adc1STM8S_StdPeriph_Lib/   stm8s_adc1
     0000A543  A$stm8s_adc1STM8S_StdPeriph_Lib/   stm8s_adc1
     0000A545  A$stm8s_adc1STM8S_StdPeriph_Lib/   stm8s_adc1
     0000A545  C$stm8s_adc1.c$601$3_0$430         stm8s_adc1
     0000A548  A$stm8s_adc1STM8S_StdPeriph_Lib/   stm8s_adc1
     0000A54A  A$stm8s_adc1STM8S_StdPeriph_Lib/   stm8s_adc1
     0000A54D  A$stm8s_adc1STM8S_StdPeriph_Lib/   stm8s_adc1
     0000A54F  A$stm8s_adc1STM8S_StdPeriph_Lib/   stm8s_adc1
     0000A550  A$stm8s_adc1STM8S_StdPeriph_Lib/   stm8s_adc1
     0000A551  A$stm8s_adc1STM8S_StdPeriph_Lib/   stm8s_adc1
     0000A552  A$stm8s_adc1STM8S_StdPeriph_Lib/   stm8s_adc1
     0000A554  A$stm8s_adc1STM8S_StdPeriph_Lib/   stm8s_adc1
     0000A556  A$stm8s_adc1STM8S_StdPeriph_Lib/   stm8s_adc1
     0000A557  A$stm8s_adc1STM8S_StdPeriph_Lib/   stm8s_adc1
     0000A559  A$stm8s_adc1STM8S_StdPeriph_Lib/   stm8s_adc1
     0000A55A  A$stm8s_adc1STM8S_StdPeriph_Lib/   stm8s_adc1
     0000A55C  A$stm8s_adc1STM8S_StdPeriph_Lib/   stm8s_adc1
     0000A55E  A$stm8s_adc1STM8S_StdPeriph_Lib/   stm8s_adc1
     0000A55E  C$stm8s_adc1.c$606$2_0$431         stm8s_adc1
     0000A561  A$stm8s_adc1STM8S_StdPeriph_Lib/   stm8s_adc1
     0000A563  A$stm8s_adc1STM8S_StdPeriph_Lib/   stm8s_adc1
     0000A565  A$stm8s_adc1STM8S_StdPeriph_Lib/   stm8s_adc1
     0000A567  A$stm8s_adc1STM8S_StdPeriph_Lib/   stm8s_adc1
     0000A567  C$stm8s_adc1.c$608$1_0$427         stm8s_adc1
     0000A569  A$stm8s_adc1STM8S_StdPeriph_Lib/   stm8s_adc1
     0000A569  C$stm8s_adc1.c$609$1_0$427         stm8s_adc1
     0000A569  XG$ADC1_GetITStatus$0$0            stm8s_adc1
     0000A56A  A$stm8s_adc1STM8S_StdPeriph_Lib/   stm8s_adc1
     0000A56A  C$stm8s_adc1.c$629$1_0$433         stm8s_adc1
     0000A56A  G$ADC1_ClearITPendingBit$0$0       stm8s_adc1
     0000A56A  _ADC1_ClearITPendingBit            stm8s_adc1
     0000A56B  A$stm8s_adc1STM8S_StdPeriph_Lib/   stm8s_adc1
     0000A56B  C$stm8s_adc1.c$636$1_0$433         stm8s_adc1
     0000A56D  A$stm8s_adc1STM8S_StdPeriph_Lib/   stm8s_adc1
     0000A56F  A$stm8s_adc1STM8S_StdPeriph_Lib/   stm8s_adc1
ASxxxx Linker V03.00 + NoICE + sdld,  page 148.
Hexadecimal  [32-Bits]

Area                                    Addr        Size        Decimal Bytes (Attributes)
--------------------------------        ----        ----        ------- ----- ------------
CODE                                000082B4    0000592D =       22829. bytes (REL,CON)

      Value  Global                              Global Defined In Module
      -----  --------------------------------   ------------------------
     0000A570  A$stm8s_adc1STM8S_StdPeriph_Lib/   stm8s_adc1
     0000A571  A$stm8s_adc1STM8S_StdPeriph_Lib/   stm8s_adc1
     0000A572  A$stm8s_adc1STM8S_StdPeriph_Lib/   stm8s_adc1
     0000A575  A$stm8s_adc1STM8S_StdPeriph_Lib/   stm8s_adc1
     0000A577  A$stm8s_adc1STM8S_StdPeriph_Lib/   stm8s_adc1
     0000A577  C$stm8s_adc1.c$639$1_0$433         stm8s_adc1
     0000A579  A$stm8s_adc1STM8S_StdPeriph_Lib/   stm8s_adc1
     0000A57B  A$stm8s_adc1STM8S_StdPeriph_Lib/   stm8s_adc1
     0000A57C  A$stm8s_adc1STM8S_StdPeriph_Lib/   stm8s_adc1
     0000A57C  C$stm8s_adc1.c$640$2_0$434         stm8s_adc1
     0000A57D  A$stm8s_adc1STM8S_StdPeriph_Lib/   stm8s_adc1
     0000A57F  A$stm8s_adc1STM8S_StdPeriph_Lib/   stm8s_adc1
     0000A581  A$stm8s_adc1STM8S_StdPeriph_Lib/   stm8s_adc1
     0000A581  C$stm8s_adc1.c$642$3_0$435         stm8s_adc1
     0000A584  A$stm8s_adc1STM8S_StdPeriph_Lib/   stm8s_adc1
     0000A586  A$stm8s_adc1STM8S_StdPeriph_Lib/   stm8s_adc1
     0000A588  A$stm8s_adc1STM8S_StdPeriph_Lib/   stm8s_adc1
     0000A589  A$stm8s_adc1STM8S_StdPeriph_Lib/   stm8s_adc1
     0000A58A  A$stm8s_adc1STM8S_StdPeriph_Lib/   stm8s_adc1
     0000A58B  A$stm8s_adc1STM8S_StdPeriph_Lib/   stm8s_adc1
     0000A58D  A$stm8s_adc1STM8S_StdPeriph_Lib/   stm8s_adc1
     0000A58F  A$stm8s_adc1STM8S_StdPeriph_Lib/   stm8s_adc1
     0000A590  A$stm8s_adc1STM8S_StdPeriph_Lib/   stm8s_adc1
     0000A592  A$stm8s_adc1STM8S_StdPeriph_Lib/   stm8s_adc1
     0000A593  A$stm8s_adc1STM8S_StdPeriph_Lib/   stm8s_adc1
     0000A594  A$stm8s_adc1STM8S_StdPeriph_Lib/   stm8s_adc1
     0000A596  A$stm8s_adc1STM8S_StdPeriph_Lib/   stm8s_adc1
     0000A599  A$stm8s_adc1STM8S_StdPeriph_Lib/   stm8s_adc1
     0000A59B  A$stm8s_adc1STM8S_StdPeriph_Lib/   stm8s_adc1
     0000A59B  C$stm8s_adc1.c$646$3_0$436         stm8s_adc1
     0000A59E  A$stm8s_adc1STM8S_StdPeriph_Lib/   stm8s_adc1
     0000A5A0  A$stm8s_adc1STM8S_StdPeriph_Lib/   stm8s_adc1
     0000A5A3  A$stm8s_adc1STM8S_StdPeriph_Lib/   stm8s_adc1
     0000A5A5  A$stm8s_adc1STM8S_StdPeriph_Lib/   stm8s_adc1
     0000A5A6  A$stm8s_adc1STM8S_StdPeriph_Lib/   stm8s_adc1
     0000A5A7  A$stm8s_adc1STM8S_StdPeriph_Lib/   stm8s_adc1
     0000A5A8  A$stm8s_adc1STM8S_StdPeriph_Lib/   stm8s_adc1
     0000A5AA  A$stm8s_adc1STM8S_StdPeriph_Lib/   stm8s_adc1
     0000A5AC  A$stm8s_adc1STM8S_StdPeriph_Lib/   stm8s_adc1
     0000A5AD  A$stm8s_adc1STM8S_StdPeriph_Lib/   stm8s_adc1
     0000A5AF  A$stm8s_adc1STM8S_StdPeriph_Lib/   stm8s_adc1
     0000A5B0  A$stm8s_adc1STM8S_StdPeriph_Lib/   stm8s_adc1
     0000A5B1  A$stm8s_adc1STM8S_StdPeriph_Lib/   stm8s_adc1
     0000A5B3  A$stm8s_adc1STM8S_StdPeriph_Lib/   stm8s_adc1
     0000A5B6  A$stm8s_adc1STM8S_StdPeriph_Lib/   stm8s_adc1
     0000A5B8  A$stm8s_adc1STM8S_StdPeriph_Lib/   stm8s_adc1
     0000A5B8  C$stm8s_adc1.c$651$2_0$437         stm8s_adc1
     0000A5BB  A$stm8s_adc1STM8S_StdPeriph_Lib/   stm8s_adc1
     0000A5BD  A$stm8s_adc1STM8S_StdPeriph_Lib/   stm8s_adc1
     0000A5BE  A$stm8s_adc1STM8S_StdPeriph_Lib/   stm8s_adc1
     0000A5BF  A$stm8s_adc1STM8S_StdPeriph_Lib/   stm8s_adc1
ASxxxx Linker V03.00 + NoICE + sdld,  page 149.
Hexadecimal  [32-Bits]

Area                                    Addr        Size        Decimal Bytes (Attributes)
--------------------------------        ----        ----        ------- ----- ------------
CODE                                000082B4    0000592D =       22829. bytes (REL,CON)

      Value  Global                              Global Defined In Module
      -----  --------------------------------   ------------------------
     0000A5C1  A$stm8s_adc1STM8S_StdPeriph_Lib/   stm8s_adc1
     0000A5C2  A$stm8s_adc1STM8S_StdPeriph_Lib/   stm8s_adc1
     0000A5C5  A$stm8s_adc1STM8S_StdPeriph_Lib/   stm8s_adc1
     0000A5C6  A$stm8s_adc1STM8S_StdPeriph_Lib/   stm8s_adc1
     0000A5C6  C$stm8s_adc1.c$653$1_0$433         stm8s_adc1
     0000A5C6  XG$ADC1_ClearITPendingBit$0$0      stm8s_adc1
     0000A5C7  A$stm8s_flashTM8S_StdPeriph_Lib/   stm8s_flash
     0000A5C7  C$stm8s_flash.c$87$0_0$346         stm8s_flash
     0000A5C7  C$stm8s_flash.c$93$1_0$346         stm8s_flash
     0000A5C7  G$FLASH_Unlock$0$0                 stm8s_flash
     0000A5C7  _FLASH_Unlock                      stm8s_flash
     0000A5C9  A$stm8s_flashTM8S_StdPeriph_Lib/   stm8s_flash
     0000A5CB  A$stm8s_flashTM8S_StdPeriph_Lib/   stm8s_flash
     0000A5CD  A$stm8s_flashTM8S_StdPeriph_Lib/   stm8s_flash
     0000A5CD  C$stm8s_flash.c$95$2_0$347         stm8s_flash
     0000A5D1  A$stm8s_flashTM8S_StdPeriph_Lib/   stm8s_flash
     0000A5D1  C$stm8s_flash.c$96$2_0$347         stm8s_flash
     0000A5D5  A$stm8s_flashTM8S_StdPeriph_Lib/   stm8s_flash
     0000A5D7  A$stm8s_flashTM8S_StdPeriph_Lib/   stm8s_flash
     0000A5D7  C$stm8s_flash.c$101$2_0$348        stm8s_flash
     0000A5DB  A$stm8s_flashTM8S_StdPeriph_Lib/   stm8s_flash
     0000A5DB  C$stm8s_flash.c$102$2_0$348        stm8s_flash
     0000A5DF  A$stm8s_flashTM8S_StdPeriph_Lib/   stm8s_flash
     0000A5DF  C$stm8s_flash.c$104$1_0$346        stm8s_flash
     0000A5DF  XG$FLASH_Unlock$0$0                stm8s_flash
     0000A5E0  A$stm8s_flashTM8S_StdPeriph_Lib/   stm8s_flash
     0000A5E0  C$stm8s_flash.c$112$1_0$350        stm8s_flash
     0000A5E0  C$stm8s_flash.c$118$1_0$350        stm8s_flash
     0000A5E0  G$FLASH_Lock$0$0                   stm8s_flash
     0000A5E0  _FLASH_Lock                        stm8s_flash
     0000A5E3  A$stm8s_flashTM8S_StdPeriph_Lib/   stm8s_flash
     0000A5E5  A$stm8s_flashTM8S_StdPeriph_Lib/   stm8s_flash
     0000A5E8  A$stm8s_flashTM8S_StdPeriph_Lib/   stm8s_flash
     0000A5E8  C$stm8s_flash.c$119$1_0$350        stm8s_flash
     0000A5E8  XG$FLASH_Lock$0$0                  stm8s_flash
     0000A5E9  A$stm8s_flashTM8S_StdPeriph_Lib/   stm8s_flash
     0000A5E9  C$stm8s_flash.c$126$1_0$352        stm8s_flash
     0000A5E9  C$stm8s_flash.c$128$1_0$352        stm8s_flash
     0000A5E9  G$FLASH_DeInit$0$0                 stm8s_flash
     0000A5E9  _FLASH_DeInit                      stm8s_flash
     0000A5ED  A$stm8s_flashTM8S_StdPeriph_Lib/   stm8s_flash
     0000A5ED  C$stm8s_flash.c$129$1_0$352        stm8s_flash
     0000A5F1  A$stm8s_flashTM8S_StdPeriph_Lib/   stm8s_flash
     0000A5F1  C$stm8s_flash.c$130$1_0$352        stm8s_flash
     0000A5F5  A$stm8s_flashTM8S_StdPeriph_Lib/   stm8s_flash
     0000A5F5  C$stm8s_flash.c$131$1_0$352        stm8s_flash
     0000A5F9  A$stm8s_flashTM8S_StdPeriph_Lib/   stm8s_flash
     0000A5F9  C$stm8s_flash.c$132$1_0$352        stm8s_flash
     0000A5FD  A$stm8s_flashTM8S_StdPeriph_Lib/   stm8s_flash
     0000A5FD  C$stm8s_flash.c$133$1_0$352        stm8s_flash
     0000A600  A$stm8s_flashTM8S_StdPeriph_Lib/   stm8s_flash
ASxxxx Linker V03.00 + NoICE + sdld,  page 150.
Hexadecimal  [32-Bits]

Area                                    Addr        Size        Decimal Bytes (Attributes)
--------------------------------        ----        ----        ------- ----- ------------
CODE                                000082B4    0000592D =       22829. bytes (REL,CON)

      Value  Global                              Global Defined In Module
      -----  --------------------------------   ------------------------
     0000A600  C$stm8s_flash.c$134$1_0$352        stm8s_flash
     0000A600  XG$FLASH_DeInit$0$0                stm8s_flash
     0000A601  A$stm8s_flashTM8S_StdPeriph_Lib/   stm8s_flash
     0000A601  C$stm8s_flash.c$142$1_0$354        stm8s_flash
     0000A601  C$stm8s_flash.c$147$1_0$354        stm8s_flash
     0000A601  G$FLASH_ITConfig$0$0               stm8s_flash
     0000A601  _FLASH_ITConfig                    stm8s_flash
     0000A603  A$stm8s_flashTM8S_StdPeriph_Lib/   stm8s_flash
     0000A605  A$stm8s_flashTM8S_StdPeriph_Lib/   stm8s_flash
     0000A605  C$stm8s_flash.c$149$2_0$355        stm8s_flash
     0000A609  A$stm8s_flashTM8S_StdPeriph_Lib/   stm8s_flash
     0000A60B  A$stm8s_flashTM8S_StdPeriph_Lib/   stm8s_flash
     0000A60B  C$stm8s_flash.c$153$2_0$356        stm8s_flash
     0000A60F  A$stm8s_flashTM8S_StdPeriph_Lib/   stm8s_flash
     0000A60F  C$stm8s_flash.c$155$1_0$354        stm8s_flash
     0000A60F  XG$FLASH_ITConfig$0$0              stm8s_flash
     0000A610  A$stm8s_flashTM8S_StdPeriph_Lib/   stm8s_flash
     0000A610  C$stm8s_flash.c$164$1_0$358        stm8s_flash
     0000A610  C$stm8s_flash.c$170$1_0$358        stm8s_flash
     0000A610  G$FLASH_EraseByte$0$0              stm8s_flash
     0000A610  _FLASH_EraseByte                   stm8s_flash
     0000A612  A$stm8s_flashTM8S_StdPeriph_Lib/   stm8s_flash
     0000A613  A$stm8s_flashTM8S_StdPeriph_Lib/   stm8s_flash
     0000A613  C$stm8s_flash.c$171$1_0$358        stm8s_flash
     0000A613  XG$FLASH_EraseByte$0$0             stm8s_flash
     0000A614  A$stm8s_flashTM8S_StdPeriph_Lib/   stm8s_flash
     0000A614  C$stm8s_flash.c$181$1_0$360        stm8s_flash
     0000A614  C$stm8s_flash.c$185$1_0$360        stm8s_flash
     0000A614  G$FLASH_ProgramByte$0$0            stm8s_flash
     0000A614  _FLASH_ProgramByte                 stm8s_flash
     0000A616  A$stm8s_flashTM8S_StdPeriph_Lib/   stm8s_flash
     0000A618  A$stm8s_flashTM8S_StdPeriph_Lib/   stm8s_flash
     0000A619  A$stm8s_flashTM8S_StdPeriph_Lib/   stm8s_flash
     0000A619  C$stm8s_flash.c$186$1_0$360        stm8s_flash
     0000A619  XG$FLASH_ProgramByte$0$0           stm8s_flash
     0000A61A  A$stm8s_flashTM8S_StdPeriph_Lib/   stm8s_flash
     0000A61A  C$stm8s_flash.c$195$1_0$362        stm8s_flash
     0000A61A  C$stm8s_flash.c$201$1_0$362        stm8s_flash
     0000A61A  G$FLASH_ReadByte$0$0               stm8s_flash
     0000A61A  _FLASH_ReadByte                    stm8s_flash
     0000A61C  A$stm8s_flashTM8S_StdPeriph_Lib/   stm8s_flash
     0000A61D  A$stm8s_flashTM8S_StdPeriph_Lib/   stm8s_flash
     0000A61D  C$stm8s_flash.c$202$1_0$362        stm8s_flash
     0000A61D  XG$FLASH_ReadByte$0$0              stm8s_flash
     0000A61E  A$stm8s_flashTM8S_StdPeriph_Lib/   stm8s_flash
     0000A61E  C$stm8s_flash.c$212$1_0$364        stm8s_flash
     0000A61E  G$FLASH_ProgramWord$0$0            stm8s_flash
     0000A61E  _FLASH_ProgramWord                 stm8s_flash
     0000A620  A$stm8s_flashTM8S_StdPeriph_Lib/   stm8s_flash
     0000A620  C$stm8s_flash.c$218$1_0$364        stm8s_flash
     0000A624  A$stm8s_flashTM8S_StdPeriph_Lib/   stm8s_flash
ASxxxx Linker V03.00 + NoICE + sdld,  page 151.
Hexadecimal  [32-Bits]

Area                                    Addr        Size        Decimal Bytes (Attributes)
--------------------------------        ----        ----        ------- ----- ------------
CODE                                000082B4    0000592D =       22829. bytes (REL,CON)

      Value  Global                              Global Defined In Module
      -----  --------------------------------   ------------------------
     0000A624  C$stm8s_flash.c$219$1_0$364        stm8s_flash
     0000A628  A$stm8s_flashTM8S_StdPeriph_Lib/   stm8s_flash
     0000A628  C$stm8s_flash.c$222$1_0$364        stm8s_flash
     0000A62A  A$stm8s_flashTM8S_StdPeriph_Lib/   stm8s_flash
     0000A62B  A$stm8s_flashTM8S_StdPeriph_Lib/   stm8s_flash
     0000A62E  A$stm8s_flashTM8S_StdPeriph_Lib/   stm8s_flash
     0000A630  A$stm8s_flashTM8S_StdPeriph_Lib/   stm8s_flash
     0000A631  A$stm8s_flashTM8S_StdPeriph_Lib/   stm8s_flash
     0000A633  A$stm8s_flashTM8S_StdPeriph_Lib/   stm8s_flash
     0000A633  C$stm8s_flash.c$224$1_0$364        stm8s_flash
     0000A634  A$stm8s_flashTM8S_StdPeriph_Lib/   stm8s_flash
     0000A635  A$stm8s_flashTM8S_StdPeriph_Lib/   stm8s_flash
     0000A637  A$stm8s_flashTM8S_StdPeriph_Lib/   stm8s_flash
     0000A639  A$stm8s_flashTM8S_StdPeriph_Lib/   stm8s_flash
     0000A63B  A$stm8s_flashTM8S_StdPeriph_Lib/   stm8s_flash
     0000A63D  A$stm8s_flashTM8S_StdPeriph_Lib/   stm8s_flash
     0000A63E  A$stm8s_flashTM8S_StdPeriph_Lib/   stm8s_flash
     0000A63E  C$stm8s_flash.c$226$1_0$364        stm8s_flash
     0000A63F  A$stm8s_flashTM8S_StdPeriph_Lib/   stm8s_flash
     0000A640  A$stm8s_flashTM8S_StdPeriph_Lib/   stm8s_flash
     0000A641  A$stm8s_flashTM8S_StdPeriph_Lib/   stm8s_flash
     0000A643  A$stm8s_flashTM8S_StdPeriph_Lib/   stm8s_flash
     0000A645  A$stm8s_flashTM8S_StdPeriph_Lib/   stm8s_flash
     0000A647  A$stm8s_flashTM8S_StdPeriph_Lib/   stm8s_flash
     0000A649  A$stm8s_flashTM8S_StdPeriph_Lib/   stm8s_flash
     0000A64A  A$stm8s_flashTM8S_StdPeriph_Lib/   stm8s_flash
     0000A64A  C$stm8s_flash.c$228$1_0$364        stm8s_flash
     0000A64E  A$stm8s_flashTM8S_StdPeriph_Lib/   stm8s_flash
     0000A650  A$stm8s_flashTM8S_StdPeriph_Lib/   stm8s_flash
     0000A652  A$stm8s_flashTM8S_StdPeriph_Lib/   stm8s_flash
     0000A654  A$stm8s_flashTM8S_StdPeriph_Lib/   stm8s_flash
     0000A656  A$stm8s_flashTM8S_StdPeriph_Lib/   stm8s_flash
     0000A656  C$stm8s_flash.c$229$1_0$364        stm8s_flash
     0000A656  XG$FLASH_ProgramWord$0$0           stm8s_flash
     0000A657  A$stm8s_flashTM8S_StdPeriph_Lib/   stm8s_flash
     0000A657  C$stm8s_flash.c$237$1_0$366        stm8s_flash
     0000A657  C$stm8s_flash.c$243$1_0$366        stm8s_flash
     0000A657  G$FLASH_ProgramOptionByte$0$0      stm8s_flash
     0000A657  _FLASH_ProgramOptionByte           stm8s_flash
     0000A65B  A$stm8s_flashTM8S_StdPeriph_Lib/   stm8s_flash
     0000A65B  C$stm8s_flash.c$244$1_0$366        stm8s_flash
     0000A65F  A$stm8s_flashTM8S_StdPeriph_Lib/   stm8s_flash
     0000A65F  C$stm8s_flash.c$247$1_0$366        stm8s_flash
     0000A661  A$stm8s_flashTM8S_StdPeriph_Lib/   stm8s_flash
     0000A664  A$stm8s_flashTM8S_StdPeriph_Lib/   stm8s_flash
     0000A666  A$stm8s_flashTM8S_StdPeriph_Lib/   stm8s_flash
     0000A666  C$stm8s_flash.c$250$2_0$367        stm8s_flash
     0000A668  A$stm8s_flashTM8S_StdPeriph_Lib/   stm8s_flash
     0000A66A  A$stm8s_flashTM8S_StdPeriph_Lib/   stm8s_flash
     0000A66B  A$stm8s_flashTM8S_StdPeriph_Lib/   stm8s_flash
     0000A66D  A$stm8s_flashTM8S_StdPeriph_Lib/   stm8s_flash
ASxxxx Linker V03.00 + NoICE + sdld,  page 152.
Hexadecimal  [32-Bits]

Area                                    Addr        Size        Decimal Bytes (Attributes)
--------------------------------        ----        ----        ------- ----- ------------
CODE                                000082B4    0000592D =       22829. bytes (REL,CON)

      Value  Global                              Global Defined In Module
      -----  --------------------------------   ------------------------
     0000A66D  C$stm8s_flash.c$255$2_0$368        stm8s_flash
     0000A66F  A$stm8s_flashTM8S_StdPeriph_Lib/   stm8s_flash
     0000A671  A$stm8s_flashTM8S_StdPeriph_Lib/   stm8s_flash
     0000A672  A$stm8s_flashTM8S_StdPeriph_Lib/   stm8s_flash
     0000A672  C$stm8s_flash.c$256$2_0$368        stm8s_flash
     0000A674  A$stm8s_flashTM8S_StdPeriph_Lib/   stm8s_flash
     0000A675  A$stm8s_flashTM8S_StdPeriph_Lib/   stm8s_flash
     0000A677  A$stm8s_flashTM8S_StdPeriph_Lib/   stm8s_flash
     0000A678  A$stm8s_flashTM8S_StdPeriph_Lib/   stm8s_flash
     0000A679  A$stm8s_flashTM8S_StdPeriph_Lib/   stm8s_flash
     0000A679  C$stm8s_flash.c$258$1_0$366        stm8s_flash
     0000A67B  A$stm8s_flashTM8S_StdPeriph_Lib/   stm8s_flash
     0000A67E  A$stm8s_flashTM8S_StdPeriph_Lib/   stm8s_flash
     0000A67F  A$stm8s_flashTM8S_StdPeriph_Lib/   stm8s_flash
     0000A67F  C$stm8s_flash.c$261$1_0$366        stm8s_flash
     0000A683  A$stm8s_flashTM8S_StdPeriph_Lib/   stm8s_flash
     0000A683  C$stm8s_flash.c$262$1_0$366        stm8s_flash
     0000A687  A$stm8s_flashTM8S_StdPeriph_Lib/   stm8s_flash
     0000A687  C$stm8s_flash.c$263$1_0$366        stm8s_flash
     0000A687  XG$FLASH_ProgramOptionByte$0$0     stm8s_flash
     0000A688  A$stm8s_flashTM8S_StdPeriph_Lib/   stm8s_flash
     0000A688  C$stm8s_flash.c$270$1_0$370        stm8s_flash
     0000A688  C$stm8s_flash.c$276$1_0$370        stm8s_flash
     0000A688  G$FLASH_EraseOptionByte$0$0        stm8s_flash
     0000A688  _FLASH_EraseOptionByte             stm8s_flash
     0000A68C  A$stm8s_flashTM8S_StdPeriph_Lib/   stm8s_flash
     0000A68C  C$stm8s_flash.c$277$1_0$370        stm8s_flash
     0000A690  A$stm8s_flashTM8S_StdPeriph_Lib/   stm8s_flash
     0000A690  C$stm8s_flash.c$280$1_0$370        stm8s_flash
     0000A692  A$stm8s_flashTM8S_StdPeriph_Lib/   stm8s_flash
     0000A695  A$stm8s_flashTM8S_StdPeriph_Lib/   stm8s_flash
     0000A697  A$stm8s_flashTM8S_StdPeriph_Lib/   stm8s_flash
     0000A697  C$stm8s_flash.c$283$2_0$371        stm8s_flash
     0000A699  A$stm8s_flashTM8S_StdPeriph_Lib/   stm8s_flash
     0000A69A  A$stm8s_flashTM8S_StdPeriph_Lib/   stm8s_flash
     0000A69C  A$stm8s_flashTM8S_StdPeriph_Lib/   stm8s_flash
     0000A69C  C$stm8s_flash.c$288$2_0$372        stm8s_flash
     0000A69E  A$stm8s_flashTM8S_StdPeriph_Lib/   stm8s_flash
     0000A69F  A$stm8s_flashTM8S_StdPeriph_Lib/   stm8s_flash
     0000A69F  C$stm8s_flash.c$289$2_0$372        stm8s_flash
     0000A6A1  A$stm8s_flashTM8S_StdPeriph_Lib/   stm8s_flash
     0000A6A2  A$stm8s_flashTM8S_StdPeriph_Lib/   stm8s_flash
     0000A6A4  A$stm8s_flashTM8S_StdPeriph_Lib/   stm8s_flash
     0000A6A5  A$stm8s_flashTM8S_StdPeriph_Lib/   stm8s_flash
     0000A6A5  C$stm8s_flash.c$291$1_0$370        stm8s_flash
     0000A6A7  A$stm8s_flashTM8S_StdPeriph_Lib/   stm8s_flash
     0000A6AA  A$stm8s_flashTM8S_StdPeriph_Lib/   stm8s_flash
     0000A6AB  A$stm8s_flashTM8S_StdPeriph_Lib/   stm8s_flash
     0000A6AB  C$stm8s_flash.c$294$1_0$370        stm8s_flash
     0000A6AF  A$stm8s_flashTM8S_StdPeriph_Lib/   stm8s_flash
     0000A6AF  C$stm8s_flash.c$295$1_0$370        stm8s_flash
ASxxxx Linker V03.00 + NoICE + sdld,  page 153.
Hexadecimal  [32-Bits]

Area                                    Addr        Size        Decimal Bytes (Attributes)
--------------------------------        ----        ----        ------- ----- ------------
CODE                                000082B4    0000592D =       22829. bytes (REL,CON)

      Value  Global                              Global Defined In Module
      -----  --------------------------------   ------------------------
     0000A6B3  A$stm8s_flashTM8S_StdPeriph_Lib/   stm8s_flash
     0000A6B3  C$stm8s_flash.c$296$1_0$370        stm8s_flash
     0000A6B3  XG$FLASH_EraseOptionByte$0$0       stm8s_flash
     0000A6B4  A$stm8s_flashTM8S_StdPeriph_Lib/   stm8s_flash
     0000A6B4  C$stm8s_flash.c$303$1_0$374        stm8s_flash
     0000A6B4  G$FLASH_ReadOptionByte$0$0         stm8s_flash
     0000A6B4  _FLASH_ReadOptionByte              stm8s_flash
     0000A6B6  A$stm8s_flashTM8S_StdPeriph_Lib/   stm8s_flash
     0000A6B6  C$stm8s_flash.c$311$1_0$374        stm8s_flash
     0000A6B8  A$stm8s_flashTM8S_StdPeriph_Lib/   stm8s_flash
     0000A6B9  A$stm8s_flashTM8S_StdPeriph_Lib/   stm8s_flash
     0000A6BB  A$stm8s_flashTM8S_StdPeriph_Lib/   stm8s_flash
     0000A6BB  C$stm8s_flash.c$312$1_0$374        stm8s_flash
     0000A6BD  A$stm8s_flashTM8S_StdPeriph_Lib/   stm8s_flash
     0000A6BD  C$stm8s_flash.c$315$1_0$374        stm8s_flash
     0000A6BF  A$stm8s_flashTM8S_StdPeriph_Lib/   stm8s_flash
     0000A6C2  A$stm8s_flashTM8S_StdPeriph_Lib/   stm8s_flash
     0000A6C4  A$stm8s_flashTM8S_StdPeriph_Lib/   stm8s_flash
     0000A6C4  C$stm8s_flash.c$317$2_0$375        stm8s_flash
     0000A6C5  A$stm8s_flashTM8S_StdPeriph_Lib/   stm8s_flash
     0000A6C6  A$stm8s_flashTM8S_StdPeriph_Lib/   stm8s_flash
     0000A6C7  A$stm8s_flashTM8S_StdPeriph_Lib/   stm8s_flash
     0000A6C9  A$stm8s_flashTM8S_StdPeriph_Lib/   stm8s_flash
     0000A6C9  C$stm8s_flash.c$321$2_0$376        stm8s_flash
     0000A6CA  A$stm8s_flashTM8S_StdPeriph_Lib/   stm8s_flash
     0000A6CB  A$stm8s_flashTM8S_StdPeriph_Lib/   stm8s_flash
     0000A6CD  A$stm8s_flashTM8S_StdPeriph_Lib/   stm8s_flash
     0000A6CF  A$stm8s_flashTM8S_StdPeriph_Lib/   stm8s_flash
     0000A6D1  A$stm8s_flashTM8S_StdPeriph_Lib/   stm8s_flash
     0000A6D2  A$stm8s_flashTM8S_StdPeriph_Lib/   stm8s_flash
     0000A6D4  A$stm8s_flashTM8S_StdPeriph_Lib/   stm8s_flash
     0000A6D4  C$stm8s_flash.c$323$3_0$377        stm8s_flash
     0000A6D5  A$stm8s_flashTM8S_StdPeriph_Lib/   stm8s_flash
     0000A6D7  A$stm8s_flashTM8S_StdPeriph_Lib/   stm8s_flash
     0000A6D8  A$stm8s_flashTM8S_StdPeriph_Lib/   stm8s_flash
     0000A6DA  A$stm8s_flashTM8S_StdPeriph_Lib/   stm8s_flash
     0000A6DB  A$stm8s_flashTM8S_StdPeriph_Lib/   stm8s_flash
     0000A6DD  A$stm8s_flashTM8S_StdPeriph_Lib/   stm8s_flash
     0000A6DE  A$stm8s_flashTM8S_StdPeriph_Lib/   stm8s_flash
     0000A6DF  A$stm8s_flashTM8S_StdPeriph_Lib/   stm8s_flash
     0000A6E0  A$stm8s_flashTM8S_StdPeriph_Lib/   stm8s_flash
     0000A6E1  A$stm8s_flashTM8S_StdPeriph_Lib/   stm8s_flash
     0000A6E1  C$stm8s_flash.c$324$3_0$377        stm8s_flash
     0000A6E3  A$stm8s_flashTM8S_StdPeriph_Lib/   stm8s_flash
     0000A6E5  A$stm8s_flashTM8S_StdPeriph_Lib/   stm8s_flash
     0000A6E6  A$stm8s_flashTM8S_StdPeriph_Lib/   stm8s_flash
     0000A6E8  A$stm8s_flashTM8S_StdPeriph_Lib/   stm8s_flash
     0000A6E9  A$stm8s_flashTM8S_StdPeriph_Lib/   stm8s_flash
     0000A6EB  A$stm8s_flashTM8S_StdPeriph_Lib/   stm8s_flash
     0000A6ED  A$stm8s_flashTM8S_StdPeriph_Lib/   stm8s_flash
     0000A6EE  A$stm8s_flashTM8S_StdPeriph_Lib/   stm8s_flash
ASxxxx Linker V03.00 + NoICE + sdld,  page 154.
Hexadecimal  [32-Bits]

Area                                    Addr        Size        Decimal Bytes (Attributes)
--------------------------------        ----        ----        ------- ----- ------------
CODE                                000082B4    0000592D =       22829. bytes (REL,CON)

      Value  Global                              Global Defined In Module
      -----  --------------------------------   ------------------------
     0000A6F0  A$stm8s_flashTM8S_StdPeriph_Lib/   stm8s_flash
     0000A6F0  C$stm8s_flash.c$328$3_0$378        stm8s_flash
     0000A6F3  A$stm8s_flashTM8S_StdPeriph_Lib/   stm8s_flash
     0000A6F3  C$stm8s_flash.c$331$1_0$374        stm8s_flash
     0000A6F5  A$stm8s_flashTM8S_StdPeriph_Lib/   stm8s_flash
     0000A6F5  C$stm8s_flash.c$332$1_0$374        stm8s_flash
     0000A6F5  XG$FLASH_ReadOptionByte$0$0        stm8s_flash
     0000A6F6  A$stm8s_flashTM8S_StdPeriph_Lib/   stm8s_flash
     0000A6F6  C$stm8s_flash.c$340$1_0$380        stm8s_flash
     0000A6F6  C$stm8s_flash.c$346$1_0$380        stm8s_flash
     0000A6F6  G$FLASH_SetLowPowerMode$0$0        stm8s_flash
     0000A6F6  _FLASH_SetLowPowerMode             stm8s_flash
     0000A6F9  A$stm8s_flashTM8S_StdPeriph_Lib/   stm8s_flash
     0000A6FB  A$stm8s_flashTM8S_StdPeriph_Lib/   stm8s_flash
     0000A6FE  A$stm8s_flashTM8S_StdPeriph_Lib/   stm8s_flash
     0000A6FE  C$stm8s_flash.c$349$1_0$380        stm8s_flash
     0000A701  A$stm8s_flashTM8S_StdPeriph_Lib/   stm8s_flash
     0000A703  A$stm8s_flashTM8S_StdPeriph_Lib/   stm8s_flash
     0000A706  A$stm8s_flashTM8S_StdPeriph_Lib/   stm8s_flash
     0000A706  C$stm8s_flash.c$350$1_0$380        stm8s_flash
     0000A706  XG$FLASH_SetLowPowerMode$0$0       stm8s_flash
     0000A707  A$stm8s_flashTM8S_StdPeriph_Lib/   stm8s_flash
     0000A707  C$stm8s_flash.c$358$1_0$382        stm8s_flash
     0000A707  C$stm8s_flash.c$363$1_0$382        stm8s_flash
     0000A707  G$FLASH_SetProgrammingTime$0$0     stm8s_flash
     0000A707  _FLASH_SetProgrammingTime          stm8s_flash
     0000A70A  A$stm8s_flashTM8S_StdPeriph_Lib/   stm8s_flash
     0000A70C  A$stm8s_flashTM8S_StdPeriph_Lib/   stm8s_flash
     0000A70F  A$stm8s_flashTM8S_StdPeriph_Lib/   stm8s_flash
     0000A70F  C$stm8s_flash.c$364$1_0$382        stm8s_flash
     0000A712  A$stm8s_flashTM8S_StdPeriph_Lib/   stm8s_flash
     0000A714  A$stm8s_flashTM8S_StdPeriph_Lib/   stm8s_flash
     0000A717  A$stm8s_flashTM8S_StdPeriph_Lib/   stm8s_flash
     0000A717  C$stm8s_flash.c$365$1_0$382        stm8s_flash
     0000A717  XG$FLASH_SetProgrammingTime$0$0    stm8s_flash
     0000A718  A$stm8s_flashTM8S_StdPeriph_Lib/   stm8s_flash
     0000A718  C$stm8s_flash.c$372$1_0$384        stm8s_flash
     0000A718  C$stm8s_flash.c$374$1_0$384        stm8s_flash
     0000A718  G$FLASH_GetLowPowerMode$0$0        stm8s_flash
     0000A718  _FLASH_GetLowPowerMode             stm8s_flash
     0000A71B  A$stm8s_flashTM8S_StdPeriph_Lib/   stm8s_flash
     0000A71D  A$stm8s_flashTM8S_StdPeriph_Lib/   stm8s_flash
     0000A71D  C$stm8s_flash.c$375$1_0$384        stm8s_flash
     0000A71D  XG$FLASH_GetLowPowerMode$0$0       stm8s_flash
     0000A71E  A$stm8s_flashTM8S_StdPeriph_Lib/   stm8s_flash
     0000A71E  C$stm8s_flash.c$382$1_0$386        stm8s_flash
     0000A71E  C$stm8s_flash.c$384$1_0$386        stm8s_flash
     0000A71E  G$FLASH_GetProgrammingTime$0$0     stm8s_flash
     0000A71E  _FLASH_GetProgrammingTime          stm8s_flash
     0000A721  A$stm8s_flashTM8S_StdPeriph_Lib/   stm8s_flash
     0000A723  A$stm8s_flashTM8S_StdPeriph_Lib/   stm8s_flash
ASxxxx Linker V03.00 + NoICE + sdld,  page 155.
Hexadecimal  [32-Bits]

Area                                    Addr        Size        Decimal Bytes (Attributes)
--------------------------------        ----        ----        ------- ----- ------------
CODE                                000082B4    0000592D =       22829. bytes (REL,CON)

      Value  Global                              Global Defined In Module
      -----  --------------------------------   ------------------------
     0000A723  C$stm8s_flash.c$385$1_0$386        stm8s_flash
     0000A723  XG$FLASH_GetProgrammingTime$0$0    stm8s_flash
     0000A724  A$stm8s_flashTM8S_StdPeriph_Lib/   stm8s_flash
     0000A724  C$stm8s_flash.c$392$1_0$388        stm8s_flash
     0000A724  G$FLASH_GetBootSize$0$0            stm8s_flash
     0000A724  _FLASH_GetBootSize                 stm8s_flash
     0000A726  A$stm8s_flashTM8S_StdPeriph_Lib/   stm8s_flash
     0000A726  C$stm8s_flash.c$397$1_0$388        stm8s_flash
     0000A729  A$stm8s_flashTM8S_StdPeriph_Lib/   stm8s_flash
     0000A72A  A$stm8s_flashTM8S_StdPeriph_Lib/   stm8s_flash
     0000A72C  A$stm8s_flashTM8S_StdPeriph_Lib/   stm8s_flash
     0000A72E  A$stm8s_flashTM8S_StdPeriph_Lib/   stm8s_flash
     0000A72F  A$stm8s_flashTM8S_StdPeriph_Lib/   stm8s_flash
     0000A730  A$stm8s_flashTM8S_StdPeriph_Lib/   stm8s_flash
     0000A732  A$stm8s_flashTM8S_StdPeriph_Lib/   stm8s_flash
     0000A734  A$stm8s_flashTM8S_StdPeriph_Lib/   stm8s_flash
     0000A736  A$stm8s_flashTM8S_StdPeriph_Lib/   stm8s_flash
     0000A736  C$stm8s_flash.c$400$1_0$388        stm8s_flash
     0000A739  A$stm8s_flashTM8S_StdPeriph_Lib/   stm8s_flash
     0000A73A  A$stm8s_flashTM8S_StdPeriph_Lib/   stm8s_flash
     0000A73C  A$stm8s_flashTM8S_StdPeriph_Lib/   stm8s_flash
     0000A73C  C$stm8s_flash.c$402$2_0$389        stm8s_flash
     0000A740  A$stm8s_flashTM8S_StdPeriph_Lib/   stm8s_flash
     0000A741  A$stm8s_flashTM8S_StdPeriph_Lib/   stm8s_flash
     0000A743  A$stm8s_flashTM8S_StdPeriph_Lib/   stm8s_flash
     0000A744  A$stm8s_flashTM8S_StdPeriph_Lib/   stm8s_flash
     0000A746  A$stm8s_flashTM8S_StdPeriph_Lib/   stm8s_flash
     0000A747  A$stm8s_flashTM8S_StdPeriph_Lib/   stm8s_flash
     0000A747  C$stm8s_flash.c$406$1_0$388        stm8s_flash
     0000A748  A$stm8s_flashTM8S_StdPeriph_Lib/   stm8s_flash
     0000A74A  A$stm8s_flashTM8S_StdPeriph_Lib/   stm8s_flash
     0000A74A  C$stm8s_flash.c$407$1_0$388        stm8s_flash
     0000A74A  XG$FLASH_GetBootSize$0$0           stm8s_flash
     0000A74B  A$stm8s_flashTM8S_StdPeriph_Lib/   stm8s_flash
     0000A74B  C$stm8s_flash.c$417$1_0$391        stm8s_flash
     0000A74B  C$stm8s_flash.c$424$1_0$391        stm8s_flash
     0000A74B  G$FLASH_GetFlagStatus$0$0          stm8s_flash
     0000A74B  _FLASH_GetFlagStatus               stm8s_flash
     0000A74E  A$stm8s_flashTM8S_StdPeriph_Lib/   stm8s_flash
     0000A750  A$stm8s_flashTM8S_StdPeriph_Lib/   stm8s_flash
     0000A752  A$stm8s_flashTM8S_StdPeriph_Lib/   stm8s_flash
     0000A752  C$stm8s_flash.c$426$2_0$392        stm8s_flash
     0000A754  A$stm8s_flashTM8S_StdPeriph_Lib/   stm8s_flash
     0000A756  A$stm8s_flashTM8S_StdPeriph_Lib/   stm8s_flash
     0000A756  C$stm8s_flash.c$430$2_0$393        stm8s_flash
     0000A757  A$stm8s_flashTM8S_StdPeriph_Lib/   stm8s_flash
     0000A757  C$stm8s_flash.c$434$1_0$391        stm8s_flash
     0000A757  C$stm8s_flash.c$435$1_0$391        stm8s_flash
     0000A757  XG$FLASH_GetFlagStatus$0$0         stm8s_flash
     0000A758  A$stm8s_flashTM8S_StdPeriph_Lib/   stm8s_flash
     0000A758  C$stm8s_flash.c$549$1_0$395        stm8s_flash
ASxxxx Linker V03.00 + NoICE + sdld,  page 156.
Hexadecimal  [32-Bits]

Area                                    Addr        Size        Decimal Bytes (Attributes)
--------------------------------        ----        ----        ------- ----- ------------
CODE                                000082B4    0000592D =       22829. bytes (REL,CON)

      Value  Global                              Global Defined In Module
      -----  --------------------------------   ------------------------
     0000A758  C$stm8s_flash.c$551$2_0$395        stm8s_flash
     0000A758  G$FLASH_WaitForLastOperation$0$0   stm8s_flash
     0000A758  _FLASH_WaitForLastOperation        stm8s_flash
     0000A759  A$stm8s_flashTM8S_StdPeriph_Lib/   stm8s_flash
     0000A759  C$stm8s_flash.c$557$1_0$395        stm8s_flash
     0000A75A  A$stm8s_flashTM8S_StdPeriph_Lib/   stm8s_flash
     0000A75C  A$stm8s_flashTM8S_StdPeriph_Lib/   stm8s_flash
     0000A75E  A$stm8s_flashTM8S_StdPeriph_Lib/   stm8s_flash
     0000A75F  A$stm8s_flashTM8S_StdPeriph_Lib/   stm8s_flash
     0000A761  A$stm8s_flashTM8S_StdPeriph_Lib/   stm8s_flash
     0000A761  C$stm8s_flash.c$559$1_0$395        stm8s_flash
     0000A762  A$stm8s_flashTM8S_StdPeriph_Lib/   stm8s_flash
     0000A763  A$stm8s_flashTM8S_StdPeriph_Lib/   stm8s_flash
     0000A764  A$stm8s_flashTM8S_StdPeriph_Lib/   stm8s_flash
     0000A766  A$stm8s_flashTM8S_StdPeriph_Lib/   stm8s_flash
     0000A767  A$stm8s_flashTM8S_StdPeriph_Lib/   stm8s_flash
     0000A769  A$stm8s_flashTM8S_StdPeriph_Lib/   stm8s_flash
     0000A769  C$stm8s_flash.c$561$3_0$397        stm8s_flash
     0000A76C  A$stm8s_flashTM8S_StdPeriph_Lib/   stm8s_flash
     0000A76E  A$stm8s_flashTM8S_StdPeriph_Lib/   stm8s_flash
     0000A76E  C$stm8s_flash.c$563$3_0$397        stm8s_flash
     0000A76F  A$stm8s_flashTM8S_StdPeriph_Lib/   stm8s_flash
     0000A771  A$stm8s_flashTM8S_StdPeriph_Lib/   stm8s_flash
     0000A771  C$stm8s_flash.c$568$1_0$395        stm8s_flash
     0000A772  A$stm8s_flashTM8S_StdPeriph_Lib/   stm8s_flash
     0000A773  A$stm8s_flashTM8S_StdPeriph_Lib/   stm8s_flash
     0000A774  A$stm8s_flashTM8S_StdPeriph_Lib/   stm8s_flash
     0000A776  A$stm8s_flashTM8S_StdPeriph_Lib/   stm8s_flash
     0000A777  A$stm8s_flashTM8S_StdPeriph_Lib/   stm8s_flash
     0000A779  A$stm8s_flashTM8S_StdPeriph_Lib/   stm8s_flash
     0000A779  C$stm8s_flash.c$570$3_0$399        stm8s_flash
     0000A77C  A$stm8s_flashTM8S_StdPeriph_Lib/   stm8s_flash
     0000A77E  A$stm8s_flashTM8S_StdPeriph_Lib/   stm8s_flash
     0000A77E  C$stm8s_flash.c$572$3_0$399        stm8s_flash
     0000A77F  A$stm8s_flashTM8S_StdPeriph_Lib/   stm8s_flash
     0000A781  A$stm8s_flashTM8S_StdPeriph_Lib/   stm8s_flash
     0000A783  A$stm8s_flashTM8S_StdPeriph_Lib/   stm8s_flash
     0000A783  C$stm8s_flash.c$572$1_0$395        stm8s_flash
     0000A783  C$stm8s_flash.c$584$1_0$395        stm8s_flash
     0000A784  A$stm8s_flashTM8S_StdPeriph_Lib/   stm8s_flash
     0000A786  A$stm8s_flashTM8S_StdPeriph_Lib/   stm8s_flash
     0000A786  C$stm8s_flash.c$586$2_0$400        stm8s_flash
     0000A788  A$stm8s_flashTM8S_StdPeriph_Lib/   stm8s_flash
     0000A788  C$stm8s_flash.c$589$1_0$395        stm8s_flash
     0000A788  C$stm8s_flash.c$590$1_0$395        stm8s_flash
     0000A788  XG$FLASH_WaitForLastOperation$0$   stm8s_flash
     0000A789  A$stm8s_flashTM8S_StdPeriph_Lib/   stm8s_flash
     0000A789  C$stm8s_flash.c$599$1_0$402        stm8s_flash
     0000A789  G$FLASH_EraseBlock$0$0             stm8s_flash
     0000A789  _FLASH_EraseBlock                  stm8s_flash
     0000A78B  A$stm8s_flashTM8S_StdPeriph_Lib/   stm8s_flash
ASxxxx Linker V03.00 + NoICE + sdld,  page 157.
Hexadecimal  [32-Bits]

Area                                    Addr        Size        Decimal Bytes (Attributes)
--------------------------------        ----        ----        ------- ----- ------------
CODE                                000082B4    0000592D =       22829. bytes (REL,CON)

      Value  Global                              Global Defined In Module
      -----  --------------------------------   ------------------------
     0000A78B  C$stm8s_flash.c$612$1_0$402        stm8s_flash
     0000A78D  A$stm8s_flashTM8S_StdPeriph_Lib/   stm8s_flash
     0000A78F  A$stm8s_flashTM8S_StdPeriph_Lib/   stm8s_flash
     0000A791  A$stm8s_flashTM8S_StdPeriph_Lib/   stm8s_flash
     0000A791  C$stm8s_flash.c$615$2_0$403        stm8s_flash
     0000A794  A$stm8s_flashTM8S_StdPeriph_Lib/   stm8s_flash
     0000A796  A$stm8s_flashTM8S_StdPeriph_Lib/   stm8s_flash
     0000A797  A$stm8s_flashTM8S_StdPeriph_Lib/   stm8s_flash
     0000A799  A$stm8s_flashTM8S_StdPeriph_Lib/   stm8s_flash
     0000A79B  A$stm8s_flashTM8S_StdPeriph_Lib/   stm8s_flash
     0000A79B  C$stm8s_flash.c$620$2_0$404        stm8s_flash
     0000A79E  A$stm8s_flashTM8S_StdPeriph_Lib/   stm8s_flash
     0000A7A0  A$stm8s_flashTM8S_StdPeriph_Lib/   stm8s_flash
     0000A7A1  A$stm8s_flashTM8S_StdPeriph_Lib/   stm8s_flash
     0000A7A3  A$stm8s_flashTM8S_StdPeriph_Lib/   stm8s_flash
     0000A7A3  C$stm8s_flash.c$628$1_0$402        stm8s_flash
     0000A7A5  A$stm8s_flashTM8S_StdPeriph_Lib/   stm8s_flash
     0000A7A6  A$stm8s_flashTM8S_StdPeriph_Lib/   stm8s_flash
     0000A7A7  A$stm8s_flashTM8S_StdPeriph_Lib/   stm8s_flash
     0000A7A8  A$stm8s_flashTM8S_StdPeriph_Lib/   stm8s_flash
     0000A7A9  A$stm8s_flashTM8S_StdPeriph_Lib/   stm8s_flash
     0000A7AA  A$stm8s_flashTM8S_StdPeriph_Lib/   stm8s_flash
     0000A7AB  A$stm8s_flashTM8S_StdPeriph_Lib/   stm8s_flash
     0000A7AC  A$stm8s_flashTM8S_StdPeriph_Lib/   stm8s_flash
     0000A7AE  A$stm8s_flashTM8S_StdPeriph_Lib/   stm8s_flash
     0000A7B1  A$stm8s_flashTM8S_StdPeriph_Lib/   stm8s_flash
     0000A7B1  C$stm8s_flash.c$632$1_0$402        stm8s_flash
     0000A7B5  A$stm8s_flashTM8S_StdPeriph_Lib/   stm8s_flash
     0000A7B5  C$stm8s_flash.c$633$1_0$402        stm8s_flash
     0000A7B9  A$stm8s_flashTM8S_StdPeriph_Lib/   stm8s_flash
     0000A7B9  C$stm8s_flash.c$637$1_0$402        stm8s_flash
     0000A7BB  A$stm8s_flashTM8S_StdPeriph_Lib/   stm8s_flash
     0000A7BD  A$stm8s_flashTM8S_StdPeriph_Lib/   stm8s_flash
     0000A7BF  A$stm8s_flashTM8S_StdPeriph_Lib/   stm8s_flash
     0000A7C0  A$stm8s_flashTM8S_StdPeriph_Lib/   stm8s_flash
     0000A7C2  A$stm8s_flashTM8S_StdPeriph_Lib/   stm8s_flash
     0000A7C2  C$stm8s_flash.c$645$1_0$402        stm8s_flash
     0000A7C2  XG$FLASH_EraseBlock$0$0            stm8s_flash
     0000A7C3  A$stm8s_flashTM8S_StdPeriph_Lib/   stm8s_flash
     0000A7C3  C$stm8s_flash.c$656$1_0$406        stm8s_flash
     0000A7C3  G$FLASH_ProgramBlock$0$0           stm8s_flash
     0000A7C3  _FLASH_ProgramBlock                stm8s_flash
     0000A7C5  A$stm8s_flashTM8S_StdPeriph_Lib/   stm8s_flash
     0000A7C5  C$stm8s_flash.c$665$1_0$406        stm8s_flash
     0000A7C7  A$stm8s_flashTM8S_StdPeriph_Lib/   stm8s_flash
     0000A7C9  A$stm8s_flashTM8S_StdPeriph_Lib/   stm8s_flash
     0000A7CB  A$stm8s_flashTM8S_StdPeriph_Lib/   stm8s_flash
     0000A7CB  C$stm8s_flash.c$668$2_0$407        stm8s_flash
     0000A7CE  A$stm8s_flashTM8S_StdPeriph_Lib/   stm8s_flash
     0000A7D0  A$stm8s_flashTM8S_StdPeriph_Lib/   stm8s_flash
     0000A7D1  A$stm8s_flashTM8S_StdPeriph_Lib/   stm8s_flash
ASxxxx Linker V03.00 + NoICE + sdld,  page 158.
Hexadecimal  [32-Bits]

Area                                    Addr        Size        Decimal Bytes (Attributes)
--------------------------------        ----        ----        ------- ----- ------------
CODE                                000082B4    0000592D =       22829. bytes (REL,CON)

      Value  Global                              Global Defined In Module
      -----  --------------------------------   ------------------------
     0000A7D3  A$stm8s_flashTM8S_StdPeriph_Lib/   stm8s_flash
     0000A7D5  A$stm8s_flashTM8S_StdPeriph_Lib/   stm8s_flash
     0000A7D5  C$stm8s_flash.c$673$2_0$408        stm8s_flash
     0000A7D8  A$stm8s_flashTM8S_StdPeriph_Lib/   stm8s_flash
     0000A7DA  A$stm8s_flashTM8S_StdPeriph_Lib/   stm8s_flash
     0000A7DB  A$stm8s_flashTM8S_StdPeriph_Lib/   stm8s_flash
     0000A7DD  A$stm8s_flashTM8S_StdPeriph_Lib/   stm8s_flash
     0000A7DD  C$stm8s_flash.c$677$1_0$406        stm8s_flash
     0000A7DF  A$stm8s_flashTM8S_StdPeriph_Lib/   stm8s_flash
     0000A7E0  A$stm8s_flashTM8S_StdPeriph_Lib/   stm8s_flash
     0000A7E1  A$stm8s_flashTM8S_StdPeriph_Lib/   stm8s_flash
     0000A7E3  A$stm8s_flashTM8S_StdPeriph_Lib/   stm8s_flash
     0000A7E5  A$stm8s_flashTM8S_StdPeriph_Lib/   stm8s_flash
     0000A7E6  A$stm8s_flashTM8S_StdPeriph_Lib/   stm8s_flash
     0000A7E7  A$stm8s_flashTM8S_StdPeriph_Lib/   stm8s_flash
     0000A7E9  A$stm8s_flashTM8S_StdPeriph_Lib/   stm8s_flash
     0000A7EB  A$stm8s_flashTM8S_StdPeriph_Lib/   stm8s_flash
     0000A7EC  A$stm8s_flashTM8S_StdPeriph_Lib/   stm8s_flash
     0000A7EE  A$stm8s_flashTM8S_StdPeriph_Lib/   stm8s_flash
     0000A7F1  A$stm8s_flashTM8S_StdPeriph_Lib/   stm8s_flash
     0000A7F2  A$stm8s_flashTM8S_StdPeriph_Lib/   stm8s_flash
     0000A7F4  A$stm8s_flashTM8S_StdPeriph_Lib/   stm8s_flash
     0000A7F5  A$stm8s_flashTM8S_StdPeriph_Lib/   stm8s_flash
     0000A7F7  A$stm8s_flashTM8S_StdPeriph_Lib/   stm8s_flash
     0000A7F8  A$stm8s_flashTM8S_StdPeriph_Lib/   stm8s_flash
     0000A7FA  A$stm8s_flashTM8S_StdPeriph_Lib/   stm8s_flash
     0000A7FC  A$stm8s_flashTM8S_StdPeriph_Lib/   stm8s_flash
     0000A7FC  C$stm8s_flash.c$680$1_0$406        stm8s_flash
     0000A7FE  A$stm8s_flashTM8S_StdPeriph_Lib/   stm8s_flash
     0000A800  A$stm8s_flashTM8S_StdPeriph_Lib/   stm8s_flash
     0000A800  C$stm8s_flash.c$683$2_0$409        stm8s_flash
     0000A804  A$stm8s_flashTM8S_StdPeriph_Lib/   stm8s_flash
     0000A804  C$stm8s_flash.c$684$2_0$409        stm8s_flash
     0000A808  A$stm8s_flashTM8S_StdPeriph_Lib/   stm8s_flash
     0000A80A  A$stm8s_flashTM8S_StdPeriph_Lib/   stm8s_flash
     0000A80A  C$stm8s_flash.c$689$2_0$410        stm8s_flash
     0000A80E  A$stm8s_flashTM8S_StdPeriph_Lib/   stm8s_flash
     0000A80E  C$stm8s_flash.c$690$2_0$410        stm8s_flash
     0000A812  A$stm8s_flashTM8S_StdPeriph_Lib/   stm8s_flash
     0000A812  C$stm8s_flash.c$694$2_0$406        stm8s_flash
     0000A813  A$stm8s_flashTM8S_StdPeriph_Lib/   stm8s_flash
     0000A815  A$stm8s_flashTM8S_StdPeriph_Lib/   stm8s_flash
     0000A815  C$stm8s_flash.c$696$3_0$412        stm8s_flash
     0000A817  A$stm8s_flashTM8S_StdPeriph_Lib/   stm8s_flash
     0000A81A  A$stm8s_flashTM8S_StdPeriph_Lib/   stm8s_flash
     0000A81C  A$stm8s_flashTM8S_StdPeriph_Lib/   stm8s_flash
     0000A81E  A$stm8s_flashTM8S_StdPeriph_Lib/   stm8s_flash
     0000A821  A$stm8s_flashTM8S_StdPeriph_Lib/   stm8s_flash
     0000A822  A$stm8s_flashTM8S_StdPeriph_Lib/   stm8s_flash
     0000A824  A$stm8s_flashTM8S_StdPeriph_Lib/   stm8s_flash
     0000A825  A$stm8s_flashTM8S_StdPeriph_Lib/   stm8s_flash
ASxxxx Linker V03.00 + NoICE + sdld,  page 159.
Hexadecimal  [32-Bits]

Area                                    Addr        Size        Decimal Bytes (Attributes)
--------------------------------        ----        ----        ------- ----- ------------
CODE                                000082B4    0000592D =       22829. bytes (REL,CON)

      Value  Global                              Global Defined In Module
      -----  --------------------------------   ------------------------
     0000A825  C$stm8s_flash.c$694$2_0$411        stm8s_flash
     0000A827  A$stm8s_flashTM8S_StdPeriph_Lib/   stm8s_flash
     0000A828  A$stm8s_flashTM8S_StdPeriph_Lib/   stm8s_flash
     0000A82A  A$stm8s_flashTM8S_StdPeriph_Lib/   stm8s_flash
     0000A82D  A$stm8s_flashTM8S_StdPeriph_Lib/   stm8s_flash
     0000A82F  A$stm8s_flashTM8S_StdPeriph_Lib/   stm8s_flash
     0000A831  A$stm8s_flashTM8S_StdPeriph_Lib/   stm8s_flash
     0000A831  C$stm8s_flash.c$698$2_0$406        stm8s_flash
     0000A831  XG$FLASH_ProgramBlock$0$0          stm8s_flash
     0000A832  A$watchdog$63                      watchdog
     0000A832  C$watchdog.c$17$0_0$346            watchdog
     0000A832  C$watchdog.c$19$1_0$346            watchdog
     0000A832  G$watchdog_init$0$0                watchdog
     0000A832  _watchdog_init                     watchdog
     0000A835  A$watchdog$66                      watchdog
     0000A835  C$watchdog.c$20$1_0$346            watchdog
     0000A837  A$watchdog$67                      watchdog
     0000A83A  A$watchdog$68                      watchdog
     0000A83B  A$watchdog$71                      watchdog
     0000A83B  C$watchdog.c$21$1_0$346            watchdog
     0000A83D  A$watchdog$72                      watchdog
     0000A840  A$watchdog$73                      watchdog
     0000A841  A$watchdog$76                      watchdog
     0000A841  C$watchdog.c$35$1_0$346            watchdog
     0000A843  A$watchdog$77                      watchdog
     0000A846  A$watchdog$78                      watchdog
     0000A847  A$watchdog$81                      watchdog
     0000A847  C$watchdog.c$36$1_0$346            watchdog
     0000A84A  A$watchdog$86                      watchdog
     0000A84A  C$watchdog.c$37$1_0$346            watchdog
     0000A84A  XG$watchdog_init$0$0               watchdog
     0000A84B  A$torque_sensor$59                 torque_sensor
     0000A84B  C$torque_sensor.c$17$0_0$347       torque_sensor
     0000A84B  C$torque_sensor.c$19$1_0$347       torque_sensor
     0000A84B  G$torque_sensor_init$0$0           torque_sensor
     0000A84B  _torque_sensor_init                torque_sensor
     0000A84D  A$torque_sensor$60                 torque_sensor
     0000A84F  A$torque_sensor$61                 torque_sensor
     0000A851  A$torque_sensor$62                 torque_sensor
     0000A853  A$torque_sensor$63                 torque_sensor
     0000A856  A$torque_sensor$64                 torque_sensor
     0000A858  A$torque_sensor$69                 torque_sensor
     0000A858  C$torque_sensor.c$22$1_0$347       torque_sensor
     0000A858  XG$torque_sensor_init$0$0          torque_sensor
     0000A859  A$uart$66                          uart
     0000A859  C$uart.c$19$0_0$357                uart
     0000A859  C$uart.c$21$1_0$357                uart
     0000A859  G$uart2_init$0$0                   uart
     0000A859  _uart2_init                        uart
     0000A85C  A$uart$69                          uart
     0000A85C  C$uart.c$25$1_0$357                uart
ASxxxx Linker V03.00 + NoICE + sdld,  page 160.
Hexadecimal  [32-Bits]

Area                                    Addr        Size        Decimal Bytes (Attributes)
--------------------------------        ----        ----        ------- ----- ------------
CODE                                000082B4    0000592D =       22829. bytes (REL,CON)

      Value  Global                              Global Defined In Module
      -----  --------------------------------   ------------------------
     0000A85E  A$uart$70                          uart
     0000A860  A$uart$71                          uart
     0000A862  A$uart$72                          uart
     0000A864  A$uart$73                          uart
     0000A866  A$uart$74                          uart
     0000A868  A$uart$75                          uart
     0000A86A  A$uart$76                          uart
     0000A86B  A$uart$77                          uart
     0000A86C  A$uart$78                          uart
     0000A86F  A$uart$79                          uart
     0000A871  A$uart$82                          uart
     0000A871  C$uart.c$33$1_0$357                uart
     0000A873  A$uart$83                          uart
     0000A875  A$uart$84                          uart
     0000A877  A$uart$85                          uart
     0000A87A  A$uart$86                          uart
     0000A87C  A$uart$91                          uart
     0000A87C  C$uart.c$34$1_0$357                uart
     0000A87C  XG$uart2_init$0$0                  uart
     0000A87D  A$uart$99                          uart
     0000A87D  C$uart.c$52$1_0$359                uart
     0000A87D  G$putchar$0$0                      uart
     0000A87D  _putchar                           uart
     0000A87E  A$uart$102                         uart
     0000A87E  C$uart.c$55$1_0$359                uart
     0000A880  A$uart$103                         uart
     0000A882  A$uart$104                         uart
     0000A883  A$uart$105                         uart
     0000A886  A$uart$106                         uart
     0000A887  A$uart$110                         uart
     0000A887  C$uart.c$58$1_0$359                uart
     0000A889  A$uart$111                         uart
     0000A88B  A$uart$112                         uart
     0000A88E  A$uart$113                         uart
     0000A890  A$uart$114                         uart
     0000A891  A$uart$115                         uart
     0000A893  A$uart$118                         uart
     0000A893  C$uart.c$60$1_0$359                uart
     0000A894  A$uart$119                         uart
     0000A896  A$uart$120                         uart
     0000A897  A$uart$123                         uart
     0000A898  A$uart$126                         uart
     0000A898  C$uart.c$61$1_0$359                uart
     0000A898  XG$putchar$0$0                     uart
     0000A899  A$uart$137                         uart
     0000A899  C$uart.c$70$1_0$361                uart
     0000A899  C$uart.c$76$1_0$361                uart
     0000A899  G$getchar$0$0                      uart
     0000A899  _getchar                           uart
     0000A89B  A$uart$138                         uart
     0000A89D  A$uart$139                         uart
ASxxxx Linker V03.00 + NoICE + sdld,  page 161.
Hexadecimal  [32-Bits]

Area                                    Addr        Size        Decimal Bytes (Attributes)
--------------------------------        ----        ----        ------- ----- ------------
CODE                                000082B4    0000592D =       22829. bytes (REL,CON)

      Value  Global                              Global Defined In Module
      -----  --------------------------------   ------------------------
     0000A8A0  A$uart$140                         uart
     0000A8A2  A$uart$141                         uart
     0000A8A3  A$uart$142                         uart
     0000A8A5  A$uart$145                         uart
     0000A8A5  C$uart.c$78$1_0$361                uart
     0000A8A8  A$uart$148                         uart
     0000A8A8  C$uart.c$80$1_0$361                uart
     0000A8A9  A$uart$149                         uart
     0000A8AA  A$uart$154                         uart
     0000A8AA  C$uart.c$81$1_0$361                uart
     0000A8AA  XG$getchar$0$0                     uart
     0000A8AB  A$pwm$75                           pwm
     0000A8AB  C$pwm.c$21$0_0$360                 pwm
     0000A8AB  C$pwm.c$24$1_0$360                 pwm
     0000A8AB  G$pwm_init_bipolar_4q$0$0          pwm
     0000A8AB  _pwm_init_bipolar_4q               pwm
     0000A8AD  A$pwm$76                           pwm
     0000A8B0  A$pwm$77                           pwm
     0000A8B1  A$pwm$80                           pwm
     0000A8B1  C$pwm.c$25$1_0$360                 pwm
     0000A8B3  A$pwm$81                           pwm
     0000A8B5  A$pwm$82                           pwm
     0000A8B8  A$pwm$83                           pwm
     0000A8BA  A$pwm$84                           pwm
     0000A8BD  A$pwm$85                           pwm
     0000A8BF  A$pwm$88                           pwm
     0000A8BF  C$pwm.c$27$2_0$361                 pwm
     0000A8C1  A$pwm$89                           pwm
     0000A8C4  A$pwm$90                           pwm
     0000A8C5  A$pwm$93                           pwm
     0000A8C5  C$pwm.c$28$2_0$361                 pwm
     0000A8C7  A$pwm$94                           pwm
     0000A8C9  A$pwm$95                           pwm
     0000A8CC  A$pwm$96                           pwm
     0000A8CE  A$pwm$99                           pwm
     0000A8CE  C$pwm.c$29$2_0$361                 pwm
     0000A8D0  A$pwm$100                          pwm
     0000A8D2  A$pwm$101                          pwm
     0000A8D4  A$pwm$102                          pwm
     0000A8D7  A$pwm$103                          pwm
     0000A8D9  A$pwm$106                          pwm
     0000A8D9  C$pwm.c$30$2_0$361                 pwm
     0000A8DB  A$pwm$107                          pwm
     0000A8DE  A$pwm$108                          pwm
     0000A8DF  A$pwm$112                          pwm
     0000A8DF  C$pwm.c$34$1_0$360                 pwm
     0000A8E1  A$pwm$113                          pwm
     0000A8E3  A$pwm$114                          pwm
     0000A8E5  A$pwm$115                          pwm
     0000A8E7  A$pwm$116                          pwm
     0000A8E8  A$pwm$117                          pwm
ASxxxx Linker V03.00 + NoICE + sdld,  page 162.
Hexadecimal  [32-Bits]

Area                                    Addr        Size        Decimal Bytes (Attributes)
--------------------------------        ----        ----        ------- ----- ------------
CODE                                000082B4    0000592D =       22829. bytes (REL,CON)

      Value  Global                              Global Defined In Module
      -----  --------------------------------   ------------------------
     0000A8E9  A$pwm$118                          pwm
     0000A8EC  A$pwm$119                          pwm
     0000A8EE  A$pwm$122                          pwm
     0000A8EE  C$pwm.c$40$1_0$360                 pwm
     0000A8F0  A$pwm$123                          pwm
     0000A8F2  A$pwm$124                          pwm
     0000A8F4  A$pwm$125                          pwm
     0000A8F6  A$pwm$126                          pwm
     0000A8F8  A$pwm$127                          pwm
     0000A8FA  A$pwm$128                          pwm
     0000A8FC  A$pwm$129                          pwm
     0000A8FE  A$pwm$130                          pwm
     0000A900  A$pwm$131                          pwm
     0000A903  A$pwm$132                          pwm
     0000A905  A$pwm$135                          pwm
     0000A905  C$pwm.c$49$1_0$360                 pwm
     0000A907  A$pwm$136                          pwm
     0000A909  A$pwm$137                          pwm
     0000A90B  A$pwm$138                          pwm
     0000A90D  A$pwm$139                          pwm
     0000A90F  A$pwm$140                          pwm
     0000A911  A$pwm$141                          pwm
     0000A913  A$pwm$142                          pwm
     0000A915  A$pwm$143                          pwm
     0000A917  A$pwm$144                          pwm
     0000A91A  A$pwm$145                          pwm
     0000A91C  A$pwm$148                          pwm
     0000A91C  C$pwm.c$58$1_0$360                 pwm
     0000A91E  A$pwm$149                          pwm
     0000A920  A$pwm$150                          pwm
     0000A922  A$pwm$151                          pwm
     0000A924  A$pwm$152                          pwm
     0000A926  A$pwm$153                          pwm
     0000A928  A$pwm$154                          pwm
     0000A92A  A$pwm$155                          pwm
     0000A92C  A$pwm$156                          pwm
     0000A92E  A$pwm$157                          pwm
     0000A931  A$pwm$158                          pwm
     0000A933  A$pwm$161                          pwm
     0000A933  C$pwm.c$69$1_0$360                 pwm
     0000A935  A$pwm$162                          pwm
     0000A937  A$pwm$163                          pwm
     0000A939  A$pwm$164                          pwm
     0000A93B  A$pwm$165                          pwm
     0000A93D  A$pwm$166                          pwm
     0000A93F  A$pwm$167                          pwm
     0000A942  A$pwm$168                          pwm
     0000A944  A$pwm$171                          pwm
     0000A944  C$pwm.c$76$1_0$360                 pwm
     0000A946  A$pwm$172                          pwm
     0000A948  A$pwm$173                          pwm
ASxxxx Linker V03.00 + NoICE + sdld,  page 163.
Hexadecimal  [32-Bits]

Area                                    Addr        Size        Decimal Bytes (Attributes)
--------------------------------        ----        ----        ------- ----- ------------
CODE                                000082B4    0000592D =       22829. bytes (REL,CON)

      Value  Global                              Global Defined In Module
      -----  --------------------------------   ------------------------
     0000A94A  A$pwm$174                          pwm
     0000A94C  A$pwm$175                          pwm
     0000A94E  A$pwm$176                          pwm
     0000A950  A$pwm$177                          pwm
     0000A953  A$pwm$178                          pwm
     0000A955  A$pwm$181                          pwm
     0000A955  C$pwm.c$84$1_0$360                 pwm
     0000A957  A$pwm$182                          pwm
     0000A959  A$pwm$183                          pwm
     0000A95C  A$pwm$184                          pwm
     0000A95E  A$pwm$187                          pwm
     0000A95E  C$pwm.c$85$1_0$360                 pwm
     0000A960  A$pwm$188                          pwm
     0000A963  A$pwm$189                          pwm
     0000A964  A$pwm$192                          pwm
     0000A964  C$pwm.c$86$1_0$360                 pwm
     0000A966  A$pwm$193                          pwm
     0000A969  A$pwm$194                          pwm
     0000A96A  A$pwm$199                          pwm
     0000A96A  C$pwm.c$154$1_0$360                pwm
     0000A96A  XG$pwm_init_bipolar_4q$0$0         pwm
     0000A96B  A$pwm$209                          pwm
     0000A96B  C$pwm.c$160$1_0$363                pwm
     0000A96B  C$pwm.c$162$1_0$363                pwm
     0000A96B  G$disable_pwm$0$0                  pwm
     0000A96B  _disable_pwm                       pwm
     0000A96D  A$pwm$210                          pwm
     0000A970  A$pwm$211                          pwm
     0000A971  A$pwm$214                          pwm
     0000A971  C$pwm.c$164$1_0$363                pwm
     0000A973  A$pwm$215                          pwm
     0000A975  A$pwm$216                          pwm
     0000A977  A$pwm$217                          pwm
     0000A979  A$pwm$218                          pwm
     0000A97B  A$pwm$219                          pwm
     0000A97D  A$pwm$220                          pwm
     0000A97F  A$pwm$221                          pwm
     0000A981  A$pwm$222                          pwm
     0000A983  A$pwm$223                          pwm
     0000A986  A$pwm$224                          pwm
     0000A988  A$pwm$227                          pwm
     0000A988  C$pwm.c$173$1_0$363                pwm
     0000A98A  A$pwm$228                          pwm
     0000A98C  A$pwm$229                          pwm
     0000A98E  A$pwm$230                          pwm
     0000A990  A$pwm$231                          pwm
     0000A992  A$pwm$232                          pwm
     0000A994  A$pwm$233                          pwm
     0000A996  A$pwm$234                          pwm
     0000A998  A$pwm$235                          pwm
     0000A99A  A$pwm$236                          pwm
ASxxxx Linker V03.00 + NoICE + sdld,  page 164.
Hexadecimal  [32-Bits]

Area                                    Addr        Size        Decimal Bytes (Attributes)
--------------------------------        ----        ----        ------- ----- ------------
CODE                                000082B4    0000592D =       22829. bytes (REL,CON)

      Value  Global                              Global Defined In Module
      -----  --------------------------------   ------------------------
     0000A99D  A$pwm$237                          pwm
     0000A99F  A$pwm$240                          pwm
     0000A99F  C$pwm.c$182$1_0$363                pwm
     0000A9A1  A$pwm$241                          pwm
     0000A9A3  A$pwm$242                          pwm
     0000A9A5  A$pwm$243                          pwm
     0000A9A7  A$pwm$244                          pwm
     0000A9A9  A$pwm$245                          pwm
     0000A9AB  A$pwm$246                          pwm
     0000A9AD  A$pwm$247                          pwm
     0000A9AF  A$pwm$248                          pwm
     0000A9B1  A$pwm$249                          pwm
     0000A9B4  A$pwm$250                          pwm
     0000A9B6  A$pwm$255                          pwm
     0000A9B6  C$pwm.c$200$1_0$363                pwm
     0000A9B6  XG$disable_pwm$0$0                 pwm
     0000A9B7  A$pwm$265                          pwm
     0000A9B7  C$pwm.c$207$1_0$365                pwm
     0000A9B7  C$pwm.c$209$1_0$365                pwm
     0000A9B7  G$enable_pwm$0$0                   pwm
     0000A9B7  _enable_pwm                        pwm
     0000A9B9  A$pwm$266                          pwm
     0000A9BB  A$pwm$267                          pwm
     0000A9BD  A$pwm$268                          pwm
     0000A9BF  A$pwm$269                          pwm
     0000A9C1  A$pwm$270                          pwm
     0000A9C3  A$pwm$271                          pwm
     0000A9C5  A$pwm$272                          pwm
     0000A9C7  A$pwm$273                          pwm
     0000A9C9  A$pwm$274                          pwm
     0000A9CC  A$pwm$275                          pwm
     0000A9CE  A$pwm$278                          pwm
     0000A9CE  C$pwm.c$218$1_0$365                pwm
     0000A9D0  A$pwm$279                          pwm
     0000A9D2  A$pwm$280                          pwm
     0000A9D4  A$pwm$281                          pwm
     0000A9D6  A$pwm$282                          pwm
     0000A9D8  A$pwm$283                          pwm
     0000A9DA  A$pwm$284                          pwm
     0000A9DC  A$pwm$285                          pwm
     0000A9DE  A$pwm$286                          pwm
     0000A9E0  A$pwm$287                          pwm
     0000A9E3  A$pwm$288                          pwm
     0000A9E5  A$pwm$291                          pwm
     0000A9E5  C$pwm.c$227$1_0$365                pwm
     0000A9E7  A$pwm$292                          pwm
     0000A9E9  A$pwm$293                          pwm
     0000A9EB  A$pwm$294                          pwm
     0000A9ED  A$pwm$295                          pwm
     0000A9EF  A$pwm$296                          pwm
     0000A9F1  A$pwm$297                          pwm
ASxxxx Linker V03.00 + NoICE + sdld,  page 165.
Hexadecimal  [32-Bits]

Area                                    Addr        Size        Decimal Bytes (Attributes)
--------------------------------        ----        ----        ------- ----- ------------
CODE                                000082B4    0000592D =       22829. bytes (REL,CON)

      Value  Global                              Global Defined In Module
      -----  --------------------------------   ------------------------
     0000A9F3  A$pwm$298                          pwm
     0000A9F5  A$pwm$299                          pwm
     0000A9F7  A$pwm$300                          pwm
     0000A9FA  A$pwm$301                          pwm
     0000A9FC  A$pwm$304                          pwm
     0000A9FC  C$pwm.c$239$1_0$365                pwm
     0000A9FE  A$pwm$305                          pwm
     0000AA00  A$pwm$306                          pwm
     0000AA02  A$pwm$307                          pwm
     0000AA04  A$pwm$308                          pwm
     0000AA06  A$pwm$309                          pwm
     0000AA08  A$pwm$310                          pwm
     0000AA0B  A$pwm$311                          pwm
     0000AA0D  A$pwm$314                          pwm
     0000AA0D  C$pwm.c$246$1_0$365                pwm
     0000AA0F  A$pwm$315                          pwm
     0000AA11  A$pwm$316                          pwm
     0000AA13  A$pwm$317                          pwm
     0000AA15  A$pwm$318                          pwm
     0000AA17  A$pwm$319                          pwm
     0000AA19  A$pwm$320                          pwm
     0000AA1C  A$pwm$321                          pwm
     0000AA1E  A$pwm$324                          pwm
     0000AA1E  C$pwm.c$254$1_0$365                pwm
     0000AA20  A$pwm$325                          pwm
     0000AA22  A$pwm$326                          pwm
     0000AA25  A$pwm$327                          pwm
     0000AA27  A$pwm$330                          pwm
     0000AA27  C$pwm.c$255$1_0$365                pwm
     0000AA29  A$pwm$331                          pwm
     0000AA2C  A$pwm$332                          pwm
     0000AA2D  A$pwm$335                          pwm
     0000AA2D  C$pwm.c$256$1_0$365                pwm
     0000AA2F  A$pwm$336                          pwm
     0000AA32  A$pwm$337                          pwm
     0000AA33  A$pwm$342                          pwm
     0000AA33  C$pwm.c$258$1_0$365                pwm
     0000AA33  XG$enable_pwm$0$0                  pwm
     0000AA34  A$motor$314                        motor
     0000AA34  C$motor.c$496$0_0$425              motor
     0000AA34  C$motor.c$499$1_0$425              motor
     0000AA34  G$motor_controller$0$0             motor
     0000AA34  _motor_controller                  motor
     0000AA37  A$motor$317                        motor
     0000AA37  C$motor.c$500$1_0$425              motor
     0000AA3A  A$motor$320                        motor
     0000AA3A  C$motor.c$503$1_0$425              motor
     0000AA3D  A$motor$325                        motor
     0000AA3D  C$motor.c$504$1_0$425              motor
     0000AA3D  XG$motor_controller$0$0            motor
     0000AA3E  A$motor$333                        motor
ASxxxx Linker V03.00 + NoICE + sdld,  page 166.
Hexadecimal  [32-Bits]

Area                                    Addr        Size        Decimal Bytes (Attributes)
--------------------------------        ----        ----        ------- ----- ------------
CODE                                000082B4    0000592D =       22829. bytes (REL,CON)

      Value  Global                              Global Defined In Module
      -----  --------------------------------   ------------------------
     0000AA3E  C$motor.c$513$1_0$427              motor
     0000AA3E  G$TIM1_CAP_COM_IRQHandler$0$0      motor
     0000AA3E  _TIM1_CAP_COM_IRQHandler           motor
     0000AA3F  A$motor$334                        motor
     0000AA40  A$motor$335                        motor
     0000AA42  A$motor$338                        motor
     0000AA42  C$motor.c$518$1_0$427              motor
     0000AA45  A$motor$341                        motor
     0000AA45  C$motor.c$524$1_0$427              motor
     0000AA49  A$motor$344                        motor
     0000AA49  C$motor.c$526$1_0$427              motor
     0000AA4D  A$motor$347                        motor
     0000AA4D  C$motor.c$528$1_0$427              motor
     0000AA51  A$motor$351                        motor
     0000AA51  C$motor.c$529$1_0$427              motor
     0000AA54  A$motor$352                        motor
     0000AA56  A$motor$355                        motor
     0000AA56  C$motor.c$530$1_0$427              motor
     0000AA59  A$motor$356                        motor
     0000AA5C  A$motor$359                        motor
     0000AA5C  C$motor.c$531$1_0$427              motor
     0000AA5F  A$motor$360                        motor
     0000AA60  A$motor$361                        motor
     0000AA61  A$motor$362                        motor
     0000AA62  A$motor$363                        motor
     0000AA65  A$motor$366                        motor
     0000AA65  C$motor.c$534$1_0$427              motor
     0000AA69  A$motor$367                        motor
     0000AA6B  A$motor$370                        motor
     0000AA6B  C$motor.c$536$2_0$428              motor
     0000AA6E  A$motor$371                        motor
     0000AA6F  A$motor$372                        motor
     0000AA70  A$motor$373                        motor
     0000AA71  A$motor$374                        motor
     0000AA72  A$motor$375                        motor
     0000AA73  A$motor$376                        motor
     0000AA74  A$motor$377                        motor
     0000AA76  A$motor$378                        motor
     0000AA79  A$motor$379                        motor
     0000AA7B  A$motor$380                        motor
     0000AA7C  A$motor$381                        motor
     0000AA7D  A$motor$382                        motor
     0000AA80  A$motor$383                        motor
     0000AA82  A$motor$387                        motor
     0000AA82  C$motor.c$540$2_0$429              motor
     0000AA86  A$motor$391                        motor
     0000AA86  C$motor.c$545$1_0$427              motor
     0000AA8A  A$motor$394                        motor
     0000AA8A  C$motor.c$546$1_0$427              motor
     0000AA8E  A$motor$397                        motor
     0000AA8E  C$motor.c$547$1_0$427              motor
ASxxxx Linker V03.00 + NoICE + sdld,  page 167.
Hexadecimal  [32-Bits]

Area                                    Addr        Size        Decimal Bytes (Attributes)
--------------------------------        ----        ----        ------- ----- ------------
CODE                                000082B4    0000592D =       22829. bytes (REL,CON)

      Value  Global                              Global Defined In Module
      -----  --------------------------------   ------------------------
     0000AA92  A$motor$400                        motor
     0000AA92  C$motor.c$556$1_0$427              motor
     0000AA95  A$motor$401                        motor
     0000AA97  A$motor$402                        motor
     0000AA98  A$motor$403                        motor
     0000AA9A  A$motor$404                        motor
     0000AA9B  A$motor$405                        motor
     0000AA9D  A$motor$408                        motor
     0000AA9D  C$motor.c$557$1_0$427              motor
     0000AAA0  A$motor$409                        motor
     0000AAA2  A$motor$410                        motor
     0000AAA3  A$motor$411                        motor
     0000AAA5  A$motor$412                        motor
     0000AAA7  A$motor$415                        motor
     0000AAA7  C$motor.c$558$1_0$427              motor
     0000AAAA  A$motor$416                        motor
     0000AAAC  A$motor$417                        motor
     0000AAAD  A$motor$418                        motor
     0000AAAE  A$motor$419                        motor
     0000AAAF  A$motor$420                        motor
     0000AAB1  A$motor$421                        motor
     0000AAB4  A$motor$424                        motor
     0000AAB4  C$motor.c$560$1_0$427              motor
     0000AAB7  A$motor$425                        motor
     0000AABA  A$motor$426                        motor
     0000AABC  A$motor$427                        motor
     0000AABF  A$motor$431                        motor
     0000AABF  C$motor.c$562$2_0$430              motor
     0000AAC4  A$motor$434                        motor
     0000AAC4  C$motor.c$564$2_0$430              motor
     0000AAC7  A$motor$435                        motor
     0000AAC9  A$motor$436                        motor
     0000AACB  A$motor$437                        motor
     0000AACE  A$motor$439                        motor
     0000AACF  A$motor$440                        motor
     0000AAD0  A$motor$441                        motor
     0000AAD1  A$motor$442                        motor
     0000AAD4  A$motor$443                        motor
     0000AAE3  A$motor$457                        motor
     0000AAE3  C$motor.c$566$3_0$431              motor
     0000AAE3  C$motor.c$567$3_0$431              motor
     0000AAE7  A$motor$460                        motor
     0000AAE7  C$motor.c$568$3_0$431              motor
     0000AAEA  A$motor$466                        motor
     0000AAEA  C$motor.c$570$3_0$431              motor
     0000AAEA  C$motor.c$571$3_0$431              motor
     0000AAED  A$motor$467                        motor
     0000AAEE  A$motor$468                        motor
     0000AAF0  A$motor$469                        motor
     0000AAF3  A$motor$473                        motor
     0000AAF3  C$motor.c$573$4_0$432              motor
ASxxxx Linker V03.00 + NoICE + sdld,  page 168.
Hexadecimal  [32-Bits]

Area                                    Addr        Size        Decimal Bytes (Attributes)
--------------------------------        ----        ----        ------- ----- ------------
CODE                                000082B4    0000592D =       22829. bytes (REL,CON)

      Value  Global                              Global Defined In Module
      -----  --------------------------------   ------------------------
     0000AAF7  A$motor$476                        motor
     0000AAF7  C$motor.c$574$4_0$432              motor
     0000AAFA  A$motor$477                        motor
     0000AAFD  A$motor$480                        motor
     0000AAFD  C$motor.c$575$4_0$432              motor
     0000AB00  A$motor$481                        motor
     0000AB03  A$motor$484                        motor
     0000AB03  C$motor.c$579$4_0$432              motor
     0000AB06  A$motor$485                        motor
     0000AB08  A$motor$488                        motor
     0000AB08  C$motor.c$581$5_0$433              motor
     0000AB0B  A$motor$489                        motor
     0000AB0F  A$motor$490                        motor
     0000AB10  A$motor$491                        motor
     0000AB13  A$motor$492                        motor
     0000AB15  A$motor$496                        motor
     0000AB15  C$motor.c$585$5_0$434              motor
     0000AB18  A$motor$497                        motor
     0000AB1B  A$motor$501                        motor
     0000AB1B  C$motor.c$589$4_0$432              motor
     0000AB1E  A$motor$502                        motor
     0000AB21  A$motor$503                        motor
     0000AB23  A$motor$506                        motor
     0000AB23  C$motor.c$591$5_0$435              motor
     0000AB26  A$motor$507                        motor
     0000AB27  A$motor$508                        motor
     0000AB29  A$motor$511                        motor
     0000AB29  C$motor.c$593$6_0$436              motor
     0000AB2D  A$motor$514                        motor
     0000AB2D  C$motor.c$594$6_0$436              motor
     0000AB31  A$motor$515                        motor
     0000AB33  A$motor$519                        motor
     0000AB33  C$motor.c$599$5_0$437              motor
     0000AB36  A$motor$520                        motor
     0000AB38  A$motor$521                        motor
     0000AB3A  A$motor$524                        motor
     0000AB3A  C$motor.c$601$6_0$438              motor
     0000AB3E  A$motor$527                        motor
     0000AB3E  C$motor.c$602$6_0$438              motor
     0000AB42  A$motor$531                        motor
     0000AB42  C$motor.c$607$3_0$431              motor
     0000AB46  A$motor$534                        motor
     0000AB46  C$motor.c$608$3_0$431              motor
     0000AB48  A$motor$540                        motor
     0000AB48  C$motor.c$610$3_0$431              motor
     0000AB48  C$motor.c$611$3_0$431              motor
     0000AB4C  A$motor$543                        motor
     0000AB4C  C$motor.c$612$3_0$431              motor
     0000AB4E  A$motor$549                        motor
     0000AB4E  C$motor.c$614$3_0$431              motor
     0000AB4E  C$motor.c$615$3_0$431              motor
ASxxxx Linker V03.00 + NoICE + sdld,  page 169.
Hexadecimal  [32-Bits]

Area                                    Addr        Size        Decimal Bytes (Attributes)
--------------------------------        ----        ----        ------- ----- ------------
CODE                                000082B4    0000592D =       22829. bytes (REL,CON)

      Value  Global                              Global Defined In Module
      -----  --------------------------------   ------------------------
     0000AB52  A$motor$552                        motor
     0000AB52  C$motor.c$616$3_0$431              motor
     0000AB54  A$motor$558                        motor
     0000AB54  C$motor.c$618$3_0$431              motor
     0000AB54  C$motor.c$619$3_0$431              motor
     0000AB58  A$motor$561                        motor
     0000AB58  C$motor.c$620$3_0$431              motor
     0000AB5C  A$motor$564                        motor
     0000AB5C  C$motor.c$621$3_0$431              motor
     0000AB5E  A$motor$570                        motor
     0000AB5E  C$motor.c$626$3_0$431              motor
     0000AB5E  C$motor.c$627$3_0$431              motor
     0000AB62  A$motor$573                        motor
     0000AB62  C$motor.c$628$3_0$431              motor
     0000AB64  A$motor$579                        motor
     0000AB64  C$motor.c$630$3_0$431              motor
     0000AB64  C$motor.c$631$3_0$431              motor
     0000AB67  A$motor$585                        motor
     0000AB67  C$motor.c$633$2_0$430              motor
     0000AB67  C$motor.c$635$2_0$430              motor
     0000AB6A  A$motor$586                        motor
     0000AB6D  A$motor$590                        motor
     0000AB6D  C$motor.c$640$1_0$427              motor
     0000AB70  A$motor$591                        motor
     0000AB73  A$motor$592                        motor
     0000AB75  A$motor$595                        motor
     0000AB75  C$motor.c$642$2_0$439              motor
     0000AB78  A$motor$596                        motor
     0000AB79  A$motor$597                        motor
     0000AB7C  A$motor$600                        motor
     0000AB7C  C$motor.c$643$2_0$439              motor
     0000AB7F  A$motor$601                        motor
     0000AB80  A$motor$602                        motor
     0000AB83  A$motor$603                        motor
     0000AB85  A$motor$607                        motor
     0000AB85  C$motor.c$647$2_0$440              motor
     0000AB88  A$motor$608                        motor
     0000AB8B  A$motor$611                        motor
     0000AB8B  C$motor.c$648$2_0$440              motor
     0000AB8E  A$motor$612                        motor
     0000AB91  A$motor$615                        motor
     0000AB91  C$motor.c$649$2_0$440              motor
     0000AB95  A$motor$618                        motor
     0000AB95  C$motor.c$650$2_0$440              motor
     0000AB96  A$motor$619                        motor
     0000AB99  A$motor$622                        motor
     0000AB99  C$motor.c$651$2_0$440              motor
     0000AB9C  A$motor$623                        motor
     0000AB9F  A$motor$626                        motor
     0000AB9F  C$motor.c$652$2_0$440              motor
     0000ABA3  A$motor$629                        motor
ASxxxx Linker V03.00 + NoICE + sdld,  page 170.
Hexadecimal  [32-Bits]

Area                                    Addr        Size        Decimal Bytes (Attributes)
--------------------------------        ----        ----        ------- ----- ------------
CODE                                000082B4    0000592D =       22829. bytes (REL,CON)

      Value  Global                              Global Defined In Module
      -----  --------------------------------   ------------------------
     0000ABA3  C$motor.c$653$2_0$440              motor
     0000ABA7  A$motor$632                        motor
     0000ABA7  C$motor.c$654$2_0$440              motor
     0000ABAB  A$motor$636                        motor
     0000ABAB  C$motor.c$663$1_0$427              motor
     0000ABAE  A$motor$637                        motor
     0000ABB0  A$motor$638                        motor
     0000ABB2  A$motor$641                        motor
     0000ABB2  C$motor.c$667$2_0$441              motor
     0000ABB5  A$motor$642                        motor
     0000ABB6  A$motor$643                        motor
     0000ABB7  A$motor$644                        motor
     0000ABB8  A$motor$645                        motor
     0000ABBC  A$motor$646                        motor
     0000ABBD  A$motor$647                        motor
     0000ABBE  A$motor$648                        motor
     0000ABC1  A$motor$651                        motor
     0000ABC1  C$motor.c$668$2_0$441              motor
     0000ABC4  A$motor$652                        motor
     0000ABC7  A$motor$653                        motor
     0000ABCA  A$motor$656                        motor
     0000ABCA  C$motor.c$669$2_0$441              motor
     0000ABCD  A$motor$657                        motor
     0000ABD0  A$motor$658                        motor
     0000ABD3  A$motor$659                        motor
     0000ABD5  A$motor$663                        motor
     0000ABD5  C$motor.c$674$2_0$442              motor
     0000ABD8  A$motor$664                        motor
     0000ABDB  A$motor$665                        motor
     0000ABDE  A$motor$669                        motor
     0000ABDE  C$motor.c$678$1_0$427              motor
     0000ABE1  A$motor$670                        motor
     0000ABE3  A$motor$671                        motor
     0000ABE6  A$motor$674                        motor
     0000ABE6  C$motor.c$688$1_0$427              motor
     0000ABE9  A$motor$675                        motor
     0000ABEC  A$motor$676                        motor
     0000ABEE  A$motor$679                        motor
     0000ABEE  C$motor.c$689$1_0$427              motor
     0000ABF1  A$motor$680                        motor
     0000ABF4  A$motor$681                        motor
     0000ABF6  A$motor$684                        motor
     0000ABF6  C$motor.c$690$1_0$427              motor
     0000ABF9  A$motor$685                        motor
     0000ABFC  A$motor$686                        motor
     0000ABFE  A$motor$690                        motor
     0000ABFE  C$motor.c$692$2_0$443              motor
     0000AC02  A$motor$691                        motor
     0000AC04  A$motor$695                        motor
     0000AC04  C$motor.c$694$2_0$444              motor
     0000AC08  A$motor$699                        motor
ASxxxx Linker V03.00 + NoICE + sdld,  page 171.
Hexadecimal  [32-Bits]

Area                                    Addr        Size        Decimal Bytes (Attributes)
--------------------------------        ----        ----        ------- ----- ------------
CODE                                000082B4    0000592D =       22829. bytes (REL,CON)

      Value  Global                              Global Defined In Module
      -----  --------------------------------   ------------------------
     0000AC08  C$motor.c$699$1_0$427              motor
     0000AC0B  A$motor$700                        motor
     0000AC0C  A$motor$701                        motor
     0000AC0F  A$motor$702                        motor
     0000AC11  A$motor$703                        motor
     0000AC13  A$motor$706                        motor
     0000AC13  C$motor.c$702$2_0$445              motor
     0000AC17  A$motor$709                        motor
     0000AC17  C$motor.c$705$2_0$445              motor
     0000AC1B  A$motor$710                        motor
     0000AC1D  A$motor$711                        motor
     0000AC20  A$motor$715                        motor
     0000AC20  C$motor.c$707$3_0$446              motor
     0000AC24  A$motor$716                        motor
     0000AC26  A$motor$717                        motor
     0000AC29  A$motor$721                        motor
     0000AC29  C$motor.c$710$4_0$447              motor
     0000AC2D  A$motor$722                        motor
     0000AC30  A$motor$726                        motor
     0000AC30  C$motor.c$714$1_0$427              motor
     0000AC33  A$motor$727                        motor
     0000AC36  A$motor$728                        motor
     0000AC38  A$motor$731                        motor
     0000AC38  C$motor.c$716$2_0$448              motor
     0000AC3C  A$motor$732                        motor
     0000AC3E  A$motor$733                        motor
     0000AC41  A$motor$737                        motor
     0000AC41  C$motor.c$719$3_0$449              motor
     0000AC45  A$motor$738                        motor
     0000AC48  A$motor$742                        motor
     0000AC48  C$motor.c$722$1_0$427              motor
     0000AC4B  A$motor$743                        motor
     0000AC4E  A$motor$744                        motor
     0000AC50  A$motor$747                        motor
     0000AC50  C$motor.c$724$2_0$450              motor
     0000AC54  A$motor$748                        motor
     0000AC56  A$motor$749                        motor
     0000AC59  A$motor$753                        motor
     0000AC59  C$motor.c$727$3_0$451              motor
     0000AC5D  A$motor$754                        motor
     0000AC5F  A$motor$758                        motor
     0000AC5F  C$motor.c$732$2_0$452              motor
     0000AC62  A$motor$759                        motor
     0000AC65  A$motor$760                        motor
     0000AC67  A$motor$763                        motor
     0000AC67  C$motor.c$733$2_0$452              motor
     0000AC6B  A$motor$764                        motor
     0000AC6D  A$motor$767                        motor
     0000AC6D  C$motor.c$735$3_0$453              motor
     0000AC71  A$motor$768                        motor
     0000AC72  A$motor$769                        motor
ASxxxx Linker V03.00 + NoICE + sdld,  page 172.
Hexadecimal  [32-Bits]

Area                                    Addr        Size        Decimal Bytes (Attributes)
--------------------------------        ----        ----        ------- ----- ------------
CODE                                000082B4    0000592D =       22829. bytes (REL,CON)

      Value  Global                              Global Defined In Module
      -----  --------------------------------   ------------------------
     0000AC73  A$motor$770                        motor
     0000AC76  A$motor$771                        motor
     0000AC7A  A$motor$772                        motor
     0000AC7C  A$motor$775                        motor
     0000AC7C  C$motor.c$737$4_0$454              motor
     0000AC7D  A$motor$776                        motor
     0000AC80  A$motor$779                        motor
     0000AC80  C$motor.c$740$4_0$454              motor
     0000AC84  A$motor$780                        motor
     0000AC86  A$motor$784                        motor
     0000AC86  C$motor.c$743$2_0$452              motor
     0000AC89  A$motor$785                        motor
     0000AC8C  A$motor$786                        motor
     0000AC8E  A$motor$789                        motor
     0000AC8E  C$motor.c$745$3_0$455              motor
     0000AC92  A$motor$790                        motor
     0000AC93  A$motor$791                        motor
     0000AC94  A$motor$792                        motor
     0000AC97  A$motor$793                        motor
     0000AC9B  A$motor$794                        motor
     0000AC9D  A$motor$797                        motor
     0000AC9D  C$motor.c$747$4_0$456              motor
     0000AC9E  A$motor$798                        motor
     0000ACA1  A$motor$801                        motor
     0000ACA1  C$motor.c$750$4_0$456              motor
     0000ACA5  A$motor$805                        motor
     0000ACA5  C$motor.c$760$1_0$427              motor
     0000ACA8  A$motor$806                        motor
     0000ACAA  A$motor$807                        motor
     0000ACAB  A$motor$808                        motor
     0000ACAC  A$motor$809                        motor
     0000ACAF  A$motor$810                        motor
     0000ACB0  A$motor$811                        motor
     0000ACB3  A$motor$814                        motor
     0000ACB3  C$motor.c$761$1_0$427              motor
     0000ACB6  A$motor$815                        motor
     0000ACB8  A$motor$816                        motor
     0000ACBA  A$motor$819                        motor
     0000ACBA  C$motor.c$763$2_0$457              motor
     0000ACBB  A$motor$820                        motor
     0000ACBE  A$motor$821                        motor
     0000ACBF  A$motor$822                        motor
     0000ACC2  A$motor$823                        motor
     0000ACC3  A$motor$824                        motor
     0000ACC4  A$motor$825                        motor
     0000ACC7  A$motor$826                        motor
     0000ACC8  A$motor$827                        motor
     0000ACC9  A$motor$828                        motor
     0000ACCB  A$motor$829                        motor
     0000ACCE  A$motor$830                        motor
     0000ACD0  A$motor$831                        motor
ASxxxx Linker V03.00 + NoICE + sdld,  page 173.
Hexadecimal  [32-Bits]

Area                                    Addr        Size        Decimal Bytes (Attributes)
--------------------------------        ----        ----        ------- ----- ------------
CODE                                000082B4    0000592D =       22829. bytes (REL,CON)

      Value  Global                              Global Defined In Module
      -----  --------------------------------   ------------------------
     0000ACD3  A$motor$834                        motor
     0000ACD3  C$motor.c$764$2_0$457              motor
     0000ACD6  A$motor$835                        motor
     0000ACD8  A$motor$836                        motor
     0000ACDA  A$motor$837                        motor
     0000ACDC  A$motor$838                        motor
     0000ACDF  A$motor$841                        motor
     0000ACDF  C$motor.c$765$2_0$457              motor
     0000ACE2  A$motor$842                        motor
     0000ACE4  A$motor$843                        motor
     0000ACE7  A$motor$844                        motor
     0000ACE9  A$motor$848                        motor
     0000ACE9  C$motor.c$769$2_0$458              motor
     0000ACEC  A$motor$849                        motor
     0000ACEE  A$motor$850                        motor
     0000ACF0  A$motor$851                        motor
     0000ACF4  A$motor$852                        motor
     0000ACF7  A$motor$853                        motor
     0000ACF8  A$motor$854                        motor
     0000ACFB  A$motor$855                        motor
     0000ACFC  A$motor$856                        motor
     0000ACFD  A$motor$857                        motor
     0000ACFF  A$motor$858                        motor
     0000AD02  A$motor$859                        motor
     0000AD04  A$motor$860                        motor
     0000AD07  A$motor$863                        motor
     0000AD07  C$motor.c$770$2_0$458              motor
     0000AD0A  A$motor$864                        motor
     0000AD0C  A$motor$865                        motor
     0000AD0E  A$motor$866                        motor
     0000AD10  A$motor$867                        motor
     0000AD13  A$motor$870                        motor
     0000AD13  C$motor.c$771$2_0$458              motor
     0000AD15  A$motor$871                        motor
     0000AD18  A$motor$872                        motor
     0000AD1B  A$motor$876                        motor
     0000AD1B  C$motor.c$775$1_0$427              motor
     0000AD1C  A$motor$877                        motor
     0000AD1F  A$motor$878                        motor
     0000AD20  A$motor$879                        motor
     0000AD23  A$motor$880                        motor
     0000AD24  A$motor$881                        motor
     0000AD27  A$motor$884                        motor
     0000AD27  C$motor.c$776$1_0$427              motor
     0000AD2A  A$motor$885                        motor
     0000AD2C  A$motor$886                        motor
     0000AD2E  A$motor$889                        motor
     0000AD2E  C$motor.c$778$2_0$459              motor
     0000AD2F  A$motor$890                        motor
     0000AD32  A$motor$891                        motor
     0000AD33  A$motor$892                        motor
ASxxxx Linker V03.00 + NoICE + sdld,  page 174.
Hexadecimal  [32-Bits]

Area                                    Addr        Size        Decimal Bytes (Attributes)
--------------------------------        ----        ----        ------- ----- ------------
CODE                                000082B4    0000592D =       22829. bytes (REL,CON)

      Value  Global                              Global Defined In Module
      -----  --------------------------------   ------------------------
     0000AD36  A$motor$893                        motor
     0000AD37  A$motor$894                        motor
     0000AD38  A$motor$895                        motor
     0000AD3B  A$motor$896                        motor
     0000AD3C  A$motor$897                        motor
     0000AD3D  A$motor$898                        motor
     0000AD3F  A$motor$899                        motor
     0000AD42  A$motor$900                        motor
     0000AD44  A$motor$901                        motor
     0000AD47  A$motor$904                        motor
     0000AD47  C$motor.c$779$2_0$459              motor
     0000AD4A  A$motor$905                        motor
     0000AD4C  A$motor$906                        motor
     0000AD4E  A$motor$907                        motor
     0000AD50  A$motor$908                        motor
     0000AD53  A$motor$911                        motor
     0000AD53  C$motor.c$780$2_0$459              motor
     0000AD56  A$motor$912                        motor
     0000AD58  A$motor$913                        motor
     0000AD5B  A$motor$914                        motor
     0000AD5D  A$motor$918                        motor
     0000AD5D  C$motor.c$784$2_0$460              motor
     0000AD60  A$motor$919                        motor
     0000AD62  A$motor$920                        motor
     0000AD64  A$motor$921                        motor
     0000AD68  A$motor$922                        motor
     0000AD6B  A$motor$923                        motor
     0000AD6C  A$motor$924                        motor
     0000AD6F  A$motor$925                        motor
     0000AD70  A$motor$926                        motor
     0000AD71  A$motor$927                        motor
     0000AD73  A$motor$928                        motor
     0000AD76  A$motor$929                        motor
     0000AD78  A$motor$930                        motor
     0000AD7B  A$motor$933                        motor
     0000AD7B  C$motor.c$785$2_0$460              motor
     0000AD7E  A$motor$934                        motor
     0000AD80  A$motor$935                        motor
     0000AD82  A$motor$936                        motor
     0000AD84  A$motor$937                        motor
     0000AD87  A$motor$940                        motor
     0000AD87  C$motor.c$786$2_0$460              motor
     0000AD89  A$motor$941                        motor
     0000AD8C  A$motor$942                        motor
     0000AD8F  A$motor$946                        motor
     0000AD8F  C$motor.c$790$1_0$427              motor
     0000AD92  A$motor$947                        motor
     0000AD94  A$motor$948                        motor
     0000AD95  A$motor$949                        motor
     0000AD96  A$motor$950                        motor
     0000AD99  A$motor$951                        motor
ASxxxx Linker V03.00 + NoICE + sdld,  page 175.
Hexadecimal  [32-Bits]

Area                                    Addr        Size        Decimal Bytes (Attributes)
--------------------------------        ----        ----        ------- ----- ------------
CODE                                000082B4    0000592D =       22829. bytes (REL,CON)

      Value  Global                              Global Defined In Module
      -----  --------------------------------   ------------------------
     0000AD9A  A$motor$952                        motor
     0000AD9D  A$motor$955                        motor
     0000AD9D  C$motor.c$791$1_0$427              motor
     0000ADA0  A$motor$956                        motor
     0000ADA2  A$motor$957                        motor
     0000ADA4  A$motor$960                        motor
     0000ADA4  C$motor.c$793$2_0$461              motor
     0000ADA5  A$motor$961                        motor
     0000ADA8  A$motor$962                        motor
     0000ADA9  A$motor$963                        motor
     0000ADAC  A$motor$964                        motor
     0000ADAD  A$motor$965                        motor
     0000ADAE  A$motor$966                        motor
     0000ADB1  A$motor$967                        motor
     0000ADB2  A$motor$968                        motor
     0000ADB3  A$motor$969                        motor
     0000ADB5  A$motor$970                        motor
     0000ADB8  A$motor$971                        motor
     0000ADBA  A$motor$972                        motor
     0000ADBD  A$motor$975                        motor
     0000ADBD  C$motor.c$794$2_0$461              motor
     0000ADC0  A$motor$976                        motor
     0000ADC2  A$motor$977                        motor
     0000ADC4  A$motor$978                        motor
     0000ADC6  A$motor$979                        motor
     0000ADC9  A$motor$982                        motor
     0000ADC9  C$motor.c$795$2_0$461              motor
     0000ADCC  A$motor$983                        motor
     0000ADCE  A$motor$984                        motor
     0000ADD1  A$motor$985                        motor
     0000ADD3  A$motor$989                        motor
     0000ADD3  C$motor.c$799$2_0$462              motor
     0000ADD6  A$motor$990                        motor
     0000ADD8  A$motor$991                        motor
     0000ADDA  A$motor$992                        motor
     0000ADDE  A$motor$993                        motor
     0000ADE1  A$motor$994                        motor
     0000ADE2  A$motor$995                        motor
     0000ADE5  A$motor$996                        motor
     0000ADE6  A$motor$997                        motor
     0000ADE7  A$motor$998                        motor
     0000ADE9  A$motor$999                        motor
     0000ADEC  A$motor$1000                       motor
     0000ADEE  A$motor$1001                       motor
     0000ADF1  A$motor$1004                       motor
     0000ADF1  C$motor.c$800$2_0$462              motor
     0000ADF4  A$motor$1005                       motor
     0000ADF6  A$motor$1006                       motor
     0000ADF8  A$motor$1007                       motor
     0000ADFA  A$motor$1008                       motor
     0000ADFD  A$motor$1011                       motor
ASxxxx Linker V03.00 + NoICE + sdld,  page 176.
Hexadecimal  [32-Bits]

Area                                    Addr        Size        Decimal Bytes (Attributes)
--------------------------------        ----        ----        ------- ----- ------------
CODE                                000082B4    0000592D =       22829. bytes (REL,CON)

      Value  Global                              Global Defined In Module
      -----  --------------------------------   ------------------------
     0000ADFD  C$motor.c$801$2_0$462              motor
     0000ADFF  A$motor$1012                       motor
     0000AE02  A$motor$1013                       motor
     0000AE05  A$motor$1017                       motor
     0000AE05  C$motor.c$806$1_0$427              motor
     0000AE08  A$motor$1018                       motor
     0000AE09  A$motor$1019                       motor
     0000AE0B  A$motor$1020                       motor
     0000AE0C  A$motor$1021                       motor
     0000AE0D  A$motor$1022                       motor
     0000AE0E  A$motor$1023                       motor
     0000AE11  A$motor$1026                       motor
     0000AE11  C$motor.c$807$1_0$427              motor
     0000AE14  A$motor$1027                       motor
     0000AE15  A$motor$1028                       motor
     0000AE18  A$motor$1031                       motor
     0000AE18  C$motor.c$809$1_0$427              motor
     0000AE1B  A$motor$1032                       motor
     0000AE1C  A$motor$1033                       motor
     0000AE1E  A$motor$1034                       motor
     0000AE1F  A$motor$1035                       motor
     0000AE20  A$motor$1036                       motor
     0000AE21  A$motor$1037                       motor
     0000AE24  A$motor$1040                       motor
     0000AE24  C$motor.c$810$1_0$427              motor
     0000AE27  A$motor$1041                       motor
     0000AE28  A$motor$1042                       motor
     0000AE2B  A$motor$1045                       motor
     0000AE2B  C$motor.c$812$1_0$427              motor
     0000AE2E  A$motor$1046                       motor
     0000AE2F  A$motor$1047                       motor
     0000AE31  A$motor$1048                       motor
     0000AE32  A$motor$1049                       motor
     0000AE33  A$motor$1050                       motor
     0000AE34  A$motor$1051                       motor
     0000AE37  A$motor$1054                       motor
     0000AE37  C$motor.c$813$1_0$427              motor
     0000AE3A  A$motor$1055                       motor
     0000AE3B  A$motor$1056                       motor
     0000AE3E  A$motor$1059                       motor
     0000AE3E  C$motor.c$817$1_0$427              motor
     0000AE41  A$motor$1060                       motor
     0000AE44  A$motor$1061                       motor
     0000AE46  A$motor$1064                       motor
     0000AE46  C$motor.c$819$2_0$463              motor
     0000AE4A  A$motor$1065                       motor
     0000AE4B  A$motor$1066                       motor
     0000AE4C  A$motor$1067                       motor
     0000AE4F  A$motor$1068                       motor
     0000AE53  A$motor$1069                       motor
     0000AE55  A$motor$1072                       motor
ASxxxx Linker V03.00 + NoICE + sdld,  page 177.
Hexadecimal  [32-Bits]

Area                                    Addr        Size        Decimal Bytes (Attributes)
--------------------------------        ----        ----        ------- ----- ------------
CODE                                000082B4    0000592D =       22829. bytes (REL,CON)

      Value  Global                              Global Defined In Module
      -----  --------------------------------   ------------------------
     0000AE55  C$motor.c$822$3_0$464              motor
     0000AE56  A$motor$1073                       motor
     0000AE59  A$motor$1076                       motor
     0000AE59  C$motor.c$824$3_0$464              motor
     0000AE5D  A$motor$1077                       motor
     0000AE5F  A$motor$1081                       motor
     0000AE5F  C$motor.c$827$1_0$427              motor
     0000AE62  A$motor$1082                       motor
     0000AE65  A$motor$1083                       motor
     0000AE67  A$motor$1086                       motor
     0000AE67  C$motor.c$830$2_0$465              motor
     0000AE6C  A$motor$1090                       motor
     0000AE6C  C$motor.c$834$1_0$427              motor
     0000AE6F  A$motor$1091                       motor
     0000AE72  A$motor$1092                       motor
     0000AE74  A$motor$1095                       motor
     0000AE74  C$motor.c$836$2_0$466              motor
     0000AE78  A$motor$1096                       motor
     0000AE79  A$motor$1097                       motor
     0000AE7A  A$motor$1098                       motor
     0000AE7D  A$motor$1099                       motor
     0000AE81  A$motor$1100                       motor
     0000AE83  A$motor$1103                       motor
     0000AE83  C$motor.c$839$3_0$467              motor
     0000AE84  A$motor$1104                       motor
     0000AE87  A$motor$1107                       motor
     0000AE87  C$motor.c$841$3_0$467              motor
     0000AE8B  A$motor$1108                       motor
     0000AE8D  A$motor$1112                       motor
     0000AE8D  C$motor.c$844$1_0$427              motor
     0000AE90  A$motor$1113                       motor
     0000AE93  A$motor$1114                       motor
     0000AE95  A$motor$1117                       motor
     0000AE95  C$motor.c$847$2_0$468              motor
     0000AE9A  A$motor$1121                       motor
     0000AE9A  C$motor.c$854$1_0$427              motor
     0000AE9D  A$motor$1122                       motor
     0000AE9E  A$motor$1123                       motor
     0000AEA1  A$motor$1126                       motor
     0000AEA1  C$motor.c$857$1_0$427              motor
     0000AEA4  A$motor$1127                       motor
     0000AEA5  A$motor$1128                       motor
     0000AEA7  A$motor$1131                       motor
     0000AEA7  C$motor.c$859$2_0$469              motor
     0000AEAB  A$motor$1132                       motor
     0000AEAD  A$motor$1136                       motor
     0000AEAD  C$motor.c$863$2_0$470              motor
     0000AEB1  A$motor$1140                       motor
     0000AEB1  C$motor.c$867$1_0$427              motor
     0000AEB4  A$motor$1141                       motor
     0000AEB7  A$motor$1142                       motor
ASxxxx Linker V03.00 + NoICE + sdld,  page 178.
Hexadecimal  [32-Bits]

Area                                    Addr        Size        Decimal Bytes (Attributes)
--------------------------------        ----        ----        ------- ----- ------------
CODE                                000082B4    0000592D =       22829. bytes (REL,CON)

      Value  Global                              Global Defined In Module
      -----  --------------------------------   ------------------------
     0000AEB9  A$motor$1143                       motor
     0000AEBC  A$motor$1147                       motor
     0000AEBC  C$motor.c$869$2_0$471              motor
     0000AEC1  A$motor$1150                       motor
     0000AEC1  C$motor.c$872$2_0$471              motor
     0000AEC4  A$motor$1151                       motor
     0000AEC5  A$motor$1152                       motor
     0000AEC7  A$motor$1155                       motor
     0000AEC7  C$motor.c$875$3_0$472              motor
     0000AECB  A$motor$1156                       motor
     0000AECD  A$motor$1159                       motor
     0000AECD  C$motor.c$877$4_0$473              motor
     0000AED1  A$motor$1162                       motor
     0000AED1  C$motor.c$878$4_0$473              motor
     0000AED4  A$motor$1163                       motor
     0000AED7  A$motor$1164                       motor
     0000AED9  A$motor$1168                       motor
     0000AED9  C$motor.c$884$4_0$474              motor
     0000AEDC  A$motor$1169                       motor
     0000AEDF  A$motor$1170                       motor
     0000AEE1  A$motor$1173                       motor
     0000AEE1  C$motor.c$886$5_0$475              motor
     0000AEE4  A$motor$1174                       motor
     0000AEE7  A$motor$1175                       motor
     0000AEE9  A$motor$1179                       motor
     0000AEE9  C$motor.c$890$5_0$476              motor
     0000AEEC  A$motor$1180                       motor
     0000AEEF  A$motor$1183                       motor
     0000AEEF  C$motor.c$891$5_0$476              motor
     0000AEF0  A$motor$1184                       motor
     0000AEF3  A$motor$1188                       motor
     0000AEF3  C$motor.c$895$4_0$474              motor
     0000AEF6  A$motor$1189                       motor
     0000AEF8  A$motor$1192                       motor
     0000AEF8  C$motor.c$897$5_0$477              motor
     0000AEFC  A$motor$1193                       motor
     0000AEFE  A$motor$1197                       motor
     0000AEFE  C$motor.c$901$5_0$478              motor
     0000AF02  A$motor$1198                       motor
     0000AF04  A$motor$1202                       motor
     0000AF04  C$motor.c$908$3_0$479              motor
     0000AF08  A$motor$1203                       motor
     0000AF0A  A$motor$1206                       motor
     0000AF0A  C$motor.c$911$4_0$480              motor
     0000AF0D  A$motor$1207                       motor
     0000AF0F  A$motor$1210                       motor
     0000AF0F  C$motor.c$913$5_0$481              motor
     0000AF13  A$motor$1211                       motor
     0000AF15  A$motor$1215                       motor
     0000AF15  C$motor.c$917$5_0$482              motor
     0000AF19  A$motor$1219                       motor
ASxxxx Linker V03.00 + NoICE + sdld,  page 179.
Hexadecimal  [32-Bits]

Area                                    Addr        Size        Decimal Bytes (Attributes)
--------------------------------        ----        ----        ------- ----- ------------
CODE                                000082B4    0000592D =       22829. bytes (REL,CON)

      Value  Global                              Global Defined In Module
      -----  --------------------------------   ------------------------
     0000AF19  C$motor.c$948$1_0$427              motor
     0000AF1C  A$motor$1220                       motor
     0000AF1F  A$motor$1221                       motor
     0000AF21  A$motor$1224                       motor
     0000AF21  C$motor.c$950$2_0$483              motor
     0000AF24  A$motor$1225                       motor
     0000AF27  A$motor$1228                       motor
     0000AF27  C$motor.c$951$2_0$483              motor
     0000AF28  A$motor$1229                       motor
     0000AF2B  A$motor$1232                       motor
     0000AF2B  C$motor.c$952$2_0$483              motor
     0000AF2F  A$motor$1235                       motor
     0000AF2F  C$motor.c$953$2_0$483              motor
     0000AF33  A$motor$1238                       motor
     0000AF33  C$motor.c$955$2_0$483              motor
     0000AF34  A$motor$1239                       motor
     0000AF37  A$motor$1243                       motor
     0000AF37  C$motor.c$961$1_0$427              motor
     0000AF3A  A$motor$1244                       motor
     0000AF3B  A$motor$1245                       motor
     0000AF3E  A$motor$1248                       motor
     0000AF3E  C$motor.c$964$1_0$427              motor
     0000AF41  A$motor$1249                       motor
     0000AF44  A$motor$1250                       motor
     0000AF46  A$motor$1253                       motor
     0000AF46  C$motor.c$966$2_0$484              motor
     0000AF49  A$motor$1254                       motor
     0000AF4C  A$motor$1257                       motor
     0000AF4C  C$motor.c$967$2_0$484              motor
     0000AF4D  A$motor$1258                       motor
     0000AF50  A$motor$1261                       motor
     0000AF50  C$motor.c$968$2_0$484              motor
     0000AF54  A$motor$1262                       motor
     0000AF57  A$motor$1266                       motor
     0000AF57  C$motor.c$974$2_0$485              motor
     0000AF5A  A$motor$1267                       motor
     0000AF5C  A$motor$1268                       motor
     0000AF5E  A$motor$1271                       motor
     0000AF5E  C$motor.c$976$3_0$486              motor
     0000AF62  A$motor$1272                       motor
     0000AF64  A$motor$1276                       motor
     0000AF64  C$motor.c$980$3_0$487              motor
     0000AF68  A$motor$1280                       motor
     0000AF68  C$motor.c$983$2_0$485              motor
     0000AF6B  A$motor$1281                       motor
     0000AF6E  A$motor$1282                       motor
     0000AF70  A$motor$1285                       motor
     0000AF70  C$motor.c$985$3_0$488              motor
     0000AF75  A$motor$1288                       motor
     0000AF75  C$motor.c$987$3_0$488              motor
     0000AF78  A$motor$1289                       motor
ASxxxx Linker V03.00 + NoICE + sdld,  page 180.
Hexadecimal  [32-Bits]

Area                                    Addr        Size        Decimal Bytes (Attributes)
--------------------------------        ----        ----        ------- ----- ------------
CODE                                000082B4    0000592D =       22829. bytes (REL,CON)

      Value  Global                              Global Defined In Module
      -----  --------------------------------   ------------------------
     0000AF79  A$motor$1290                       motor
     0000AF7B  A$motor$1293                       motor
     0000AF7B  C$motor.c$991$4_0$489              motor
     0000AF7F  A$motor$1296                       motor
     0000AF7F  C$motor.c$993$4_0$489              motor
     0000AF82  A$motor$1297                       motor
     0000AF84  A$motor$1298                       motor
     0000AF86  A$motor$1301                       motor
     0000AF86  C$motor.c$995$5_0$490              motor
     0000AF89  A$motor$1302                       motor
     0000AF8C  A$motor$1305                       motor
     0000AF8C  C$motor.c$996$5_0$490              motor
     0000AF8D  A$motor$1306                       motor
     0000AF90  A$motor$1309                       motor
     0000AF90  C$motor.c$997$5_0$490              motor
     0000AF93  A$motor$1310                       motor
     0000AF97  A$motor$1311                       motor
     0000AF98  A$motor$1312                       motor
     0000AF9A  A$motor$1313                       motor
     0000AF9C  A$motor$1315                       motor
     0000AF9F  A$motor$1316                       motor
     0000AFA3  A$motor$1319                       motor
     0000AFA3  C$motor.c$998$5_0$490              motor
     0000AFA7  A$motor$1323                       motor
     0000AFA7  C$motor.c$1019$1_0$427             motor
     0000AFAB  A$motor$1327                       motor
     0000AFAD  A$motor$1330                       motor
     0000AFAD  C$motor.c$1021$1_0$427             motor
     0000AFAD  XG$TIM1_CAP_COM_IRQHandler$0$0     motor
     0000AFAE  A$motor$1340                       motor
     0000AFAE  C$motor.c$1026$1_0$492             motor
     0000AFAE  C$motor.c$1028$1_0$492             motor
     0000AFAE  G$motor_disable_PWM$0$0            motor
     0000AFAE  _motor_disable_PWM                 motor
     0000AFB0  A$motor$1341                       motor
     0000AFB3  A$motor$1342                       motor
     0000AFB4  A$motor$1347                       motor
     0000AFB4  C$motor.c$1029$1_0$492             motor
     0000AFB4  XG$motor_disable_PWM$0$0           motor
     0000AFB5  A$motor$1357                       motor
     0000AFB5  C$motor.c$1034$1_0$494             motor
     0000AFB5  C$motor.c$1036$1_0$494             motor
     0000AFB5  G$motor_enable_PWM$0$0             motor
     0000AFB5  _motor_enable_PWM                  motor
     0000AFB7  A$motor$1358                       motor
     0000AFBA  A$motor$1359                       motor
     0000AFBB  A$motor$1364                       motor
     0000AFBB  C$motor.c$1037$1_0$494             motor
     0000AFBB  XG$motor_enable_PWM$0$0            motor
     0000AFBC  A$motor$1374                       motor
     0000AFBC  C$motor.c$1042$1_0$496             motor
ASxxxx Linker V03.00 + NoICE + sdld,  page 181.
Hexadecimal  [32-Bits]

Area                                    Addr        Size        Decimal Bytes (Attributes)
--------------------------------        ----        ----        ------- ----- ------------
CODE                                000082B4    0000592D =       22829. bytes (REL,CON)

      Value  Global                              Global Defined In Module
      -----  --------------------------------   ------------------------
     0000AFBC  C$motor.c$1044$1_0$496             motor
     0000AFBC  G$motor_controller_set_state$0$0   motor
     0000AFBC  _motor_controller_set_state        motor
     0000AFBE  A$motor$1375                       motor
     0000AFC1  A$motor$1376                       motor
     0000AFC4  A$motor$1381                       motor
     0000AFC4  C$motor.c$1045$1_0$496             motor
     0000AFC4  XG$motor_controller_set_state$0$   motor
     0000AFC5  A$motor$1391                       motor
     0000AFC5  C$motor.c$1050$1_0$498             motor
     0000AFC5  C$motor.c$1052$1_0$498             motor
     0000AFC5  G$motor_controller_reset_state$0   motor
     0000AFC5  _motor_controller_reset_state      motor
     0000AFC7  A$motor$1392                       motor
     0000AFC8  A$motor$1393                       motor
     0000AFCB  A$motor$1394                       motor
     0000AFCE  A$motor$1399                       motor
     0000AFCE  C$motor.c$1053$1_0$498             motor
     0000AFCE  XG$motor_controller_reset_state$   motor
     0000AFCF  A$motor$1409                       motor
     0000AFCF  C$motor.c$1058$1_0$500             motor
     0000AFCF  C$motor.c$1060$1_0$500             motor
     0000AFCF  G$motor_controller_state_is_set$   motor
     0000AFCF  _motor_controller_state_is_set     motor
     0000AFD1  A$motor$1410                       motor
     0000AFD4  A$motor$1415                       motor
     0000AFD4  C$motor.c$1061$1_0$500             motor
     0000AFD4  XG$motor_controller_state_is_set   motor
     0000AFD5  A$motor$1425                       motor
     0000AFD5  C$motor.c$1066$1_0$502             motor
     0000AFD5  C$motor.c$1068$1_0$502             motor
     0000AFD5  G$hall_sensor_init$0$0             motor
     0000AFD5  _hall_sensor_init                  motor
     0000AFD7  A$motor$1426                       motor
     0000AFD9  A$motor$1427                       motor
     0000AFDB  A$motor$1428                       motor
     0000AFDD  A$motor$1429                       motor
     0000AFE0  A$motor$1430                       motor
     0000AFE2  A$motor$1433                       motor
     0000AFE2  C$motor.c$1069$1_0$502             motor
     0000AFE4  A$motor$1434                       motor
     0000AFE6  A$motor$1435                       motor
     0000AFE8  A$motor$1436                       motor
     0000AFEA  A$motor$1437                       motor
     0000AFED  A$motor$1438                       motor
     0000AFEF  A$motor$1441                       motor
     0000AFEF  C$motor.c$1070$1_0$502             motor
     0000AFF1  A$motor$1442                       motor
     0000AFF3  A$motor$1443                       motor
     0000AFF5  A$motor$1444                       motor
     0000AFF7  A$motor$1445                       motor
ASxxxx Linker V03.00 + NoICE + sdld,  page 182.
Hexadecimal  [32-Bits]

Area                                    Addr        Size        Decimal Bytes (Attributes)
--------------------------------        ----        ----        ------- ----- ------------
CODE                                000082B4    0000592D =       22829. bytes (REL,CON)

      Value  Global                              Global Defined In Module
      -----  --------------------------------   ------------------------
     0000AFFA  A$motor$1446                       motor
     0000AFFC  A$motor$1451                       motor
     0000AFFC  C$motor.c$1071$1_0$502             motor
     0000AFFC  XG$hall_sensor_init$0$0            motor
     0000AFFD  A$motor$1461                       motor
     0000AFFD  C$motor.c$1076$1_0$504             motor
     0000AFFD  C$motor.c$1078$1_0$504             motor
     0000AFFD  G$motor_init$0$0                   motor
     0000AFFD  _motor_init                        motor
     0000AFFF  A$motor$1462                       motor
     0000B001  A$motor$1463                       motor
     0000B004  A$motor$1464                       motor
     0000B006  A$motor$1467                       motor
     0000B006  C$motor.c$1079$1_0$504             motor
     0000B008  A$motor$1468                       motor
     0000B00A  A$motor$1469                       motor
     0000B00D  A$motor$1470                       motor
     0000B00F  A$motor$1473                       motor
     0000B00F  C$motor.c$1080$1_0$504             motor
     0000B011  A$motor$1474                       motor
     0000B014  A$motor$1475                       motor
     0000B015  A$motor$1480                       motor
     0000B015  C$motor.c$1081$1_0$504             motor
     0000B015  XG$motor_init$0$0                  motor
     0000B016  A$motor$1490                       motor
     0000B016  C$motor.c$1086$1_0$506             motor
     0000B016  C$motor.c$1088$1_0$506             motor
     0000B016  G$motor_set_pwm_duty_cycle_targe   motor
     0000B016  _motor_set_pwm_duty_cycle_target   motor
     0000B018  A$motor$1491                       motor
     0000B01A  A$motor$1492                       motor
     0000B01C  A$motor$1493                       motor
     0000B01E  A$motor$1494                       motor
     0000B020  A$motor$1498                       motor
     0000B020  C$motor.c$1091$1_0$506             motor
     0000B023  A$motor$1499                       motor
     0000B025  A$motor$1500                       motor
     0000B027  A$motor$1501                       motor
     0000B029  A$motor$1505                       motor
     0000B029  C$motor.c$1093$1_0$506             motor
     0000B02B  A$motor$1506                       motor
     0000B02E  A$motor$1511                       motor
     0000B02E  C$motor.c$1094$1_0$506             motor
     0000B02E  XG$motor_set_pwm_duty_cycle_targ   motor
     0000B02F  A$motor$1521                       motor
     0000B02F  C$motor.c$1099$1_0$510             motor
     0000B02F  C$motor.c$1101$1_0$510             motor
     0000B02F  G$motor_set_pwm_duty_cycle_ramp_   motor
     0000B02F  _motor_set_pwm_duty_cycle_ramp_u   motor
     0000B031  A$motor$1522                       motor
     0000B034  A$motor$1527                       motor
ASxxxx Linker V03.00 + NoICE + sdld,  page 183.
Hexadecimal  [32-Bits]

Area                                    Addr        Size        Decimal Bytes (Attributes)
--------------------------------        ----        ----        ------- ----- ------------
CODE                                000082B4    0000592D =       22829. bytes (REL,CON)

      Value  Global                              Global Defined In Module
      -----  --------------------------------   ------------------------
     0000B034  C$motor.c$1102$1_0$510             motor
     0000B034  XG$motor_set_pwm_duty_cycle_ramp   motor
     0000B035  A$motor$1537                       motor
     0000B035  C$motor.c$1107$1_0$512             motor
     0000B035  C$motor.c$1109$1_0$512             motor
     0000B035  G$motor_set_pwm_duty_cycle_ramp_   motor
     0000B035  _motor_set_pwm_duty_cycle_ramp_d   motor
     0000B037  A$motor$1538                       motor
     0000B03A  A$motor$1543                       motor
     0000B03A  C$motor.c$1110$1_0$512             motor
     0000B03A  XG$motor_set_pwm_duty_cycle_ramp   motor
     0000B03B  A$motor$1553                       motor
     0000B03B  C$motor.c$1115$1_0$514             motor
     0000B03B  C$motor.c$1117$1_0$514             motor
     0000B03B  G$motor_set_phase_current_max$0$   motor
     0000B03B  _motor_set_phase_current_max       motor
     0000B03E  A$motor$1554                       motor
     0000B040  A$motor$1555                       motor
     0000B043  A$motor$1560                       motor
     0000B043  C$motor.c$1118$1_0$514             motor
     0000B043  XG$motor_set_phase_current_max$0   motor
     0000B044  A$motor$1570                       motor
     0000B044  C$motor.c$1123$1_0$516             motor
     0000B044  C$motor.c$1125$1_0$516             motor
     0000B044  G$ui16_motor_get_motor_speed_erp   motor
     0000B044  _ui16_motor_get_motor_speed_erps   motor
     0000B047  A$motor$1575                       motor
     0000B047  C$motor.c$1126$1_0$516             motor
     0000B047  XG$ui16_motor_get_motor_speed_er   motor
     0000B048  A$motor$1585                       motor
     0000B048  C$motor.c$1131$1_0$518             motor
     0000B048  C$motor.c$1134$1_0$518             motor
     0000B048  G$read_battery_voltage$0$0         motor
     0000B048  _read_battery_voltage              motor
     0000B04B  A$motor$1586                       motor
     0000B04C  A$motor$1587                       motor
     0000B04D  A$motor$1588                       motor
     0000B04E  A$motor$1589                       motor
     0000B052  A$motor$1590                       motor
     0000B055  A$motor$1593                       motor
     0000B055  C$motor.c$1135$1_0$518             motor
     0000B058  A$motor$1594                       motor
     0000B05C  A$motor$1595                       motor
     0000B05F  A$motor$1598                       motor
     0000B05F  C$motor.c$1136$1_0$518             motor
     0000B062  A$motor$1599                       motor
     0000B063  A$motor$1600                       motor
     0000B064  A$motor$1601                       motor
     0000B067  A$motor$1606                       motor
     0000B067  C$motor.c$1137$1_0$518             motor
     0000B067  XG$read_battery_voltage$0$0        motor
ASxxxx Linker V03.00 + NoICE + sdld,  page 184.
Hexadecimal  [32-Bits]

Area                                    Addr        Size        Decimal Bytes (Attributes)
--------------------------------        ----        ----        ------- ----- ------------
CODE                                000082B4    0000592D =       22829. bytes (REL,CON)

      Value  Global                              Global Defined In Module
      -----  --------------------------------   ------------------------
     0000B068  A$motor$1616                       motor
     0000B068  C$motor.c$1142$1_0$520             motor
     0000B068  C$motor.c$1145$1_0$520             motor
     0000B068  G$read_battery_current$0$0         motor
     0000B068  _read_battery_current              motor
     0000B06B  A$motor$1617                       motor
     0000B06C  A$motor$1618                       motor
     0000B06D  A$motor$1619                       motor
     0000B06E  A$motor$1620                       motor
     0000B072  A$motor$1621                       motor
     0000B075  A$motor$1624                       motor
     0000B075  C$motor.c$1146$1_0$520             motor
     0000B078  A$motor$1625                       motor
     0000B07C  A$motor$1626                       motor
     0000B07F  A$motor$1629                       motor
     0000B07F  C$motor.c$1147$1_0$520             motor
     0000B082  A$motor$1630                       motor
     0000B083  A$motor$1631                       motor
     0000B084  A$motor$1632                       motor
     0000B085  A$motor$1633                       motor
     0000B088  A$motor$1638                       motor
     0000B088  C$motor.c$1148$1_0$520             motor
     0000B088  XG$read_battery_current$0$0        motor
     0000B089  A$motor$1646                       motor
     0000B089  C$motor.c$1153$1_0$522             motor
     0000B089  G$calc_foc_angle$0$0               motor
     0000B089  _calc_foc_angle                    motor
     0000B08B  A$motor$1649                       motor
     0000B08B  C$motor.c$1164$1_0$522             motor
     0000B08E  A$motor$1650                       motor
     0000B090  A$motor$1653                       motor
     0000B090  C$motor.c$1174$1_0$522             motor
     0000B093  A$motor$1654                       motor
     0000B096  A$motor$1655                       motor
     0000B098  A$motor$1656                       motor
     0000B09A  A$motor$1657                       motor
     0000B09D  A$motor$1658                       motor
     0000B09F  A$motor$1659                       motor
     0000B0A0  A$motor$1662                       motor
     0000B0A0  C$motor.c$1175$1_0$522             motor
     0000B0A1  A$motor$1663                       motor
     0000B0A2  A$motor$1664                       motor
     0000B0A5  A$motor$1665                       motor
     0000B0A7  A$motor$1666                       motor
     0000B0A9  A$motor$1667                       motor
     0000B0AB  A$motor$1668                       motor
     0000B0AD  A$motor$1669                       motor
     0000B0AE  A$motor$1670                       motor
     0000B0B1  A$motor$1671                       motor
     0000B0B3  A$motor$1672                       motor
     0000B0B4  A$motor$1675                       motor
ASxxxx Linker V03.00 + NoICE + sdld,  page 185.
Hexadecimal  [32-Bits]

Area                                    Addr        Size        Decimal Bytes (Attributes)
--------------------------------        ----        ----        ------- ----- ------------
CODE                                000082B4    0000592D =       22829. bytes (REL,CON)

      Value  Global                              Global Defined In Module
      -----  --------------------------------   ------------------------
     0000B0B4  C$motor.c$1176$1_0$522             motor
     0000B0B5  A$motor$1676                       motor
     0000B0B6  A$motor$1677                       motor
     0000B0B7  A$motor$1678                       motor
     0000B0B9  A$motor$1681                       motor
     0000B0B9  C$motor.c$1179$1_0$522             motor
     0000B0BC  A$motor$1682                       motor
     0000B0BE  A$motor$1683                       motor
     0000B0C0  A$motor$1686                       motor
     0000B0C0  C$motor.c$1181$2_0$523             motor
     0000B0C1  A$motor$1687                       motor
     0000B0C4  A$motor$1688                       motor
     0000B0C5  A$motor$1689                       motor
     0000B0C6  A$motor$1690                       motor
     0000B0C8  A$motor$1691                       motor
     0000B0CA  A$motor$1692                       motor
     0000B0CD  A$motor$1693                       motor
     0000B0CF  A$motor$1696                       motor
     0000B0CF  C$motor.c$1182$2_0$523             motor
     0000B0D1  A$motor$1697                       motor
     0000B0D4  A$motor$1698                       motor
     0000B0D6  A$motor$1699                       motor
     0000B0D7  A$motor$1700                       motor
     0000B0D9  A$motor$1701                       motor
     0000B0DB  A$motor$1702                       motor
     0000B0DD  A$motor$1705                       motor
     0000B0DD  C$motor.c$1185$2_0$523             motor
     0000B0DF  A$motor$1706                       motor
     0000B0E2  A$motor$1707                       motor
     0000B0E3  A$motor$1708                       motor
     0000B0E5  A$motor$1709                       motor
     0000B0E6  A$motor$1710                       motor
     0000B0E8  A$motor$1714                       motor
     0000B0E8  C$motor.c$1190$2_0$524             motor
     0000B0E9  A$motor$1715                       motor
     0000B0EB  A$motor$1716                       motor
     0000B0ED  A$motor$1719                       motor
     0000B0ED  C$motor.c$1193$2_0$524             motor
     0000B0EF  A$motor$1720                       motor
     0000B0F2  A$motor$1721                       motor
     0000B0F3  A$motor$1722                       motor
     0000B0F5  A$motor$1723                       motor
     0000B0F6  A$motor$1727                       motor
     0000B0F6  C$motor.c$1198$1_0$522             motor
     0000B0F9  A$motor$1728                       motor
     0000B0FC  A$motor$1729                       motor
     0000B0FE  A$motor$1730                       motor
     0000B100  A$motor$1731                       motor
     0000B103  A$motor$1732                       motor
     0000B105  A$motor$1733                       motor
     0000B107  A$motor$1734                       motor
ASxxxx Linker V03.00 + NoICE + sdld,  page 186.
Hexadecimal  [32-Bits]

Area                                    Addr        Size        Decimal Bytes (Attributes)
--------------------------------        ----        ----        ------- ----- ------------
CODE                                000082B4    0000592D =       22829. bytes (REL,CON)

      Value  Global                              Global Defined In Module
      -----  --------------------------------   ------------------------
     0000B109  A$motor$1735                       motor
     0000B10B  A$motor$1738                       motor
     0000B10B  C$motor.c$1219$1_0$522             motor
     0000B10D  A$motor$1739                       motor
     0000B10F  A$motor$1740                       motor
     0000B111  A$motor$1741                       motor
     0000B113  A$motor$1742                       motor
     0000B115  A$motor$1743                       motor
     0000B117  A$motor$1744                       motor
     0000B119  A$motor$1745                       motor
     0000B11B  A$motor$1746                       motor
     0000B11D  A$motor$1747                       motor
     0000B11F  A$motor$1748                       motor
     0000B122  A$motor$1754                       motor
     0000B122  C$motor.c$1221$2_0$525             motor
     0000B122  C$motor.c$1222$2_0$525             motor
     0000B125  A$motor$1755                       motor
     0000B127  A$motor$1756                       motor
     0000B128  A$motor$1757                       motor
     0000B12A  A$motor$1760                       motor
     0000B12A  C$motor.c$1223$2_0$525             motor
     0000B12D  A$motor$1761                       motor
     0000B130  A$motor$1764                       motor
     0000B130  C$motor.c$1224$2_0$525             motor
     0000B133  A$motor$1770                       motor
     0000B133  C$motor.c$1226$2_0$525             motor
     0000B133  C$motor.c$1227$2_0$525             motor
     0000B136  A$motor$1771                       motor
     0000B138  A$motor$1772                       motor
     0000B139  A$motor$1773                       motor
     0000B13B  A$motor$1776                       motor
     0000B13B  C$motor.c$1228$2_0$525             motor
     0000B13E  A$motor$1777                       motor
     0000B141  A$motor$1780                       motor
     0000B141  C$motor.c$1229$2_0$525             motor
     0000B143  A$motor$1786                       motor
     0000B143  C$motor.c$1231$2_0$525             motor
     0000B143  C$motor.c$1232$2_0$525             motor
     0000B146  A$motor$1787                       motor
     0000B148  A$motor$1788                       motor
     0000B149  A$motor$1789                       motor
     0000B14B  A$motor$1792                       motor
     0000B14B  C$motor.c$1233$2_0$525             motor
     0000B14E  A$motor$1793                       motor
     0000B151  A$motor$1796                       motor
     0000B151  C$motor.c$1234$2_0$525             motor
     0000B153  A$motor$1802                       motor
     0000B153  C$motor.c$1236$2_0$525             motor
     0000B153  C$motor.c$1237$2_0$525             motor
     0000B156  A$motor$1803                       motor
     0000B158  A$motor$1804                       motor
ASxxxx Linker V03.00 + NoICE + sdld,  page 187.
Hexadecimal  [32-Bits]

Area                                    Addr        Size        Decimal Bytes (Attributes)
--------------------------------        ----        ----        ------- ----- ------------
CODE                                000082B4    0000592D =       22829. bytes (REL,CON)

      Value  Global                              Global Defined In Module
      -----  --------------------------------   ------------------------
     0000B159  A$motor$1805                       motor
     0000B15B  A$motor$1808                       motor
     0000B15B  C$motor.c$1238$2_0$525             motor
     0000B15E  A$motor$1809                       motor
     0000B161  A$motor$1812                       motor
     0000B161  C$motor.c$1239$2_0$525             motor
     0000B163  A$motor$1818                       motor
     0000B163  C$motor.c$1241$2_0$525             motor
     0000B163  C$motor.c$1242$2_0$525             motor
     0000B166  A$motor$1819                       motor
     0000B168  A$motor$1820                       motor
     0000B169  A$motor$1821                       motor
     0000B16B  A$motor$1824                       motor
     0000B16B  C$motor.c$1243$2_0$525             motor
     0000B16E  A$motor$1825                       motor
     0000B171  A$motor$1831                       motor
     0000B171  C$motor.c$1245$1_0$522             motor
     0000B171  C$motor.c$1248$1_0$522             motor
     0000B173  A$motor$1832                       motor
     0000B174  A$motor$1833                       motor
     0000B176  A$motor$1834                       motor
     0000B177  A$motor$1835                       motor
     0000B179  A$motor$1836                       motor
     0000B17A  A$motor$1837                       motor
     0000B17C  A$motor$1838                       motor
     0000B17D  A$motor$1839                       motor
     0000B180  A$motor$1840                       motor
     0000B182  A$motor$1841                       motor
     0000B184  A$motor$1844                       motor
     0000B184  C$motor.c$1249$1_0$522             motor
     0000B186  A$motor$1845                       motor
     0000B187  A$motor$1846                       motor
     0000B189  A$motor$1847                       motor
     0000B18A  A$motor$1848                       motor
     0000B18C  A$motor$1849                       motor
     0000B18D  A$motor$1850                       motor
     0000B18F  A$motor$1851                       motor
     0000B192  A$motor$1852                       motor
     0000B194  A$motor$1853                       motor
     0000B195  A$motor$1856                       motor
     0000B195  C$motor.c$1250$1_0$522             motor
     0000B196  A$motor$1857                       motor
     0000B197  A$motor$1860                       motor
     0000B197  C$motor.c$1253$1_0$522             motor
     0000B199  A$motor$1861                       motor
     0000B19A  A$motor$1862                       motor
     0000B19B  A$motor$1863                       motor
     0000B19C  A$motor$1864                       motor
     0000B19F  A$motor$1865                       motor
     0000B1A1  A$motor$1866                       motor
     0000B1A4  A$motor$1869                       motor
ASxxxx Linker V03.00 + NoICE + sdld,  page 188.
Hexadecimal  [32-Bits]

Area                                    Addr        Size        Decimal Bytes (Attributes)
--------------------------------        ----        ----        ------- ----- ------------
CODE                                000082B4    0000592D =       22829. bytes (REL,CON)

      Value  Global                              Global Defined In Module
      -----  --------------------------------   ------------------------
     0000B1A4  C$motor.c$1256$1_0$522             motor
     0000B1A7  A$motor$1870                       motor
     0000B1A9  A$motor$1871                       motor
     0000B1AA  A$motor$1872                       motor
     0000B1AB  A$motor$1873                       motor
     0000B1AF  A$motor$1874                       motor
     0000B1B2  A$motor$1877                       motor
     0000B1B2  C$motor.c$1257$1_0$522             motor
     0000B1B3  A$motor$1878                       motor
     0000B1B6  A$motor$1879                       motor
     0000B1B7  A$motor$1880                       motor
     0000B1BB  A$motor$1881                       motor
     0000B1BE  A$motor$1884                       motor
     0000B1BE  C$motor.c$1258$1_0$522             motor
     0000B1C1  A$motor$1885                       motor
     0000B1C3  A$motor$1886                       motor
     0000B1C4  A$motor$1887                       motor
     0000B1C5  A$motor$1888                       motor
     0000B1C8  A$motor$1891                       motor
     0000B1CA  A$motor$1894                       motor
     0000B1CA  C$motor.c$1259$1_0$522             motor
     0000B1CA  XG$calc_foc_angle$0$0              motor
     0000B1CB  A$motor$1902                       motor
     0000B1CB  C$motor.c$1264$1_0$527             motor
     0000B1CB  G$asin_table$0$0                   motor
     0000B1CB  _asin_table                        motor
     0000B1CC  A$motor$1905                       motor
     0000B1CC  C$motor.c$1268$2_0$528             motor
     0000B1CE  A$motor$1907                       motor
     0000B1D0  A$motor$1908                       motor
     0000B1D2  A$motor$1909                       motor
     0000B1D4  A$motor$1912                       motor
     0000B1D4  C$motor.c$1270$2_0$528             motor
     0000B1D5  A$motor$1913                       motor
     0000B1D7  A$motor$1914                       motor
     0000B1D8  A$motor$1915                       motor
     0000B1DB  A$motor$1916                       motor
     0000B1DC  A$motor$1917                       motor
     0000B1DE  A$motor$1918                       motor
     0000B1E0  A$motor$1921                       motor
     0000B1E0  C$motor.c$1275$2_0$528             motor
     0000B1E2  A$motor$1922                       motor
     0000B1E4  A$motor$1926                       motor
     0000B1E4  C$motor.c$1279$1_0$527             motor
     0000B1E6  A$motor$1929                       motor
     0000B1E8  A$motor$1932                       motor
     0000B1E8  C$motor.c$1280$1_0$527             motor
     0000B1E8  XG$asin_table$0$0                  motor
     0000B1E9  A$motor$1942                       motor
     0000B1E9  C$motor.c$1285$1_0$531             motor
     0000B1E9  C$motor.c$1287$1_0$531             motor
ASxxxx Linker V03.00 + NoICE + sdld,  page 189.
Hexadecimal  [32-Bits]

Area                                    Addr        Size        Decimal Bytes (Attributes)
--------------------------------        ----        ----        ------- ----- ------------
CODE                                000082B4    0000592D =       22829. bytes (REL,CON)

      Value  Global                              Global Defined In Module
      -----  --------------------------------   ------------------------
     0000B1E9  G$motor_get_adc_battery_current_   motor
     0000B1E9  _motor_get_adc_battery_current_f   motor
     0000B1EC  A$motor$1947                       motor
     0000B1EC  C$motor.c$1288$1_0$531             motor
     0000B1EC  XG$motor_get_adc_battery_current   motor
     0000B1ED  A$motor$1957                       motor
     0000B1ED  C$motor.c$1293$1_0$533             motor
     0000B1ED  C$motor.c$1295$1_0$533             motor
     0000B1ED  G$motor_get_adc_battery_voltage_   motor
     0000B1ED  _motor_get_adc_battery_voltage_f   motor
     0000B1F0  A$motor$1962                       motor
     0000B1F0  C$motor.c$1296$1_0$533             motor
     0000B1F0  XG$motor_get_adc_battery_voltage   motor
     0000B1F1  A$motor$1972                       motor
     0000B1F1  C$motor.c$1301$1_0$535             motor
     0000B1F1  C$motor.c$1303$1_0$535             motor
     0000B1F1  G$motor_set_adc_battery_voltage_   motor
     0000B1F1  _motor_set_adc_battery_voltage_c   motor
     0000B1F3  A$motor$1973                       motor
     0000B1F6  A$motor$1978                       motor
     0000B1F6  C$motor.c$1304$1_0$535             motor
     0000B1F6  XG$motor_set_adc_battery_voltage   motor
     0000B1F7  A$wheel_speed_sensor$59            wheel_speed_sensor
     0000B1F7  C$wheel_speed_sensor.c$13$0_0$34   wheel_speed_sensor
     0000B1F7  C$wheel_speed_sensor.c$16$1_0$34   wheel_speed_sensor
     0000B1F7  G$wheel_speed_sensor_init$0$0      wheel_speed_sensor
     0000B1F7  _wheel_speed_sensor_init           wheel_speed_sensor
     0000B1F9  A$wheel_speed_sensor$60            wheel_speed_sensor
     0000B1FB  A$wheel_speed_sensor$61            wheel_speed_sensor
     0000B1FD  A$wheel_speed_sensor$62            wheel_speed_sensor
     0000B1FF  A$wheel_speed_sensor$63            wheel_speed_sensor
     0000B202  A$wheel_speed_sensor$64            wheel_speed_sensor
     0000B204  A$wheel_speed_sensor$69            wheel_speed_sensor
     0000B204  C$wheel_speed_sensor.c$19$1_0$34   wheel_speed_sensor
     0000B204  XG$wheel_speed_sensor_init$0$0     wheel_speed_sensor
     0000B205  A$brake$63                         brake
     0000B205  C$brake.c$21$0_0$386               brake
     0000B205  G$EXTI_PORTC_IRQHandler$0$0        brake
     0000B205  _EXTI_PORTC_IRQHandler             brake
     0000B206  A$brake$64                         brake
     0000B207  A$brake$67                         brake
     0000B207  C$brake.c$23$1_0$386               brake
     0000B20A  A$brake$68                         brake
     0000B20B  A$brake$69                         brake
     0000B20D  A$brake$72                         brake
     0000B20D  C$brake.c$25$2_0$387               brake
     0000B20F  A$brake$73                         brake
     0000B212  A$brake$74                         brake
     0000B213  A$brake$75                         brake
     0000B215  A$brake$79                         brake
     0000B215  C$brake.c$29$2_0$388               brake
ASxxxx Linker V03.00 + NoICE + sdld,  page 190.
Hexadecimal  [32-Bits]

Area                                    Addr        Size        Decimal Bytes (Attributes)
--------------------------------        ----        ----        ------- ----- ------------
CODE                                000082B4    0000592D =       22829. bytes (REL,CON)

      Value  Global                              Global Defined In Module
      -----  --------------------------------   ------------------------
     0000B217  A$brake$80                         brake
     0000B21A  A$brake$81                         brake
     0000B21B  A$brake$87                         brake
     0000B21B  C$brake.c$31$1_0$386               brake
     0000B21B  XG$EXTI_PORTC_IRQHandler$0$0       brake
     0000B21C  A$brake$97                         brake
     0000B21C  C$brake.c$36$1_0$390               brake
     0000B21C  C$brake.c$45$1_0$390               brake
     0000B21C  G$brake_init$0$0                   brake
     0000B21C  _brake_init                        brake
     0000B21E  A$brake$98                         brake
     0000B220  A$brake$99                         brake
     0000B222  A$brake$100                        brake
     0000B224  A$brake$101                        brake
     0000B227  A$brake$102                        brake
     0000B229  A$brake$105                        brake
     0000B229  C$brake.c$51$1_0$390               brake
     0000B22B  A$brake$106                        brake
     0000B22D  A$brake$107                        brake
     0000B230  A$brake$108                        brake
     0000B232  A$brake$113                        brake
     0000B232  C$brake.c$53$1_0$390               brake
     0000B232  XG$brake_init$0$0                  brake
     0000B233  A$brake$123                        brake
     0000B233  C$brake.c$58$1_0$392               brake
     0000B233  C$brake.c$60$1_0$392               brake
     0000B233  G$brake_is_set$0$0                 brake
     0000B233  _brake_is_set                      brake
     0000B235  A$brake$124                        brake
     0000B237  A$brake$125                        brake
     0000B239  A$brake$126                        brake
     0000B23C  A$brake$127                        brake
     0000B23E  A$brake$128                        brake
     0000B23F  A$brake$129                        brake
     0000B241  A$brake$132                        brake
     0000B241  C$brake.c$61$1_0$392               brake
     0000B243  A$brake$133                        brake
     0000B245  A$brake$137                        brake
     0000B245  C$brake.c$63$1_0$392               brake
     0000B246  A$brake$143                        brake
     0000B246  C$brake.c$64$1_0$392               brake
     0000B246  XG$brake_is_set$0$0                brake
     0000B247  A$pas$59                           pas
     0000B247  C$pas.c$16$0_0$346                 pas
     0000B247  C$pas.c$19$1_0$346                 pas
     0000B247  G$pas_init$0$0                     pas
     0000B247  _pas_init                          pas
     0000B249  A$pas$60                           pas
     0000B24B  A$pas$61                           pas
     0000B24D  A$pas$62                           pas
     0000B24F  A$pas$63                           pas
ASxxxx Linker V03.00 + NoICE + sdld,  page 191.
Hexadecimal  [32-Bits]

Area                                    Addr        Size        Decimal Bytes (Attributes)
--------------------------------        ----        ----        ------- ----- ------------
CODE                                000082B4    0000592D =       22829. bytes (REL,CON)

      Value  Global                              Global Defined In Module
      -----  --------------------------------   ------------------------
     0000B252  A$pas$64                           pas
     0000B254  A$pas$67                           pas
     0000B254  C$pas.c$24$1_0$346                 pas
     0000B256  A$pas$68                           pas
     0000B258  A$pas$69                           pas
     0000B25A  A$pas$70                           pas
     0000B25C  A$pas$71                           pas
     0000B25F  A$pas$72                           pas
     0000B261  A$pas$77                           pas
     0000B261  C$pas.c$27$1_0$346                 pas
     0000B261  XG$pas_init$0$0                    pas
     0000B262  A$adc$66                           adc
     0000B262  C$adc.c$24$0_0$382                 adc
     0000B262  G$adc_init$0$0                     adc
     0000B262  _adc_init                          adc
     0000B264  A$adc$69                           adc
     0000B264  C$adc.c$32$1_0$382                 adc
     0000B266  A$adc$70                           adc
     0000B268  A$adc$71                           adc
     0000B26A  A$adc$72                           adc
     0000B26C  A$adc$73                           adc
     0000B26F  A$adc$74                           adc
     0000B271  A$adc$77                           adc
     0000B271  C$adc.c$37$1_0$382                 adc
     0000B273  A$adc$78                           adc
     0000B275  A$adc$79                           adc
     0000B277  A$adc$80                           adc
     0000B279  A$adc$81                           adc
     0000B27B  A$adc$82                           adc
     0000B27D  A$adc$83                           adc
     0000B27F  A$adc$84                           adc
     0000B281  A$adc$85                           adc
     0000B284  A$adc$86                           adc
     0000B286  A$adc$89                           adc
     0000B286  C$adc.c$46$1_0$382                 adc
     0000B288  A$adc$90                           adc
     0000B28B  A$adc$91                           adc
     0000B28C  A$adc$94                           adc
     0000B28C  C$adc.c$47$1_0$382                 adc
     0000B28E  A$adc$95                           adc
     0000B291  A$adc$96                           adc
     0000B292  A$adc$99                           adc
     0000B292  C$adc.c$53$1_0$382                 adc
     0000B294  A$adc$103                          adc
     0000B294  C$adc.c$55$3_0$384                 adc
     0000B297  A$adc$104                          adc
     0000B29A  A$adc$105                          adc
     0000B29C  A$adc$109                          adc
     0000B29C  C$adc.c$56$3_0$384                 adc
     0000B29F  A$adc$110                          adc
     0000B2A1  A$adc$111                          adc
ASxxxx Linker V03.00 + NoICE + sdld,  page 192.
Hexadecimal  [32-Bits]

Area                                    Addr        Size        Decimal Bytes (Attributes)
--------------------------------        ----        ----        ------- ----- ------------
CODE                                000082B4    0000592D =       22829. bytes (REL,CON)

      Value  Global                              Global Defined In Module
      -----  --------------------------------   ------------------------
     0000B2A3  A$adc$114                          adc
     0000B2A3  C$adc.c$57$3_0$384                 adc
     0000B2A6  A$adc$118                          adc
     0000B2A6  C$adc.c$58$3_0$384                 adc
     0000B2A8  A$adc$119                          adc
     0000B2AB  A$adc$120                          adc
     0000B2AD  A$adc$121                          adc
     0000B2AE  A$adc$122                          adc
     0000B2B0  A$adc$125                          adc
     0000B2B0  C$adc.c$53$2_0$383                 adc
     0000B2B2  A$adc$126                          adc
     0000B2B4  A$adc$127                          adc
     0000B2B6  A$adc$128                          adc
     0000B2B8  A$adc$131                          adc
     0000B2B8  C$adc.c$62$1_0$382                 adc
     0000B2B9  A$adc$132                          adc
     0000B2BB  A$adc$135                          adc
     0000B2BB  C$adc.c$63$1_0$382                 adc
     0000B2BD  A$adc$139                          adc
     0000B2BD  C$adc.c$65$3_0$386                 adc
     0000B2C0  A$adc$140                          adc
     0000B2C3  A$adc$141                          adc
     0000B2C5  A$adc$145                          adc
     0000B2C5  C$adc.c$66$3_0$386                 adc
     0000B2C8  A$adc$146                          adc
     0000B2CA  A$adc$147                          adc
     0000B2CC  A$adc$150                          adc
     0000B2CC  C$adc.c$67$3_0$386                 adc
     0000B2CF  A$adc$154                          adc
     0000B2CF  C$adc.c$68$3_0$386                 adc
     0000B2D1  A$adc$155                          adc
     0000B2D4  A$adc$156                          adc
     0000B2D6  A$adc$157                          adc
     0000B2D7  A$adc$158                          adc
     0000B2D9  A$adc$161                          adc
     0000B2D9  C$adc.c$69$3_0$386                 adc
     0000B2DC  A$adc$162                          adc
     0000B2DD  A$adc$163                          adc
     0000B2DE  A$adc$164                          adc
     0000B2E1  A$adc$165                          adc
     0000B2E3  A$adc$168                          adc
     0000B2E3  C$adc.c$63$2_0$385                 adc
     0000B2E5  A$adc$169                          adc
     0000B2E7  A$adc$170                          adc
     0000B2E9  A$adc$171                          adc
     0000B2EB  A$adc$174                          adc
     0000B2EB  C$adc.c$71$1_0$382                 adc
     0000B2ED  A$adc$175                          adc
     0000B2EF  A$adc$176                          adc
     0000B2F0  A$adc$179                          adc
     0000B2F0  C$adc.c$72$1_0$382                 adc
ASxxxx Linker V03.00 + NoICE + sdld,  page 193.
Hexadecimal  [32-Bits]

Area                                    Addr        Size        Decimal Bytes (Attributes)
--------------------------------        ----        ----        ------- ----- ------------
CODE                                000082B4    0000592D =       22829. bytes (REL,CON)

      Value  Global                              Global Defined In Module
      -----  --------------------------------   ------------------------
     0000B2F1  A$adc$180                          adc
     0000B2F2  A$adc$181                          adc
     0000B2F3  A$adc$182                          adc
     0000B2F6  A$adc$185                          adc
     0000B2F6  C$adc.c$73$1_0$382                 adc
     0000B2FB  A$adc$188                          adc
     0000B2FB  C$adc.c$76$1_0$382                 adc
     0000B2FC  A$adc$189                          adc
     0000B2FE  A$adc$192                          adc
     0000B2FE  C$adc.c$77$1_0$382                 adc
     0000B300  A$adc$196                          adc
     0000B300  C$adc.c$79$3_0$388                 adc
     0000B303  A$adc$197                          adc
     0000B306  A$adc$198                          adc
     0000B308  A$adc$202                          adc
     0000B308  C$adc.c$80$3_0$388                 adc
     0000B30B  A$adc$203                          adc
     0000B30D  A$adc$204                          adc
     0000B30F  A$adc$207                          adc
     0000B30F  C$adc.c$81$3_0$388                 adc
     0000B312  A$adc$211                          adc
     0000B312  C$adc.c$82$3_0$388                 adc
     0000B314  A$adc$212                          adc
     0000B317  A$adc$213                          adc
     0000B319  A$adc$214                          adc
     0000B31A  A$adc$215                          adc
     0000B31C  A$adc$218                          adc
     0000B31C  C$adc.c$83$3_0$388                 adc
     0000B31F  A$adc$219                          adc
     0000B320  A$adc$220                          adc
     0000B321  A$adc$221                          adc
     0000B324  A$adc$222                          adc
     0000B326  A$adc$225                          adc
     0000B326  C$adc.c$77$2_0$387                 adc
     0000B328  A$adc$226                          adc
     0000B32A  A$adc$227                          adc
     0000B32C  A$adc$228                          adc
     0000B32E  A$adc$231                          adc
     0000B32E  C$adc.c$85$1_0$382                 adc
     0000B330  A$adc$232                          adc
     0000B332  A$adc$233                          adc
     0000B333  A$adc$234                          adc
     0000B334  A$adc$237                          adc
     0000B334  C$adc.c$87$1_0$382                 adc
     0000B336  A$adc$238                          adc
     0000B339  A$adc$241                          adc
     0000B339  C$adc.c$88$1_0$382                 adc
     0000B33D  A$adc$244                          adc
     0000B33F  A$adc$247                          adc
     0000B33F  C$adc.c$89$1_0$382                 adc
     0000B33F  XG$adc_init$0$0                    adc
ASxxxx Linker V03.00 + NoICE + sdld,  page 194.
Hexadecimal  [32-Bits]

Area                                    Addr        Size        Decimal Bytes (Attributes)
--------------------------------        ----        ----        ------- ----- ------------
CODE                                000082B4    0000592D =       22829. bytes (REL,CON)

      Value  Global                              Global Defined In Module
      -----  --------------------------------   ------------------------
     0000B340  A$adc$257                          adc
     0000B340  C$adc.c$94$1_0$390                 adc
     0000B340  C$adc.c$97$1_0$390                 adc
     0000B340  Fadc$adc_trigger$0$0               adc
     0000B343  A$adc$258                          adc
     0000B345  A$adc$259                          adc
     0000B348  A$adc$262                          adc
     0000B348  C$adc.c$98$1_0$390                 adc
     0000B34C  A$adc$267                          adc
     0000B34C  C$adc.c$99$1_0$390                 adc
     0000B34C  XFadc$adc_trigger$0$0              adc
     0000B34D  A$adc$275                          adc
     0000B34D  C$adc.c$104$1_0$392                adc
     0000B34D  G$ui16_adc_read_battery_current_   adc
     0000B34D  _ui16_adc_read_battery_current_1   adc
     0000B34F  A$adc$278                          adc
     0000B34F  C$adc.c$109$1_0$392                adc
     0000B352  A$adc$279                          adc
     0000B354  A$adc$282                          adc
     0000B354  C$adc.c$110$1_0$392                adc
     0000B357  A$adc$283                          adc
     0000B358  A$adc$284                          adc
     0000B359  A$adc$287                          adc
     0000B359  C$adc.c$112$1_0$392                adc
     0000B35A  A$adc$288                          adc
     0000B35B  A$adc$289                          adc
     0000B35C  A$adc$290                          adc
     0000B35E  A$adc$291                          adc
     0000B35F  A$adc$292                          adc
     0000B361  A$adc$293                          adc
     0000B362  A$adc$294                          adc
     0000B364  A$adc$295                          adc
     0000B365  A$adc$296                          adc
     0000B367  A$adc$297                          adc
     0000B368  A$adc$298                          adc
     0000B36A  A$adc$301                          adc
     0000B36A  C$adc.c$119$1_0$392                adc
     0000B36C  A$adc$302                          adc
     0000B36F  A$adc$303                          adc
     0000B371  A$adc$306                          adc
     0000B371  C$adc.c$120$1_0$392                adc
     0000B372  A$adc$307                          adc
     0000B374  A$adc$311                          adc
     0000B374  C$adc.c$121$1_0$392                adc
     0000B376  A$adc$312                          adc
     0000B379  A$adc$313                          adc
     0000B37B  A$adc$316                          adc
     0000B37B  C$adc.c$122$1_0$392                adc
     0000B37D  A$adc$317                          adc
     0000B37F  A$adc$321                          adc
     0000B37F  C$adc.c$123$1_0$392                adc
ASxxxx Linker V03.00 + NoICE + sdld,  page 195.
Hexadecimal  [32-Bits]

Area                                    Addr        Size        Decimal Bytes (Attributes)
--------------------------------        ----        ----        ------- ----- ------------
CODE                                000082B4    0000592D =       22829. bytes (REL,CON)

      Value  Global                              Global Defined In Module
      -----  --------------------------------   ------------------------
     0000B381  A$adc$322                          adc
     0000B384  A$adc$323                          adc
     0000B386  A$adc$326                          adc
     0000B386  C$adc.c$124$1_0$392                adc
     0000B388  A$adc$327                          adc
     0000B389  A$adc$328                          adc
     0000B38C  A$adc$332                          adc
     0000B38E  A$adc$335                          adc
     0000B38E  C$adc.c$125$1_0$392                adc
     0000B38E  XG$ui16_adc_read_battery_current   adc
     0000B38F  A$adc$343                          adc
     0000B38F  C$adc.c$130$1_0$394                adc
     0000B38F  G$ui16_adc_read_torque_sensor_10   adc
     0000B38F  _ui16_adc_read_torque_sensor_10b   adc
     0000B391  A$adc$346                          adc
     0000B391  C$adc.c$135$1_0$394                adc
     0000B394  A$adc$347                          adc
     0000B396  A$adc$350                          adc
     0000B396  C$adc.c$136$1_0$394                adc
     0000B399  A$adc$351                          adc
     0000B39A  A$adc$352                          adc
     0000B39B  A$adc$355                          adc
     0000B39B  C$adc.c$138$1_0$394                adc
     0000B39C  A$adc$356                          adc
     0000B39D  A$adc$357                          adc
     0000B39E  A$adc$358                          adc
     0000B3A0  A$adc$359                          adc
     0000B3A1  A$adc$360                          adc
     0000B3A3  A$adc$361                          adc
     0000B3A4  A$adc$362                          adc
     0000B3A6  A$adc$363                          adc
     0000B3A7  A$adc$364                          adc
     0000B3A9  A$adc$365                          adc
     0000B3AA  A$adc$368                          adc
     0000B3AC  A$adc$371                          adc
     0000B3AC  C$adc.c$139$1_0$394                adc
     0000B3AC  XG$ui16_adc_read_torque_sensor_1   adc
     0000B3AD  A$adc$379                          adc
     0000B3AD  C$adc.c$144$1_0$396                adc
     0000B3AD  G$ui16_adc_read_throttle_10b$0$0   adc
     0000B3AD  _ui16_adc_read_throttle_10b        adc
     0000B3AF  A$adc$382                          adc
     0000B3AF  C$adc.c$149$1_0$396                adc
     0000B3B2  A$adc$383                          adc
     0000B3B4  A$adc$386                          adc
     0000B3B4  C$adc.c$150$1_0$396                adc
     0000B3B7  A$adc$387                          adc
     0000B3B8  A$adc$388                          adc
     0000B3B9  A$adc$391                          adc
     0000B3B9  C$adc.c$152$1_0$396                adc
     0000B3BA  A$adc$392                          adc
ASxxxx Linker V03.00 + NoICE + sdld,  page 196.
Hexadecimal  [32-Bits]

Area                                    Addr        Size        Decimal Bytes (Attributes)
--------------------------------        ----        ----        ------- ----- ------------
CODE                                000082B4    0000592D =       22829. bytes (REL,CON)

      Value  Global                              Global Defined In Module
      -----  --------------------------------   ------------------------
     0000B3BB  A$adc$393                          adc
     0000B3BC  A$adc$394                          adc
     0000B3BE  A$adc$395                          adc
     0000B3BF  A$adc$396                          adc
     0000B3C1  A$adc$397                          adc
     0000B3C2  A$adc$398                          adc
     0000B3C4  A$adc$399                          adc
     0000B3C5  A$adc$400                          adc
     0000B3C7  A$adc$401                          adc
     0000B3C8  A$adc$404                          adc
     0000B3CA  A$adc$407                          adc
     0000B3CA  C$adc.c$153$1_0$396                adc
     0000B3CA  XG$ui16_adc_read_throttle_10b$0$   adc
     0000B3CB  A$adc$415                          adc
     0000B3CB  C$adc.c$158$1_0$398                adc
     0000B3CB  G$ui16_adc_read_battery_voltage_   adc
     0000B3CB  _ui16_adc_read_battery_voltage_1   adc
     0000B3CD  A$adc$418                          adc
     0000B3CD  C$adc.c$163$1_0$398                adc
     0000B3D0  A$adc$419                          adc
     0000B3D2  A$adc$422                          adc
     0000B3D2  C$adc.c$164$1_0$398                adc
     0000B3D5  A$adc$423                          adc
     0000B3D6  A$adc$424                          adc
     0000B3D7  A$adc$427                          adc
     0000B3D7  C$adc.c$166$1_0$398                adc
     0000B3D8  A$adc$428                          adc
     0000B3D9  A$adc$429                          adc
     0000B3DA  A$adc$430                          adc
     0000B3DC  A$adc$431                          adc
     0000B3DD  A$adc$432                          adc
     0000B3DF  A$adc$433                          adc
     0000B3E0  A$adc$434                          adc
     0000B3E2  A$adc$435                          adc
     0000B3E3  A$adc$436                          adc
     0000B3E5  A$adc$437                          adc
     0000B3E6  A$adc$440                          adc
     0000B3E8  A$adc$443                          adc
     0000B3E8  C$adc.c$167$1_0$398                adc
     0000B3E8  XG$ui16_adc_read_battery_voltage   adc
     0000B3E9  A$timers$67                        timers
     0000B3E9  C$timers.c$17$0_0$346              timers
     0000B3E9  C$timers.c$23$1_0$346              timers
     0000B3E9  G$timer2_init$0$0                  timers
     0000B3E9  _timer2_init                       timers
     0000B3EB  A$timers$68                        timers
     0000B3ED  A$timers$69                        timers
     0000B3EF  A$timers$70                        timers
     0000B3F2  A$timers$71                        timers
     0000B3F4  A$timers$74                        timers
     0000B3F4  C$timers.c$26$1_0$346              timers
ASxxxx Linker V03.00 + NoICE + sdld,  page 197.
Hexadecimal  [32-Bits]

Area                                    Addr        Size        Decimal Bytes (Attributes)
--------------------------------        ----        ----        ------- ----- ------------
CODE                                000082B4    0000592D =       22829. bytes (REL,CON)

      Value  Global                              Global Defined In Module
      -----  --------------------------------   ------------------------
     0000B3F6  A$timers$75                        timers
     0000B3F8  A$timers$76                        timers
     0000B3FA  A$timers$77                        timers
     0000B3FC  A$timers$78                        timers
     0000B3FE  A$timers$79                        timers
     0000B401  A$timers$80                        timers
     0000B403  A$timers$83                        timers
     0000B403  C$timers.c$27$1_0$346              timers
     0000B405  A$timers$84                        timers
     0000B408  A$timers$85                        timers
     0000B409  A$timers$88                        timers
     0000B409  C$timers.c$29$1_0$346              timers
     0000B40B  A$timers$89                        timers
     0000B40E  A$timers$90                        timers
     0000B40F  A$timers$93                        timers
     0000B40F  C$timers.c$31$1_0$346              timers
     0000B411  A$timers$94                        timers
     0000B414  A$timers$95                        timers
     0000B415  A$timers$98                        timers
     0000B415  C$timers.c$34$2_0$347              timers
     0000B419  A$timers$100                       timers
     0000B41A  A$timers$101                       timers
     0000B41B  A$timers$102                       timers
     0000B41D  A$timers$103                       timers
     0000B41E  A$timers$104                       timers
     0000B420  A$timers$109                       timers
     0000B420  C$timers.c$35$2_0$346              timers
     0000B420  XG$timer2_init$0$0                 timers
     0000B421  A$timers$119                       timers
     0000B421  C$timers.c$40$2_0$350              timers
     0000B421  C$timers.c$45$1_0$350              timers
     0000B421  G$timer3_init$0$0                  timers
     0000B421  _timer3_init                       timers
     0000B424  A$timers$122                       timers
     0000B424  C$timers.c$46$1_0$350              timers
     0000B426  A$timers$123                       timers
     0000B428  A$timers$124                       timers
     0000B42A  A$timers$125                       timers
     0000B42D  A$timers$126                       timers
     0000B42F  A$timers$129                       timers
     0000B42F  C$timers.c$47$1_0$350              timers
     0000B431  A$timers$130                       timers
     0000B434  A$timers$131                       timers
     0000B435  A$timers$134                       timers
     0000B435  C$timers.c$50$2_0$351              timers
     0000B439  A$timers$136                       timers
     0000B43A  A$timers$137                       timers
     0000B43B  A$timers$138                       timers
     0000B43D  A$timers$139                       timers
     0000B43E  A$timers$140                       timers
     0000B440  A$timers$145                       timers
ASxxxx Linker V03.00 + NoICE + sdld,  page 198.
Hexadecimal  [32-Bits]

Area                                    Addr        Size        Decimal Bytes (Attributes)
--------------------------------        ----        ----        ------- ----- ------------
CODE                                000082B4    0000592D =       22829. bytes (REL,CON)

      Value  Global                              Global Defined In Module
      -----  --------------------------------   ------------------------
     0000B440  C$timers.c$51$2_0$350              timers
     0000B440  XG$timer3_init$0$0                 timers
     0000B441  A$ebike_app$393                    ebike_app
     0000B441  C$ebike_app.c$147$0_0$426          ebike_app
     0000B441  C$ebike_app.c$151$1_0$426          ebike_app
     0000B441  G$ebike_app_init$0$0               ebike_app
     0000B441  _ebike_app_init                    ebike_app
     0000B443  A$ebike_app$394                    ebike_app
     0000B446  A$ebike_app$395                    ebike_app
     0000B447  A$ebike_app$398                    ebike_app
     0000B447  C$ebike_app.c$152$1_0$426          ebike_app
     0000B449  A$ebike_app$399                    ebike_app
     0000B44C  A$ebike_app$400                    ebike_app
     0000B44D  A$ebike_app$403                    ebike_app
     0000B44D  C$ebike_app.c$153$1_0$426          ebike_app
     0000B450  A$ebike_app$406                    ebike_app
     0000B450  C$ebike_app.c$156$1_0$426          ebike_app
     0000B454  A$ebike_app$409                    ebike_app
     0000B454  C$ebike_app.c$158$1_0$426          ebike_app
     0000B457  A$ebike_app$410                    ebike_app
     0000B459  A$ebike_app$413                    ebike_app
     0000B459  C$ebike_app.c$159$1_0$426          ebike_app
     0000B45D  A$ebike_app$414                    ebike_app
     0000B45F  A$ebike_app$418                    ebike_app
     0000B45F  C$ebike_app.c$161$1_0$426          ebike_app
     0000B463  A$ebike_app$422                    ebike_app
     0000B463  C$ebike_app.c$163$1_0$426          ebike_app
     0000B466  A$ebike_app$423                    ebike_app
     0000B468  A$ebike_app$426                    ebike_app
     0000B468  C$ebike_app.c$165$1_0$426          ebike_app
     0000B46C  A$ebike_app$427                    ebike_app
     0000B46E  A$ebike_app$431                    ebike_app
     0000B46E  C$ebike_app.c$168$1_0$426          ebike_app
     0000B472  A$ebike_app$437                    ebike_app
     0000B472  C$ebike_app.c$169$1_0$426          ebike_app
     0000B472  XG$ebike_app_init$0$0              ebike_app
     0000B473  A$ebike_app$447                    ebike_app
     0000B473  C$ebike_app.c$174$1_0$428          ebike_app
     0000B473  C$ebike_app.c$176$1_0$428          ebike_app
     0000B473  G$ebike_app_controller$0$0         ebike_app
     0000B473  _ebike_app_controller              ebike_app
     0000B476  A$ebike_app$450                    ebike_app
     0000B476  C$ebike_app.c$177$1_0$428          ebike_app
     0000B479  A$ebike_app$453                    ebike_app
     0000B479  C$ebike_app.c$178$1_0$428          ebike_app
     0000B47C  A$ebike_app$456                    ebike_app
     0000B47C  C$ebike_app.c$179$1_0$428          ebike_app
     0000B47F  A$ebike_app$459                    ebike_app
     0000B47F  C$ebike_app.c$180$1_0$428          ebike_app
     0000B482  A$ebike_app$462                    ebike_app
     0000B482  C$ebike_app.c$181$1_0$428          ebike_app
ASxxxx Linker V03.00 + NoICE + sdld,  page 199.
Hexadecimal  [32-Bits]

Area                                    Addr        Size        Decimal Bytes (Attributes)
--------------------------------        ----        ----        ------- ----- ------------
CODE                                000082B4    0000592D =       22829. bytes (REL,CON)

      Value  Global                              Global Defined In Module
      -----  --------------------------------   ------------------------
     0000B485  A$ebike_app$465                    ebike_app
     0000B485  C$ebike_app.c$182$1_0$428          ebike_app
     0000B488  A$ebike_app$468                    ebike_app
     0000B488  C$ebike_app.c$183$1_0$428          ebike_app
     0000B48B  A$ebike_app$471                    ebike_app
     0000B48B  C$ebike_app.c$184$1_0$428          ebike_app
     0000B48E  A$ebike_app$474                    ebike_app
     0000B48E  C$ebike_app.c$185$1_0$428          ebike_app
     0000B491  A$ebike_app$477                    ebike_app
     0000B491  C$ebike_app.c$186$1_0$428          ebike_app
     0000B494  A$ebike_app$480                    ebike_app
     0000B494  C$ebike_app.c$187$1_0$428          ebike_app
     0000B497  A$ebike_app$485                    ebike_app
     0000B497  C$ebike_app.c$191$1_0$428          ebike_app
     0000B497  XG$ebike_app_controller$0$0        ebike_app
     0000B498  A$ebike_app$493                    ebike_app
     0000B498  C$ebike_app.c$304$1_0$430          ebike_app
     0000B498  Febike_app$ebike_control_motor$0   ebike_app
     0000B49A  A$ebike_app$496                    ebike_app
     0000B49A  C$ebike_app.c$311$2_0$430          ebike_app
     0000B49C  A$ebike_app$499                    ebike_app
     0000B49C  C$ebike_app.c$313$2_0$430          ebike_app
     0000B49E  A$ebike_app$502                    ebike_app
     0000B49E  C$ebike_app.c$315$2_0$430          ebike_app
     0000B4A0  A$ebike_app$505                    ebike_app
     0000B4A0  C$ebike_app.c$318$2_0$430          ebike_app
     0000B4A1  A$ebike_app$506                    ebike_app
     0000B4A3  A$ebike_app$507                    ebike_app
     0000B4A5  A$ebike_app$510                    ebike_app
     0000B4A5  C$ebike_app.c$323$1_0$430          ebike_app
     0000B4A8  A$ebike_app$511                    ebike_app
     0000B4AA  A$ebike_app$514                    ebike_app
     0000B4AA  C$ebike_app.c$329$1_0$430          ebike_app
     0000B4AE  A$ebike_app$517                    ebike_app
     0000B4AE  C$ebike_app.c$333$1_0$430          ebike_app
     0000B4B0  A$ebike_app$520                    ebike_app
     0000B4B0  C$ebike_app.c$336$1_0$430          ebike_app
     0000B4B5  A$ebike_app$523                    ebike_app
     0000B4B5  C$ebike_app.c$337$1_0$430          ebike_app
     0000B4B9  A$ebike_app$526                    ebike_app
     0000B4B9  C$ebike_app.c$340$1_0$430          ebike_app
     0000B4BB  A$ebike_app$529                    ebike_app
     0000B4BB  C$ebike_app.c$343$1_0$430          ebike_app
     0000B4BD  A$ebike_app$530                    ebike_app
     0000B4C0  A$ebike_app$531                    ebike_app
     0000B4C2  A$ebike_app$532                    ebike_app
     0000B4C5  A$ebike_app$536                    ebike_app
     0000B4C5  C$ebike_app.c$348$2_0$431          ebike_app
     0000B4C8  A$ebike_app$537                    ebike_app
     0000B4CA  A$ebike_app$538                    ebike_app
     0000B4CD  A$ebike_app$542                    ebike_app
ASxxxx Linker V03.00 + NoICE + sdld,  page 200.
Hexadecimal  [32-Bits]

Area                                    Addr        Size        Decimal Bytes (Attributes)
--------------------------------        ----        ----        ------- ----- ------------
CODE                                000082B4    0000592D =       22829. bytes (REL,CON)

      Value  Global                              Global Defined In Module
      -----  --------------------------------   ------------------------
     0000B4CD  C$ebike_app.c$350$3_0$432          ebike_app
     0000B4D0  A$ebike_app$543                    ebike_app
     0000B4D1  A$ebike_app$544                    ebike_app
     0000B4D4  A$ebike_app$545                    ebike_app
     0000B4D5  A$ebike_app$546                    ebike_app
     0000B4D7  A$ebike_app$547                    ebike_app
     0000B4D9  A$ebike_app$548                    ebike_app
     0000B4DC  A$ebike_app$549                    ebike_app
     0000B4DF  A$ebike_app$550                    ebike_app
     0000B4E2  A$ebike_app$551                    ebike_app
     0000B4E4  A$ebike_app$552                    ebike_app
     0000B4E6  A$ebike_app$553                    ebike_app
     0000B4E8  A$ebike_app$554                    ebike_app
     0000B4EA  A$ebike_app$555                    ebike_app
     0000B4EC  A$ebike_app$556                    ebike_app
     0000B4ED  A$ebike_app$557                    ebike_app
     0000B4EF  A$ebike_app$558                    ebike_app
     0000B4F0  A$ebike_app$559                    ebike_app
     0000B4F2  A$ebike_app$560                    ebike_app
     0000B4F3  A$ebike_app$561                    ebike_app
     0000B4F5  A$ebike_app$562                    ebike_app
     0000B4F8  A$ebike_app$563                    ebike_app
     0000B4FA  A$ebike_app$564                    ebike_app
     0000B4FD  A$ebike_app$565                    ebike_app
     0000B500  A$ebike_app$566                    ebike_app
     0000B503  A$ebike_app$567                    ebike_app
     0000B506  A$ebike_app$568                    ebike_app
     0000B507  A$ebike_app$569                    ebike_app
     0000B509  A$ebike_app$570                    ebike_app
     0000B50C  A$ebike_app$571                    ebike_app
     0000B50E  A$ebike_app$572                    ebike_app
     0000B50F  A$ebike_app$573                    ebike_app
     0000B511  A$ebike_app$574                    ebike_app
     0000B514  A$ebike_app$575                    ebike_app
     0000B516  A$ebike_app$576                    ebike_app
     0000B519  A$ebike_app$577                    ebike_app
     0000B51D  A$ebike_app$580                    ebike_app
     0000B51D  C$ebike_app.c$351$1_0$430          ebike_app
     0000B51F  A$ebike_app$581                    ebike_app
     0000B520  A$ebike_app$582                    ebike_app
     0000B521  A$ebike_app$583                    ebike_app
     0000B523  A$ebike_app$584                    ebike_app
     0000B526  A$ebike_app$585                    ebike_app
     0000B529  A$ebike_app$586                    ebike_app
     0000B52C  A$ebike_app$587                    ebike_app
     0000B52F  A$ebike_app$588                    ebike_app
     0000B532  A$ebike_app$589                    ebike_app
     0000B534  A$ebike_app$590                    ebike_app
     0000B537  A$ebike_app$591                    ebike_app
     0000B53B  A$ebike_app$594                    ebike_app
     0000B53B  C$ebike_app.c$355$1_0$430          ebike_app
ASxxxx Linker V03.00 + NoICE + sdld,  page 201.
Hexadecimal  [32-Bits]

Area                                    Addr        Size        Decimal Bytes (Attributes)
--------------------------------        ----        ----        ------- ----- ------------
CODE                                000082B4    0000592D =       22829. bytes (REL,CON)

      Value  Global                              Global Defined In Module
      -----  --------------------------------   ------------------------
     0000B53E  A$ebike_app$595                    ebike_app
     0000B541  A$ebike_app$596                    ebike_app
     0000B544  A$ebike_app$597                    ebike_app
     0000B547  A$ebike_app$598                    ebike_app
     0000B549  A$ebike_app$599                    ebike_app
     0000B54A  A$ebike_app$600                    ebike_app
     0000B54B  A$ebike_app$601                    ebike_app
     0000B54D  A$ebike_app$602                    ebike_app
     0000B550  A$ebike_app$603                    ebike_app
     0000B552  A$ebike_app$604                    ebike_app
     0000B555  A$ebike_app$605                    ebike_app
     0000B559  A$ebike_app$608                    ebike_app
     0000B559  C$ebike_app.c$356$1_0$430          ebike_app
     0000B55C  A$ebike_app$609                    ebike_app
     0000B55D  A$ebike_app$610                    ebike_app
     0000B55E  A$ebike_app$611                    ebike_app
     0000B55F  A$ebike_app$612                    ebike_app
     0000B560  A$ebike_app$613                    ebike_app
     0000B562  A$ebike_app$614                    ebike_app
     0000B563  A$ebike_app$617                    ebike_app
     0000B563  C$ebike_app.c$357$3_0$432          ebike_app
     0000B564  A$ebike_app$618                    ebike_app
     0000B567  A$ebike_app$619                    ebike_app
     0000B569  A$ebike_app$620                    ebike_app
     0000B56A  A$ebike_app$621                    ebike_app
     0000B56D  A$ebike_app$622                    ebike_app
     0000B56F  A$ebike_app$626                    ebike_app
     0000B56F  C$ebike_app.c$400$2_0$431          ebike_app
     0000B572  A$ebike_app$627                    ebike_app
     0000B574  A$ebike_app$628                    ebike_app
     0000B577  A$ebike_app$632                    ebike_app
     0000B577  C$ebike_app.c$403$3_0$434          ebike_app
     0000B57A  A$ebike_app$633                    ebike_app
     0000B57C  A$ebike_app$634                    ebike_app
     0000B57E  A$ebike_app$635                    ebike_app
     0000B581  A$ebike_app$639                    ebike_app
     0000B581  C$ebike_app.c$407$4_0$435          ebike_app
     0000B585  A$ebike_app$640                    ebike_app
     0000B587  A$ebike_app$643                    ebike_app
     0000B587  C$ebike_app.c$410$5_0$436          ebike_app
     0000B588  A$ebike_app$644                    ebike_app
     0000B58B  A$ebike_app$645                    ebike_app
     0000B58E  A$ebike_app$648                    ebike_app
     0000B58E  C$ebike_app.c$413$5_0$436          ebike_app
     0000B58F  A$ebike_app$649                    ebike_app
     0000B592  A$ebike_app$650                    ebike_app
     0000B595  A$ebike_app$653                    ebike_app
     0000B595  C$ebike_app.c$416$5_0$436          ebike_app
     0000B596  A$ebike_app$654                    ebike_app
     0000B599  A$ebike_app$658                    ebike_app
     0000B599  C$ebike_app.c$436$1_0$430          ebike_app
ASxxxx Linker V03.00 + NoICE + sdld,  page 202.
Hexadecimal  [32-Bits]

Area                                    Addr        Size        Decimal Bytes (Attributes)
--------------------------------        ----        ----        ------- ----- ------------
CODE                                000082B4    0000592D =       22829. bytes (REL,CON)

      Value  Global                              Global Defined In Module
      -----  --------------------------------   ------------------------
     0000B59A  A$ebike_app$659                    ebike_app
     0000B59B  A$ebike_app$660                    ebike_app
     0000B59D  A$ebike_app$661                    ebike_app
     0000B59F  A$ebike_app$662                    ebike_app
     0000B5A2  A$ebike_app$663                    ebike_app
     0000B5A5  A$ebike_app$664                    ebike_app
     0000B5A8  A$ebike_app$665                    ebike_app
     0000B5AB  A$ebike_app$666                    ebike_app
     0000B5AE  A$ebike_app$667                    ebike_app
     0000B5B0  A$ebike_app$668                    ebike_app
     0000B5B1  A$ebike_app$669                    ebike_app
     0000B5B3  A$ebike_app$670                    ebike_app
     0000B5B6  A$ebike_app$674                    ebike_app
     0000B5B6  C$ebike_app.c$439$5_0$437          ebike_app
     0000B5BA  A$ebike_app$675                    ebike_app
     0000B5BB  A$ebike_app$676                    ebike_app
     0000B5BC  A$ebike_app$677                    ebike_app
     0000B5BF  A$ebike_app$678                    ebike_app
     0000B5C3  A$ebike_app$679                    ebike_app
     0000B5C5  A$ebike_app$680                    ebike_app
     0000B5C8  A$ebike_app$684                    ebike_app
     0000B5C8  C$ebike_app.c$442$6_0$438          ebike_app
     0000B5CB  A$ebike_app$685                    ebike_app
     0000B5CD  A$ebike_app$686                    ebike_app
     0000B5CF  A$ebike_app$689                    ebike_app
     0000B5CF  C$ebike_app.c$462$7_0$439          ebike_app
     0000B5D0  A$ebike_app$690                    ebike_app
     0000B5D2  A$ebike_app$691                    ebike_app
     0000B5D5  A$ebike_app$692                    ebike_app
     0000B5D7  A$ebike_app$695                    ebike_app
     0000B5D7  C$ebike_app.c$464$1_0$430          ebike_app
     0000B5D9  A$ebike_app$696                    ebike_app
     0000B5DB  A$ebike_app$697                    ebike_app
     0000B5DD  A$ebike_app$698                    ebike_app
     0000B5DF  A$ebike_app$699                    ebike_app
     0000B5E2  A$ebike_app$700                    ebike_app
     0000B5E5  A$ebike_app$701                    ebike_app
     0000B5E8  A$ebike_app$702                    ebike_app
     0000B5EB  A$ebike_app$703                    ebike_app
     0000B5EE  A$ebike_app$704                    ebike_app
     0000B5F0  A$ebike_app$705                    ebike_app
     0000B5F3  A$ebike_app$706                    ebike_app
     0000B5F7  A$ebike_app$710                    ebike_app
     0000B5F7  C$ebike_app.c$469$6_0$438          ebike_app
     0000B5FA  A$ebike_app$711                    ebike_app
     0000B5FC  A$ebike_app$712                    ebike_app
     0000B5FE  A$ebike_app$715                    ebike_app
     0000B5FE  C$ebike_app.c$472$7_0$440          ebike_app
     0000B601  A$ebike_app$716                    ebike_app
     0000B602  A$ebike_app$717                    ebike_app
     0000B603  A$ebike_app$718                    ebike_app
ASxxxx Linker V03.00 + NoICE + sdld,  page 203.
Hexadecimal  [32-Bits]

Area                                    Addr        Size        Decimal Bytes (Attributes)
--------------------------------        ----        ----        ------- ----- ------------
CODE                                000082B4    0000592D =       22829. bytes (REL,CON)

      Value  Global                              Global Defined In Module
      -----  --------------------------------   ------------------------
     0000B604  A$ebike_app$719                    ebike_app
     0000B605  A$ebike_app$720                    ebike_app
     0000B606  A$ebike_app$721                    ebike_app
     0000B609  A$ebike_app$722                    ebike_app
     0000B60B  A$ebike_app$723                    ebike_app
     0000B60D  A$ebike_app$724                    ebike_app
     0000B60F  A$ebike_app$725                    ebike_app
     0000B612  A$ebike_app$726                    ebike_app
     0000B615  A$ebike_app$727                    ebike_app
     0000B618  A$ebike_app$728                    ebike_app
     0000B61A  A$ebike_app$729                    ebike_app
     0000B61B  A$ebike_app$730                    ebike_app
     0000B61D  A$ebike_app$731                    ebike_app
     0000B61F  A$ebike_app$732                    ebike_app
     0000B620  A$ebike_app$733                    ebike_app
     0000B622  A$ebike_app$734                    ebike_app
     0000B623  A$ebike_app$735                    ebike_app
     0000B626  A$ebike_app$736                    ebike_app
     0000B628  A$ebike_app$737                    ebike_app
     0000B62B  A$ebike_app$738                    ebike_app
     0000B62E  A$ebike_app$739                    ebike_app
     0000B631  A$ebike_app$740                    ebike_app
     0000B634  A$ebike_app$741                    ebike_app
     0000B635  A$ebike_app$742                    ebike_app
     0000B637  A$ebike_app$743                    ebike_app
     0000B63A  A$ebike_app$744                    ebike_app
     0000B63C  A$ebike_app$745                    ebike_app
     0000B63E  A$ebike_app$746                    ebike_app
     0000B640  A$ebike_app$747                    ebike_app
     0000B642  A$ebike_app$751                    ebike_app
     0000B642  C$ebike_app.c$477$7_0$441          ebike_app
     0000B643  A$ebike_app$752                    ebike_app
     0000B646  A$ebike_app$753                    ebike_app
     0000B649  A$ebike_app$754                    ebike_app
     0000B64C  A$ebike_app$755                    ebike_app
     0000B64E  A$ebike_app$759                    ebike_app
     0000B64E  C$ebike_app.c$483$6_0$442          ebike_app
     0000B64F  A$ebike_app$760                    ebike_app
     0000B652  A$ebike_app$761                    ebike_app
     0000B655  A$ebike_app$762                    ebike_app
     0000B658  A$ebike_app$763                    ebike_app
     0000B65A  A$ebike_app$767                    ebike_app
     0000B65A  C$ebike_app.c$491$4_0$443          ebike_app
     0000B65B  A$ebike_app$768                    ebike_app
     0000B65E  A$ebike_app$769                    ebike_app
     0000B661  A$ebike_app$770                    ebike_app
     0000B664  A$ebike_app$774                    ebike_app
     0000B664  C$ebike_app.c$495$1_0$430          ebike_app
     0000B665  A$ebike_app$775                    ebike_app
     0000B666  A$ebike_app$776                    ebike_app
     0000B668  A$ebike_app$777                    ebike_app
ASxxxx Linker V03.00 + NoICE + sdld,  page 204.
Hexadecimal  [32-Bits]

Area                                    Addr        Size        Decimal Bytes (Attributes)
--------------------------------        ----        ----        ------- ----- ------------
CODE                                000082B4    0000592D =       22829. bytes (REL,CON)

      Value  Global                              Global Defined In Module
      -----  --------------------------------   ------------------------
     0000B66A  A$ebike_app$778                    ebike_app
     0000B66D  A$ebike_app$779                    ebike_app
     0000B670  A$ebike_app$780                    ebike_app
     0000B673  A$ebike_app$781                    ebike_app
     0000B676  A$ebike_app$782                    ebike_app
     0000B679  A$ebike_app$783                    ebike_app
     0000B67B  A$ebike_app$784                    ebike_app
     0000B67D  A$ebike_app$785                    ebike_app
     0000B67F  A$ebike_app$788                    ebike_app
     0000B67F  C$ebike_app.c$497$1_0$430          ebike_app
     0000B682  A$ebike_app$789                    ebike_app
     0000B685  A$ebike_app$790                    ebike_app
     0000B688  A$ebike_app$791                    ebike_app
     0000B68B  A$ebike_app$792                    ebike_app
     0000B68D  A$ebike_app$793                    ebike_app
     0000B68E  A$ebike_app$794                    ebike_app
     0000B690  A$ebike_app$795                    ebike_app
     0000B691  A$ebike_app$796                    ebike_app
     0000B694  A$ebike_app$797                    ebike_app
     0000B696  A$ebike_app$798                    ebike_app
     0000B698  A$ebike_app$799                    ebike_app
     0000B69A  A$ebike_app$802                    ebike_app
     0000B69A  C$ebike_app.c$498$1_0$430          ebike_app
     0000B69D  A$ebike_app$803                    ebike_app
     0000B6A0  A$ebike_app$804                    ebike_app
     0000B6A3  A$ebike_app$805                    ebike_app
     0000B6A5  A$ebike_app$806                    ebike_app
     0000B6A6  A$ebike_app$807                    ebike_app
     0000B6A8  A$ebike_app$808                    ebike_app
     0000B6A9  A$ebike_app$809                    ebike_app
     0000B6AA  A$ebike_app$810                    ebike_app
     0000B6AC  A$ebike_app$811                    ebike_app
     0000B6AE  A$ebike_app$812                    ebike_app
     0000B6B1  A$ebike_app$813                    ebike_app
     0000B6B3  A$ebike_app$814                    ebike_app
     0000B6B6  A$ebike_app$815                    ebike_app
     0000B6B9  A$ebike_app$816                    ebike_app
     0000B6BC  A$ebike_app$817                    ebike_app
     0000B6BF  A$ebike_app$818                    ebike_app
     0000B6C0  A$ebike_app$819                    ebike_app
     0000B6C2  A$ebike_app$820                    ebike_app
     0000B6C5  A$ebike_app$821                    ebike_app
     0000B6C7  A$ebike_app$824                    ebike_app
     0000B6C7  C$ebike_app.c$499$1_0$430          ebike_app
     0000B6C8  A$ebike_app$825                    ebike_app
     0000B6CA  A$ebike_app$826                    ebike_app
     0000B6CC  A$ebike_app$827                    ebike_app
     0000B6CD  A$ebike_app$828                    ebike_app
     0000B6CF  A$ebike_app$829                    ebike_app
     0000B6D0  A$ebike_app$830                    ebike_app
     0000B6D3  A$ebike_app$831                    ebike_app
ASxxxx Linker V03.00 + NoICE + sdld,  page 205.
Hexadecimal  [32-Bits]

Area                                    Addr        Size        Decimal Bytes (Attributes)
--------------------------------        ----        ----        ------- ----- ------------
CODE                                000082B4    0000592D =       22829. bytes (REL,CON)

      Value  Global                              Global Defined In Module
      -----  --------------------------------   ------------------------
     0000B6D5  A$ebike_app$832                    ebike_app
     0000B6D7  A$ebike_app$833                    ebike_app
     0000B6D9  A$ebike_app$834                    ebike_app
     0000B6DB  A$ebike_app$838                    ebike_app
     0000B6DB  C$ebike_app.c$503$4_0$445          ebike_app
     0000B6DE  A$ebike_app$839                    ebike_app
     0000B6DF  A$ebike_app$840                    ebike_app
     0000B6E2  A$ebike_app$841                    ebike_app
     0000B6E3  A$ebike_app$842                    ebike_app
     0000B6E5  A$ebike_app$843                    ebike_app
     0000B6E7  A$ebike_app$844                    ebike_app
     0000B6EA  A$ebike_app$845                    ebike_app
     0000B6ED  A$ebike_app$846                    ebike_app
     0000B6F0  A$ebike_app$847                    ebike_app
     0000B6F2  A$ebike_app$848                    ebike_app
     0000B6F3  A$ebike_app$849                    ebike_app
     0000B6F5  A$ebike_app$850                    ebike_app
     0000B6F7  A$ebike_app$851                    ebike_app
     0000B6F8  A$ebike_app$852                    ebike_app
     0000B6FA  A$ebike_app$853                    ebike_app
     0000B6FB  A$ebike_app$854                    ebike_app
     0000B6FE  A$ebike_app$855                    ebike_app
     0000B700  A$ebike_app$856                    ebike_app
     0000B703  A$ebike_app$857                    ebike_app
     0000B706  A$ebike_app$858                    ebike_app
     0000B709  A$ebike_app$859                    ebike_app
     0000B70C  A$ebike_app$860                    ebike_app
     0000B70D  A$ebike_app$861                    ebike_app
     0000B70F  A$ebike_app$862                    ebike_app
     0000B712  A$ebike_app$863                    ebike_app
     0000B714  A$ebike_app$864                    ebike_app
     0000B716  A$ebike_app$865                    ebike_app
     0000B718  A$ebike_app$869                    ebike_app
     0000B718  C$ebike_app.c$507$3_0$434          ebike_app
     0000B71B  A$ebike_app$870                    ebike_app
     0000B71D  A$ebike_app$873                    ebike_app
     0000B71D  C$ebike_app.c$509$1_0$430          ebike_app
     0000B71F  A$ebike_app$874                    ebike_app
     0000B720  A$ebike_app$875                    ebike_app
     0000B722  A$ebike_app$876                    ebike_app
     0000B723  A$ebike_app$877                    ebike_app
     0000B726  A$ebike_app$878                    ebike_app
     0000B728  A$ebike_app$879                    ebike_app
     0000B72B  A$ebike_app$880                    ebike_app
     0000B72F  A$ebike_app$881                    ebike_app
     0000B731  A$ebike_app$885                    ebike_app
     0000B731  C$ebike_app.c$513$4_0$447          ebike_app
     0000B735  A$ebike_app$886                    ebike_app
     0000B737  A$ebike_app$889                    ebike_app
     0000B737  C$ebike_app.c$515$1_0$430          ebike_app
     0000B739  A$ebike_app$890                    ebike_app
ASxxxx Linker V03.00 + NoICE + sdld,  page 206.
Hexadecimal  [32-Bits]

Area                                    Addr        Size        Decimal Bytes (Attributes)
--------------------------------        ----        ----        ------- ----- ------------
CODE                                000082B4    0000592D =       22829. bytes (REL,CON)

      Value  Global                              Global Defined In Module
      -----  --------------------------------   ------------------------
     0000B73A  A$ebike_app$891                    ebike_app
     0000B73C  A$ebike_app$892                    ebike_app
     0000B73D  A$ebike_app$893                    ebike_app
     0000B740  A$ebike_app$894                    ebike_app
     0000B742  A$ebike_app$895                    ebike_app
     0000B745  A$ebike_app$896                    ebike_app
     0000B749  A$ebike_app$897                    ebike_app
     0000B74B  A$ebike_app$901                    ebike_app
     0000B74B  C$ebike_app.c$519$1_0$430          ebike_app
     0000B74D  A$ebike_app$902                    ebike_app
     0000B74E  A$ebike_app$903                    ebike_app
     0000B750  A$ebike_app$904                    ebike_app
     0000B751  A$ebike_app$905                    ebike_app
     0000B754  A$ebike_app$906                    ebike_app
     0000B756  A$ebike_app$907                    ebike_app
     0000B759  A$ebike_app$908                    ebike_app
     0000B75D  A$ebike_app$912                    ebike_app
     0000B75D  C$ebike_app.c$523$1_0$430          ebike_app
     0000B760  A$ebike_app$913                    ebike_app
     0000B763  A$ebike_app$914                    ebike_app
     0000B766  A$ebike_app$915                    ebike_app
     0000B769  A$ebike_app$916                    ebike_app
     0000B76B  A$ebike_app$917                    ebike_app
     0000B76C  A$ebike_app$918                    ebike_app
     0000B76D  A$ebike_app$919                    ebike_app
     0000B76F  A$ebike_app$920                    ebike_app
     0000B772  A$ebike_app$921                    ebike_app
     0000B774  A$ebike_app$922                    ebike_app
     0000B777  A$ebike_app$923                    ebike_app
     0000B77B  A$ebike_app$926                    ebike_app
     0000B77B  C$ebike_app.c$524$1_0$430          ebike_app
     0000B77D  A$ebike_app$927                    ebike_app
     0000B77E  A$ebike_app$928                    ebike_app
     0000B77F  A$ebike_app$929                    ebike_app
     0000B781  A$ebike_app$930                    ebike_app
     0000B784  A$ebike_app$931                    ebike_app
     0000B787  A$ebike_app$932                    ebike_app
     0000B78A  A$ebike_app$933                    ebike_app
     0000B78D  A$ebike_app$934                    ebike_app
     0000B790  A$ebike_app$935                    ebike_app
     0000B792  A$ebike_app$936                    ebike_app
     0000B795  A$ebike_app$937                    ebike_app
     0000B799  A$ebike_app$940                    ebike_app
     0000B799  C$ebike_app.c$525$1_0$430          ebike_app
     0000B79C  A$ebike_app$941                    ebike_app
     0000B79D  A$ebike_app$942                    ebike_app
     0000B79E  A$ebike_app$943                    ebike_app
     0000B79F  A$ebike_app$944                    ebike_app
     0000B7A0  A$ebike_app$945                    ebike_app
     0000B7A2  A$ebike_app$946                    ebike_app
     0000B7A3  A$ebike_app$949                    ebike_app
ASxxxx Linker V03.00 + NoICE + sdld,  page 207.
Hexadecimal  [32-Bits]

Area                                    Addr        Size        Decimal Bytes (Attributes)
--------------------------------        ----        ----        ------- ----- ------------
CODE                                000082B4    0000592D =       22829. bytes (REL,CON)

      Value  Global                              Global Defined In Module
      -----  --------------------------------   ------------------------
     0000B7A3  C$ebike_app.c$526$3_0$434          ebike_app
     0000B7A4  A$ebike_app$950                    ebike_app
     0000B7A5  A$ebike_app$951                    ebike_app
     0000B7A7  A$ebike_app$952                    ebike_app
     0000B7A8  A$ebike_app$953                    ebike_app
     0000B7AB  A$ebike_app$954                    ebike_app
     0000B7AD  A$ebike_app$957                    ebike_app
     0000B7AD  C$ebike_app.c$527$3_0$434          ebike_app
     0000B7AF  A$ebike_app$958                    ebike_app
     0000B7B2  A$ebike_app$962                    ebike_app
     0000B7B2  C$ebike_app.c$534$2_0$431          ebike_app
     0000B7B5  A$ebike_app$963                    ebike_app
     0000B7B7  A$ebike_app$966                    ebike_app
     0000B7B7  C$ebike_app.c$536$3_0$451          ebike_app
     0000B7BA  A$ebike_app$967                    ebike_app
     0000B7BB  A$ebike_app$968                    ebike_app
     0000B7BC  A$ebike_app$969                    ebike_app
     0000B7BE  A$ebike_app$970                    ebike_app
     0000B7BF  A$ebike_app$971                    ebike_app
     0000B7C1  A$ebike_app$972                    ebike_app
     0000B7C3  A$ebike_app$973                    ebike_app
     0000B7C4  A$ebike_app$974                    ebike_app
     0000B7C5  A$ebike_app$975                    ebike_app
     0000B7C7  A$ebike_app$976                    ebike_app
     0000B7CA  A$ebike_app$977                    ebike_app
     0000B7CC  A$ebike_app$978                    ebike_app
     0000B7CE  A$ebike_app$979                    ebike_app
     0000B7D0  A$ebike_app$980                    ebike_app
     0000B7D2  A$ebike_app$981                    ebike_app
     0000B7D3  A$ebike_app$982                    ebike_app
     0000B7D5  A$ebike_app$983                    ebike_app
     0000B7D6  A$ebike_app$984                    ebike_app
     0000B7D8  A$ebike_app$985                    ebike_app
     0000B7D9  A$ebike_app$986                    ebike_app
     0000B7DB  A$ebike_app$987                    ebike_app
     0000B7DC  A$ebike_app$988                    ebike_app
     0000B7DF  A$ebike_app$989                    ebike_app
     0000B7E1  A$ebike_app$992                    ebike_app
     0000B7E1  C$ebike_app.c$537$1_0$430          ebike_app
     0000B7E2  A$ebike_app$993                    ebike_app
     0000B7E3  A$ebike_app$994                    ebike_app
     0000B7E4  A$ebike_app$995                    ebike_app
     0000B7E6  A$ebike_app$996                    ebike_app
     0000B7E7  A$ebike_app$1000                   ebike_app
     0000B7E7  C$ebike_app.c$550$1_0$430          ebike_app
     0000B7EA  A$ebike_app$1001                   ebike_app
     0000B7EC  A$ebike_app$1004                   ebike_app
     0000B7EC  C$ebike_app.c$553$1_0$430          ebike_app
     0000B7EF  A$ebike_app$1005                   ebike_app
     0000B7F1  A$ebike_app$1008                   ebike_app
     0000B7F1  C$ebike_app.c$555$2_0$454          ebike_app
ASxxxx Linker V03.00 + NoICE + sdld,  page 208.
Hexadecimal  [32-Bits]

Area                                    Addr        Size        Decimal Bytes (Attributes)
--------------------------------        ----        ----        ------- ----- ------------
CODE                                000082B4    0000592D =       22829. bytes (REL,CON)

      Value  Global                              Global Defined In Module
      -----  --------------------------------   ------------------------
     0000B7F4  A$ebike_app$1009                   ebike_app
     0000B7F6  A$ebike_app$1010                   ebike_app
     0000B7F8  A$ebike_app$1011                   ebike_app
     0000B7FA  A$ebike_app$1012                   ebike_app
     0000B7FC  A$ebike_app$1016                   ebike_app
     0000B7FC  C$ebike_app.c$559$1_0$430          ebike_app
     0000B7FF  A$ebike_app$1017                   ebike_app
     0000B801  A$ebike_app$1020                   ebike_app
     0000B801  C$ebike_app.c$561$2_0$456          ebike_app
     0000B804  A$ebike_app$1023                   ebike_app
     0000B804  C$ebike_app.c$562$2_0$456          ebike_app
     0000B806  A$ebike_app$1024                   ebike_app
     0000B808  A$ebike_app$1025                   ebike_app
     0000B80A  A$ebike_app$1026                   ebike_app
     0000B80B  A$ebike_app$1027                   ebike_app
     0000B80D  A$ebike_app$1028                   ebike_app
     0000B80E  A$ebike_app$1029                   ebike_app
     0000B811  A$ebike_app$1030                   ebike_app
     0000B813  A$ebike_app$1031                   ebike_app
     0000B815  A$ebike_app$1034                   ebike_app
     0000B815  C$ebike_app.c$563$2_0$456          ebike_app
     0000B817  A$ebike_app$1035                   ebike_app
     0000B819  A$ebike_app$1036                   ebike_app
     0000B81C  A$ebike_app$1037                   ebike_app
     0000B81E  A$ebike_app$1041                   ebike_app
     0000B81E  C$ebike_app.c$572$1_0$430          ebike_app
     0000B822  A$ebike_app$1042                   ebike_app
     0000B824  A$ebike_app$1045                   ebike_app
     0000B824  C$ebike_app.c$574$2_0$457          ebike_app
     0000B827  A$ebike_app$1046                   ebike_app
     0000B828  A$ebike_app$1047                   ebike_app
     0000B82B  A$ebike_app$1048                   ebike_app
     0000B82C  A$ebike_app$1049                   ebike_app
     0000B82E  A$ebike_app$1050                   ebike_app
     0000B830  A$ebike_app$1051                   ebike_app
     0000B831  A$ebike_app$1052                   ebike_app
     0000B834  A$ebike_app$1053                   ebike_app
     0000B836  A$ebike_app$1054                   ebike_app
     0000B837  A$ebike_app$1055                   ebike_app
     0000B83A  A$ebike_app$1058                   ebike_app
     0000B83A  C$ebike_app.c$575$2_0$457          ebike_app
     0000B83C  A$ebike_app$1059                   ebike_app
     0000B83E  A$ebike_app$1060                   ebike_app
     0000B841  A$ebike_app$1061                   ebike_app
     0000B844  A$ebike_app$1062                   ebike_app
     0000B846  A$ebike_app$1066                   ebike_app
     0000B846  C$ebike_app.c$579$1_0$430          ebike_app
     0000B849  A$ebike_app$1067                   ebike_app
     0000B84B  A$ebike_app$1070                   ebike_app
     0000B84B  C$ebike_app.c$582$1_0$430          ebike_app
     0000B84E  A$ebike_app$1071                   ebike_app
ASxxxx Linker V03.00 + NoICE + sdld,  page 209.
Hexadecimal  [32-Bits]

Area                                    Addr        Size        Decimal Bytes (Attributes)
--------------------------------        ----        ----        ------- ----- ------------
CODE                                000082B4    0000592D =       22829. bytes (REL,CON)

      Value  Global                              Global Defined In Module
      -----  --------------------------------   ------------------------
     0000B850  A$ebike_app$1074                   ebike_app
     0000B850  C$ebike_app.c$584$2_0$458          ebike_app
     0000B851  A$ebike_app$1075                   ebike_app
     0000B852  A$ebike_app$1076                   ebike_app
     0000B853  A$ebike_app$1077                   ebike_app
     0000B855  A$ebike_app$1078                   ebike_app
     0000B857  A$ebike_app$1079                   ebike_app
     0000B858  A$ebike_app$1080                   ebike_app
     0000B85A  A$ebike_app$1081                   ebike_app
     0000B85B  A$ebike_app$1082                   ebike_app
     0000B85E  A$ebike_app$1083                   ebike_app
     0000B860  A$ebike_app$1087                   ebike_app
     0000B860  C$ebike_app.c$588$1_0$430          ebike_app
     0000B862  A$ebike_app$1088                   ebike_app
     0000B864  A$ebike_app$1089                   ebike_app
     0000B866  A$ebike_app$1090                   ebike_app
     0000B867  A$ebike_app$1091                   ebike_app
     0000B86A  A$ebike_app$1092                   ebike_app
     0000B86D  A$ebike_app$1093                   ebike_app
     0000B870  A$ebike_app$1094                   ebike_app
     0000B872  A$ebike_app$1097                   ebike_app
     0000B872  C$ebike_app.c$591$1_0$430          ebike_app
     0000B875  A$ebike_app$1098                   ebike_app
     0000B877  A$ebike_app$1101                   ebike_app
     0000B877  C$ebike_app.c$596$2_0$459          ebike_app
     0000B87A  A$ebike_app$1102                   ebike_app
     0000B87B  A$ebike_app$1103                   ebike_app
     0000B87D  A$ebike_app$1106                   ebike_app
     0000B87D  C$ebike_app.c$597$2_0$459          ebike_app
     0000B87F  A$ebike_app$1107                   ebike_app
     0000B880  A$ebike_app$1108                   ebike_app
     0000B882  A$ebike_app$1111                   ebike_app
     0000B882  C$ebike_app.c$598$2_0$459          ebike_app
     0000B885  A$ebike_app$1112                   ebike_app
     0000B886  A$ebike_app$1113                   ebike_app
     0000B888  A$ebike_app$1117                   ebike_app
     0000B888  C$ebike_app.c$601$3_0$460          ebike_app
     0000B88A  A$ebike_app$1118                   ebike_app
     0000B88B  A$ebike_app$1119                   ebike_app
     0000B88E  A$ebike_app$1120                   ebike_app
     0000B891  A$ebike_app$1121                   ebike_app
     0000B893  A$ebike_app$1122                   ebike_app
     0000B896  A$ebike_app$1126                   ebike_app
     0000B896  C$ebike_app.c$606$1_0$430          ebike_app
     0000B899  A$ebike_app$1127                   ebike_app
     0000B89B  A$ebike_app$1130                   ebike_app
     0000B89B  C$ebike_app.c$608$2_0$461          ebike_app
     0000B89D  A$ebike_app$1131                   ebike_app
     0000B89F  A$ebike_app$1132                   ebike_app
     0000B8A2  A$ebike_app$1133                   ebike_app
     0000B8A4  A$ebike_app$1136                   ebike_app
ASxxxx Linker V03.00 + NoICE + sdld,  page 210.
Hexadecimal  [32-Bits]

Area                                    Addr        Size        Decimal Bytes (Attributes)
--------------------------------        ----        ----        ------- ----- ------------
CODE                                000082B4    0000592D =       22829. bytes (REL,CON)

      Value  Global                              Global Defined In Module
      -----  --------------------------------   ------------------------
     0000B8A4  C$ebike_app.c$610$2_0$461          ebike_app
     0000B8A7  A$ebike_app$1137                   ebike_app
     0000B8A9  A$ebike_app$1138                   ebike_app
     0000B8AC  A$ebike_app$1139                   ebike_app
     0000B8AE  A$ebike_app$1140                   ebike_app
     0000B8B0  A$ebike_app$1143                   ebike_app
     0000B8B0  C$ebike_app.c$611$2_0$461          ebike_app
     0000B8B4  A$ebike_app$1144                   ebike_app
     0000B8B6  A$ebike_app$1148                   ebike_app
     0000B8B6  C$ebike_app.c$612$2_0$461          ebike_app
     0000B8B9  A$ebike_app$1149                   ebike_app
     0000B8BB  A$ebike_app$1150                   ebike_app
     0000B8BE  A$ebike_app$1151                   ebike_app
     0000B8C0  A$ebike_app$1152                   ebike_app
     0000B8C2  A$ebike_app$1155                   ebike_app
     0000B8C2  C$ebike_app.c$613$2_0$461          ebike_app
     0000B8C6  A$ebike_app$1156                   ebike_app
     0000B8C8  A$ebike_app$1160                   ebike_app
     0000B8C8  C$ebike_app.c$615$2_0$461          ebike_app
     0000B8CC  A$ebike_app$1161                   ebike_app
     0000B8CE  A$ebike_app$1165                   ebike_app
     0000B8CE  C$ebike_app.c$633$2_0$462          ebike_app
     0000B8D2  A$ebike_app$1169                   ebike_app
     0000B8D2  C$ebike_app.c$637$1_0$430          ebike_app
     0000B8D6  A$ebike_app$1170                   ebike_app
     0000B8D8  A$ebike_app$1171                   ebike_app
     0000B8DC  A$ebike_app$1172                   ebike_app
     0000B8DE  A$ebike_app$1176                   ebike_app
     0000B8DE  C$ebike_app.c$639$2_0$463          ebike_app
     0000B8E2  A$ebike_app$1179                   ebike_app
     0000B8E2  C$ebike_app.c$640$2_0$463          ebike_app
     0000B8E6  A$ebike_app$1183                   ebike_app
     0000B8E6  C$ebike_app.c$645$1_0$430          ebike_app
     0000B8EA  A$ebike_app$1184                   ebike_app
     0000B8EC  A$ebike_app$1187                   ebike_app
     0000B8EC  C$ebike_app.c$646$1_0$430          ebike_app
     0000B8EF  A$ebike_app$1188                   ebike_app
     0000B8F0  A$ebike_app$1189                   ebike_app
     0000B8F2  A$ebike_app$1192                   ebike_app
     0000B8F2  C$ebike_app.c$647$1_0$430          ebike_app
     0000B8F6  A$ebike_app$1193                   ebike_app
     0000B8F8  A$ebike_app$1196                   ebike_app
     0000B8F8  C$ebike_app.c$649$2_0$464          ebike_app
     0000B8FC  A$ebike_app$1199                   ebike_app
     0000B8FC  C$ebike_app.c$650$2_0$464          ebike_app
     0000B900  A$ebike_app$1202                   ebike_app
     0000B900  C$ebike_app.c$651$2_0$464          ebike_app
     0000B903  A$ebike_app$1206                   ebike_app
     0000B903  C$ebike_app.c$655$1_0$430          ebike_app
     0000B907  A$ebike_app$1207                   ebike_app
     0000B909  A$ebike_app$1210                   ebike_app
ASxxxx Linker V03.00 + NoICE + sdld,  page 211.
Hexadecimal  [32-Bits]

Area                                    Addr        Size        Decimal Bytes (Attributes)
--------------------------------        ----        ----        ------- ----- ------------
CODE                                000082B4    0000592D =       22829. bytes (REL,CON)

      Value  Global                              Global Defined In Module
      -----  --------------------------------   ------------------------
     0000B909  C$ebike_app.c$656$1_0$430          ebike_app
     0000B90C  A$ebike_app$1211                   ebike_app
     0000B90D  A$ebike_app$1212                   ebike_app
     0000B90F  A$ebike_app$1215                   ebike_app
     0000B90F  C$ebike_app.c$657$1_0$430          ebike_app
     0000B913  A$ebike_app$1216                   ebike_app
     0000B915  A$ebike_app$1219                   ebike_app
     0000B915  C$ebike_app.c$658$1_0$430          ebike_app
     0000B919  A$ebike_app$1220                   ebike_app
     0000B91B  A$ebike_app$1223                   ebike_app
     0000B91B  C$ebike_app.c$660$2_0$465          ebike_app
     0000B91F  A$ebike_app$1226                   ebike_app
     0000B91F  C$ebike_app.c$661$2_0$465          ebike_app
     0000B922  A$ebike_app$1230                   ebike_app
     0000B922  C$ebike_app.c$665$1_0$430          ebike_app
     0000B926  A$ebike_app$1231                   ebike_app
     0000B928  A$ebike_app$1234                   ebike_app
     0000B928  C$ebike_app.c$668$2_0$466          ebike_app
     0000B92B  A$ebike_app$1235                   ebike_app
     0000B92E  A$ebike_app$1236                   ebike_app
     0000B92F  A$ebike_app$1239                   ebike_app
     0000B92F  C$ebike_app.c$669$2_0$466          ebike_app
     0000B932  A$ebike_app$1240                   ebike_app
     0000B935  A$ebike_app$1241                   ebike_app
     0000B936  A$ebike_app$1242                   ebike_app
     0000B938  A$ebike_app$1246                   ebike_app
     0000B938  C$ebike_app.c$674$2_0$467          ebike_app
     0000B93A  A$ebike_app$1247                   ebike_app
     0000B93D  A$ebike_app$1248                   ebike_app
     0000B93E  A$ebike_app$1251                   ebike_app
     0000B93E  C$ebike_app.c$675$2_0$467          ebike_app
     0000B940  A$ebike_app$1252                   ebike_app
     0000B943  A$ebike_app$1253                   ebike_app
     0000B944  A$ebike_app$1256                   ebike_app
     0000B944  C$ebike_app.c$676$2_0$467          ebike_app
     0000B948  A$ebike_app$1260                   ebike_app
     0000B948  C$ebike_app.c$685$1_0$430          ebike_app
     0000B94C  A$ebike_app$1261                   ebike_app
     0000B94E  A$ebike_app$1262                   ebike_app
     0000B951  A$ebike_app$1264                   ebike_app
     0000B955  A$ebike_app$1265                   ebike_app
     0000B957  A$ebike_app$1266                   ebike_app
     0000B95A  A$ebike_app$1270                   ebike_app
     0000B95A  C$ebike_app.c$688$2_0$468          ebike_app
     0000B95E  A$ebike_app$1271                   ebike_app
     0000B960  A$ebike_app$1272                   ebike_app
     0000B963  A$ebike_app$1276                   ebike_app
     0000B963  C$ebike_app.c$691$3_0$469          ebike_app
     0000B967  A$ebike_app$1277                   ebike_app
     0000B969  A$ebike_app$1280                   ebike_app
     0000B969  C$ebike_app.c$694$4_0$470          ebike_app
ASxxxx Linker V03.00 + NoICE + sdld,  page 212.
Hexadecimal  [32-Bits]

Area                                    Addr        Size        Decimal Bytes (Attributes)
--------------------------------        ----        ----        ------- ----- ------------
CODE                                000082B4    0000592D =       22829. bytes (REL,CON)

      Value  Global                              Global Defined In Module
      -----  --------------------------------   ------------------------
     0000B96D  A$ebike_app$1283                   ebike_app
     0000B96D  C$ebike_app.c$697$4_0$470          ebike_app
     0000B971  A$ebike_app$1286                   ebike_app
     0000B971  C$ebike_app.c$700$4_0$470          ebike_app
     0000B974  A$ebike_app$1287                   ebike_app
     0000B977  A$ebike_app$1288                   ebike_app
     0000B979  A$ebike_app$1291                   ebike_app
     0000B979  C$ebike_app.c$701$4_0$470          ebike_app
     0000B97D  A$ebike_app$1292                   ebike_app
     0000B97F  A$ebike_app$1296                   ebike_app
     0000B97F  C$ebike_app.c$703$4_0$470          ebike_app
     0000B982  A$ebike_app$1297                   ebike_app
     0000B983  A$ebike_app$1298                   ebike_app
     0000B986  A$ebike_app$1299                   ebike_app
     0000B987  A$ebike_app$1300                   ebike_app
     0000B988  A$ebike_app$1301                   ebike_app
     0000B989  A$ebike_app$1302                   ebike_app
     0000B98A  A$ebike_app$1303                   ebike_app
     0000B98B  A$ebike_app$1304                   ebike_app
     0000B98E  A$ebike_app$1308                   ebike_app
     0000B98E  C$ebike_app.c$707$3_0$469          ebike_app
     0000B991  A$ebike_app$1309                   ebike_app
     0000B993  A$ebike_app$1310                   ebike_app
     0000B995  A$ebike_app$1311                   ebike_app
     0000B996  A$ebike_app$1312                   ebike_app
     0000B999  A$ebike_app$1313                   ebike_app
     0000B99A  A$ebike_app$1314                   ebike_app
     0000B99D  A$ebike_app$1315                   ebike_app
     0000B9A0  A$ebike_app$1316                   ebike_app
     0000B9A2  A$ebike_app$1317                   ebike_app
     0000B9A4  A$ebike_app$1318                   ebike_app
     0000B9A6  A$ebike_app$1319                   ebike_app
     0000B9A8  A$ebike_app$1322                   ebike_app
     0000B9A8  C$ebike_app.c$708$3_0$469          ebike_app
     0000B9AB  A$ebike_app$1323                   ebike_app
     0000B9AE  A$ebike_app$1324                   ebike_app
     0000B9B1  A$ebike_app$1325                   ebike_app
     0000B9B3  A$ebike_app$1329                   ebike_app
     0000B9B3  C$ebike_app.c$710$3_0$469          ebike_app
     0000B9B6  A$ebike_app$1330                   ebike_app
     0000B9B9  A$ebike_app$1334                   ebike_app
     0000B9B9  C$ebike_app.c$713$3_0$469          ebike_app
     0000B9BC  A$ebike_app$1335                   ebike_app
     0000B9BF  A$ebike_app$1336                   ebike_app
     0000B9C0  A$ebike_app$1337                   ebike_app
     0000B9C2  A$ebike_app$1341                   ebike_app
     0000B9C2  C$ebike_app.c$717$3_0$471          ebike_app
     0000B9C4  A$ebike_app$1342                   ebike_app
     0000B9C7  A$ebike_app$1343                   ebike_app
     0000B9C8  A$ebike_app$1344                   ebike_app
     0000B9CA  A$ebike_app$1348                   ebike_app
ASxxxx Linker V03.00 + NoICE + sdld,  page 213.
Hexadecimal  [32-Bits]

Area                                    Addr        Size        Decimal Bytes (Attributes)
--------------------------------        ----        ----        ------- ----- ------------
CODE                                000082B4    0000592D =       22829. bytes (REL,CON)

      Value  Global                              Global Defined In Module
      -----  --------------------------------   ------------------------
     0000B9CA  C$ebike_app.c$723$2_0$472          ebike_app
     0000B9CC  A$ebike_app$1349                   ebike_app
     0000B9CF  A$ebike_app$1350                   ebike_app
     0000B9D0  A$ebike_app$1353                   ebike_app
     0000B9D0  C$ebike_app.c$726$2_0$472          ebike_app
     0000B9D4  A$ebike_app$1356                   ebike_app
     0000B9D4  C$ebike_app.c$727$2_0$472          ebike_app
     0000B9D8  A$ebike_app$1359                   ebike_app
     0000B9D8  C$ebike_app.c$728$2_0$472          ebike_app
     0000B9DC  A$ebike_app$1362                   ebike_app
     0000B9DC  C$ebike_app.c$729$2_0$472          ebike_app
     0000B9E0  A$ebike_app$1366                   ebike_app
     0000B9E2  A$ebike_app$1369                   ebike_app
     0000B9E2  C$ebike_app.c$731$1_0$430          ebike_app
     0000B9E2  XFebike_app$ebike_control_motor$   ebike_app
     0000B9E3  A$ebike_app$1377                   ebike_app
     0000B9E3  C$ebike_app.c$736$1_0$474          ebike_app
     0000B9E3  Febike_app$check_battery_soc$0$0   ebike_app
     0000B9E5  A$ebike_app$1380                   ebike_app
     0000B9E5  C$ebike_app.c$747$1_0$474          ebike_app
     0000B9E8  A$ebike_app$1381                   ebike_app
     0000B9EA  A$ebike_app$1384                   ebike_app
     0000B9EA  C$ebike_app.c$750$1_0$474          ebike_app
     0000B9ED  A$ebike_app$1385                   ebike_app
     0000B9EF  A$ebike_app$1386                   ebike_app
     0000B9F2  A$ebike_app$1387                   ebike_app
     0000B9F3  A$ebike_app$1388                   ebike_app
     0000B9F5  A$ebike_app$1389                   ebike_app
     0000B9F7  A$ebike_app$1390                   ebike_app
     0000B9F8  A$ebike_app$1391                   ebike_app
     0000B9FA  A$ebike_app$1392                   ebike_app
     0000B9FC  A$ebike_app$1393                   ebike_app
     0000BA00  A$ebike_app$1394                   ebike_app
     0000BA03  A$ebike_app$1395                   ebike_app
     0000BA06  A$ebike_app$1396                   ebike_app
     0000BA07  A$ebike_app$1397                   ebike_app
     0000BA09  A$ebike_app$1398                   ebike_app
     0000BA0A  A$ebike_app$1399                   ebike_app
     0000BA0B  A$ebike_app$1400                   ebike_app
     0000BA0E  A$ebike_app$1401                   ebike_app
     0000BA0F  A$ebike_app$1402                   ebike_app
     0000BA11  A$ebike_app$1403                   ebike_app
     0000BA12  A$ebike_app$1404                   ebike_app
     0000BA13  A$ebike_app$1405                   ebike_app
     0000BA17  A$ebike_app$1406                   ebike_app
     0000BA1A  A$ebike_app$1409                   ebike_app
     0000BA1A  C$ebike_app.c$751$1_0$474          ebike_app
     0000BA1C  A$ebike_app$1410                   ebike_app
     0000BA1D  A$ebike_app$1411                   ebike_app
     0000BA1F  A$ebike_app$1412                   ebike_app
     0000BA21  A$ebike_app$1413                   ebike_app
ASxxxx Linker V03.00 + NoICE + sdld,  page 214.
Hexadecimal  [32-Bits]

Area                                    Addr        Size        Decimal Bytes (Attributes)
--------------------------------        ----        ----        ------- ----- ------------
CODE                                000082B4    0000592D =       22829. bytes (REL,CON)

      Value  Global                              Global Defined In Module
      -----  --------------------------------   ------------------------
     0000BA24  A$ebike_app$1414                   ebike_app
     0000BA26  A$ebike_app$1415                   ebike_app
     0000BA28  A$ebike_app$1416                   ebike_app
     0000BA2A  A$ebike_app$1417                   ebike_app
     0000BA2D  A$ebike_app$1418                   ebike_app
     0000BA30  A$ebike_app$1419                   ebike_app
     0000BA34  A$ebike_app$1420                   ebike_app
     0000BA36  A$ebike_app$1421                   ebike_app
     0000BA38  A$ebike_app$1423                   ebike_app
     0000BA3B  A$ebike_app$1424                   ebike_app
     0000BA3E  A$ebike_app$1425                   ebike_app
     0000BA42  A$ebike_app$1428                   ebike_app
     0000BA42  C$ebike_app.c$752$1_0$474          ebike_app
     0000BA45  A$ebike_app$1429                   ebike_app
     0000BA49  A$ebike_app$1430                   ebike_app
     0000BA4B  A$ebike_app$1431                   ebike_app
     0000BA4C  A$ebike_app$1432                   ebike_app
     0000BA4E  A$ebike_app$1433                   ebike_app
     0000BA4F  A$ebike_app$1434                   ebike_app
     0000BA51  A$ebike_app$1435                   ebike_app
     0000BA53  A$ebike_app$1436                   ebike_app
     0000BA55  A$ebike_app$1437                   ebike_app
     0000BA57  A$ebike_app$1438                   ebike_app
     0000BA58  A$ebike_app$1439                   ebike_app
     0000BA5A  A$ebike_app$1440                   ebike_app
     0000BA5D  A$ebike_app$1441                   ebike_app
     0000BA5F  A$ebike_app$1442                   ebike_app
     0000BA61  A$ebike_app$1445                   ebike_app
     0000BA61  C$ebike_app.c$755$1_0$474          ebike_app
     0000BA64  A$ebike_app$1446                   ebike_app
     0000BA65  A$ebike_app$1447                   ebike_app
     0000BA68  A$ebike_app$1448                   ebike_app
     0000BA69  A$ebike_app$1449                   ebike_app
     0000BA6A  A$ebike_app$1450                   ebike_app
     0000BA6C  A$ebike_app$1451                   ebike_app
     0000BA6E  A$ebike_app$1452                   ebike_app
     0000BA70  A$ebike_app$1453                   ebike_app
     0000BA72  A$ebike_app$1454                   ebike_app
     0000BA74  A$ebike_app$1455                   ebike_app
     0000BA77  A$ebike_app$1456                   ebike_app
     0000BA79  A$ebike_app$1457                   ebike_app
     0000BA7A  A$ebike_app$1458                   ebike_app
     0000BA7C  A$ebike_app$1459                   ebike_app
     0000BA7F  A$ebike_app$1460                   ebike_app
     0000BA81  A$ebike_app$1463                   ebike_app
     0000BA81  C$ebike_app.c$758$1_0$474          ebike_app
     0000BA84  A$ebike_app$1464                   ebike_app
     0000BA85  A$ebike_app$1465                   ebike_app
     0000BA86  A$ebike_app$1466                   ebike_app
     0000BA87  A$ebike_app$1467                   ebike_app
     0000BA8B  A$ebike_app$1468                   ebike_app
ASxxxx Linker V03.00 + NoICE + sdld,  page 215.
Hexadecimal  [32-Bits]

Area                                    Addr        Size        Decimal Bytes (Attributes)
--------------------------------        ----        ----        ------- ----- ------------
CODE                                000082B4    0000592D =       22829. bytes (REL,CON)

      Value  Global                              Global Defined In Module
      -----  --------------------------------   ------------------------
     0000BA8E  A$ebike_app$1471                   ebike_app
     0000BA8E  C$ebike_app.c$759$1_0$474          ebike_app
     0000BA8F  A$ebike_app$1472                   ebike_app
     0000BA90  A$ebike_app$1473                   ebike_app
     0000BA94  A$ebike_app$1474                   ebike_app
     0000BA97  A$ebike_app$1477                   ebike_app
     0000BA97  C$ebike_app.c$760$1_0$474          ebike_app
     0000BA9A  A$ebike_app$1478                   ebike_app
     0000BA9B  A$ebike_app$1479                   ebike_app
     0000BA9C  A$ebike_app$1482                   ebike_app
     0000BA9C  C$ebike_app.c$763$1_0$474          ebike_app
     0000BAA0  A$ebike_app$1483                   ebike_app
     0000BAA1  A$ebike_app$1484                   ebike_app
     0000BAA3  A$ebike_app$1485                   ebike_app
     0000BAA6  A$ebike_app$1486                   ebike_app
     0000BAA8  A$ebike_app$1487                   ebike_app
     0000BAAA  A$ebike_app$1488                   ebike_app
     0000BAAC  A$ebike_app$1489                   ebike_app
     0000BAAE  A$ebike_app$1490                   ebike_app
     0000BAB0  A$ebike_app$1491                   ebike_app
     0000BAB1  A$ebike_app$1492                   ebike_app
     0000BAB3  A$ebike_app$1493                   ebike_app
     0000BAB6  A$ebike_app$1494                   ebike_app
     0000BAB8  A$ebike_app$1497                   ebike_app
     0000BAB8  C$ebike_app.c$765$1_0$474          ebike_app
     0000BABB  A$ebike_app$1498                   ebike_app
     0000BABD  A$ebike_app$1501                   ebike_app
     0000BABD  C$ebike_app.c$768$1_0$474          ebike_app
     0000BAC0  A$ebike_app$1502                   ebike_app
     0000BAC1  A$ebike_app$1503                   ebike_app
     0000BAC3  A$ebike_app$1504                   ebike_app
     0000BAC4  A$ebike_app$1507                   ebike_app
     0000BAC4  C$ebike_app.c$771$1_0$474          ebike_app
     0000BAC7  A$ebike_app$1508                   ebike_app
     0000BAC8  A$ebike_app$1509                   ebike_app
     0000BAC9  A$ebike_app$1510                   ebike_app
     0000BACC  A$ebike_app$1511                   ebike_app
     0000BACD  A$ebike_app$1512                   ebike_app
     0000BACF  A$ebike_app$1513                   ebike_app
     0000BAD1  A$ebike_app$1514                   ebike_app
     0000BAD4  A$ebike_app$1518                   ebike_app
     0000BAD4  C$ebike_app.c$773$2_0$475          ebike_app
     0000BAD8  A$ebike_app$1521                   ebike_app
     0000BAD8  C$ebike_app.c$776$1_0$474          ebike_app
     0000BAD9  A$ebike_app$1522                   ebike_app
     0000BADA  A$ebike_app$1523                   ebike_app
     0000BADD  A$ebike_app$1524                   ebike_app
     0000BADE  A$ebike_app$1525                   ebike_app
     0000BAE0  A$ebike_app$1526                   ebike_app
     0000BAE2  A$ebike_app$1527                   ebike_app
     0000BAE4  A$ebike_app$1528                   ebike_app
ASxxxx Linker V03.00 + NoICE + sdld,  page 216.
Hexadecimal  [32-Bits]

Area                                    Addr        Size        Decimal Bytes (Attributes)
--------------------------------        ----        ----        ------- ----- ------------
CODE                                000082B4    0000592D =       22829. bytes (REL,CON)

      Value  Global                              Global Defined In Module
      -----  --------------------------------   ------------------------
     0000BAE5  A$ebike_app$1529                   ebike_app
     0000BAE7  A$ebike_app$1530                   ebike_app
     0000BAE8  A$ebike_app$1531                   ebike_app
     0000BAE9  A$ebike_app$1532                   ebike_app
     0000BAEA  A$ebike_app$1533                   ebike_app
     0000BAEC  A$ebike_app$1534                   ebike_app
     0000BAEE  A$ebike_app$1535                   ebike_app
     0000BAF1  A$ebike_app$1536                   ebike_app
     0000BAF3  A$ebike_app$1537                   ebike_app
     0000BAF4  A$ebike_app$1538                   ebike_app
     0000BAF6  A$ebike_app$1539                   ebike_app
     0000BAF9  A$ebike_app$1540                   ebike_app
     0000BAFB  A$ebike_app$1541                   ebike_app
     0000BAFD  A$ebike_app$1542                   ebike_app
     0000BAFF  A$ebike_app$1543                   ebike_app
     0000BB03  A$ebike_app$1544                   ebike_app
     0000BB06  A$ebike_app$1548                   ebike_app
     0000BB06  C$ebike_app.c$777$1_0$474          ebike_app
     0000BB08  A$ebike_app$1549                   ebike_app
     0000BB09  A$ebike_app$1550                   ebike_app
     0000BB0B  A$ebike_app$1551                   ebike_app
     0000BB0C  A$ebike_app$1552                   ebike_app
     0000BB0E  A$ebike_app$1553                   ebike_app
     0000BB10  A$ebike_app$1554                   ebike_app
     0000BB12  A$ebike_app$1555                   ebike_app
     0000BB14  A$ebike_app$1556                   ebike_app
     0000BB17  A$ebike_app$1557                   ebike_app
     0000BB19  A$ebike_app$1558                   ebike_app
     0000BB1A  A$ebike_app$1559                   ebike_app
     0000BB1C  A$ebike_app$1560                   ebike_app
     0000BB1F  A$ebike_app$1561                   ebike_app
     0000BB21  A$ebike_app$1562                   ebike_app
     0000BB23  A$ebike_app$1563                   ebike_app
     0000BB25  A$ebike_app$1564                   ebike_app
     0000BB29  A$ebike_app$1565                   ebike_app
     0000BB2C  A$ebike_app$1569                   ebike_app
     0000BB2C  C$ebike_app.c$778$1_0$474          ebike_app
     0000BB2E  A$ebike_app$1570                   ebike_app
     0000BB2F  A$ebike_app$1571                   ebike_app
     0000BB31  A$ebike_app$1572                   ebike_app
     0000BB32  A$ebike_app$1573                   ebike_app
     0000BB34  A$ebike_app$1574                   ebike_app
     0000BB36  A$ebike_app$1575                   ebike_app
     0000BB38  A$ebike_app$1576                   ebike_app
     0000BB3A  A$ebike_app$1577                   ebike_app
     0000BB3D  A$ebike_app$1578                   ebike_app
     0000BB3F  A$ebike_app$1579                   ebike_app
     0000BB40  A$ebike_app$1580                   ebike_app
     0000BB42  A$ebike_app$1581                   ebike_app
     0000BB45  A$ebike_app$1582                   ebike_app
     0000BB47  A$ebike_app$1583                   ebike_app
ASxxxx Linker V03.00 + NoICE + sdld,  page 217.
Hexadecimal  [32-Bits]

Area                                    Addr        Size        Decimal Bytes (Attributes)
--------------------------------        ----        ----        ------- ----- ------------
CODE                                000082B4    0000592D =       22829. bytes (REL,CON)

      Value  Global                              Global Defined In Module
      -----  --------------------------------   ------------------------
     0000BB49  A$ebike_app$1584                   ebike_app
     0000BB4B  A$ebike_app$1585                   ebike_app
     0000BB4F  A$ebike_app$1586                   ebike_app
     0000BB52  A$ebike_app$1590                   ebike_app
     0000BB52  C$ebike_app.c$779$1_0$474          ebike_app
     0000BB54  A$ebike_app$1591                   ebike_app
     0000BB55  A$ebike_app$1592                   ebike_app
     0000BB57  A$ebike_app$1593                   ebike_app
     0000BB58  A$ebike_app$1594                   ebike_app
     0000BB5A  A$ebike_app$1595                   ebike_app
     0000BB5C  A$ebike_app$1596                   ebike_app
     0000BB5E  A$ebike_app$1597                   ebike_app
     0000BB60  A$ebike_app$1598                   ebike_app
     0000BB63  A$ebike_app$1599                   ebike_app
     0000BB65  A$ebike_app$1600                   ebike_app
     0000BB66  A$ebike_app$1601                   ebike_app
     0000BB68  A$ebike_app$1602                   ebike_app
     0000BB6B  A$ebike_app$1603                   ebike_app
     0000BB6D  A$ebike_app$1604                   ebike_app
     0000BB6F  A$ebike_app$1605                   ebike_app
     0000BB71  A$ebike_app$1606                   ebike_app
     0000BB75  A$ebike_app$1607                   ebike_app
     0000BB77  A$ebike_app$1611                   ebike_app
     0000BB77  C$ebike_app.c$780$1_0$474          ebike_app
     0000BB79  A$ebike_app$1612                   ebike_app
     0000BB7A  A$ebike_app$1613                   ebike_app
     0000BB7C  A$ebike_app$1614                   ebike_app
     0000BB7D  A$ebike_app$1615                   ebike_app
     0000BB7F  A$ebike_app$1616                   ebike_app
     0000BB81  A$ebike_app$1617                   ebike_app
     0000BB83  A$ebike_app$1618                   ebike_app
     0000BB85  A$ebike_app$1619                   ebike_app
     0000BB88  A$ebike_app$1620                   ebike_app
     0000BB8A  A$ebike_app$1621                   ebike_app
     0000BB8B  A$ebike_app$1622                   ebike_app
     0000BB8D  A$ebike_app$1623                   ebike_app
     0000BB90  A$ebike_app$1624                   ebike_app
     0000BB92  A$ebike_app$1625                   ebike_app
     0000BB94  A$ebike_app$1626                   ebike_app
     0000BB96  A$ebike_app$1627                   ebike_app
     0000BB9A  A$ebike_app$1628                   ebike_app
     0000BB9C  A$ebike_app$1632                   ebike_app
     0000BB9C  C$ebike_app.c$781$1_0$474          ebike_app
     0000BB9E  A$ebike_app$1633                   ebike_app
     0000BB9F  A$ebike_app$1634                   ebike_app
     0000BBA1  A$ebike_app$1635                   ebike_app
     0000BBA2  A$ebike_app$1636                   ebike_app
     0000BBA4  A$ebike_app$1637                   ebike_app
     0000BBA6  A$ebike_app$1638                   ebike_app
     0000BBA8  A$ebike_app$1639                   ebike_app
     0000BBAA  A$ebike_app$1640                   ebike_app
ASxxxx Linker V03.00 + NoICE + sdld,  page 218.
Hexadecimal  [32-Bits]

Area                                    Addr        Size        Decimal Bytes (Attributes)
--------------------------------        ----        ----        ------- ----- ------------
CODE                                000082B4    0000592D =       22829. bytes (REL,CON)

      Value  Global                              Global Defined In Module
      -----  --------------------------------   ------------------------
     0000BBAD  A$ebike_app$1641                   ebike_app
     0000BBAF  A$ebike_app$1642                   ebike_app
     0000BBB0  A$ebike_app$1643                   ebike_app
     0000BBB2  A$ebike_app$1644                   ebike_app
     0000BBB5  A$ebike_app$1645                   ebike_app
     0000BBB7  A$ebike_app$1646                   ebike_app
     0000BBB9  A$ebike_app$1647                   ebike_app
     0000BBBB  A$ebike_app$1648                   ebike_app
     0000BBBF  A$ebike_app$1649                   ebike_app
     0000BBC1  A$ebike_app$1653                   ebike_app
     0000BBC1  C$ebike_app.c$782$3_0$482          ebike_app
     0000BBC5  A$ebike_app$1657                   ebike_app
     0000BBC7  A$ebike_app$1660                   ebike_app
     0000BBC7  C$ebike_app.c$807$1_0$474          ebike_app
     0000BBC7  XFebike_app$check_battery_soc$0$   ebike_app
     0000BBC8  A$ebike_app$1668                   ebike_app
     0000BBC8  C$ebike_app.c$812$1_0$484          ebike_app
     0000BBC8  Febike_app$uart_receive_package$   ebike_app
     0000BBCA  A$ebike_app$1671                   ebike_app
     0000BBCA  C$ebike_app.c$820$1_0$484          ebike_app
     0000BBCD  A$ebike_app$1672                   ebike_app
     0000BBCE  A$ebike_app$1673                   ebike_app
     0000BBD1  A$ebike_app$1676                   ebike_app
     0000BBD1  C$ebike_app.c$823$1_0$484          ebike_app
     0000BBD5  A$ebike_app$1679                   ebike_app
     0000BBD5  C$ebike_app.c$825$1_0$484          ebike_app
     0000BBD9  A$ebike_app$1680                   ebike_app
     0000BBDB  A$ebike_app$1681                   ebike_app
     0000BBDE  A$ebike_app$1685                   ebike_app
     0000BBDE  C$ebike_app.c$828$2_0$485          ebike_app
     0000BBE0  A$ebike_app$1688                   ebike_app
     0000BBE0  C$ebike_app.c$829$1_0$484          ebike_app
     0000BBE2  A$ebike_app$1692                   ebike_app
     0000BBE2  C$ebike_app.c$831$4_0$487          ebike_app
     0000BBE3  A$ebike_app$1693                   ebike_app
     0000BBE5  A$ebike_app$1694                   ebike_app
     0000BBE6  A$ebike_app$1695                   ebike_app
     0000BBE9  A$ebike_app$1696                   ebike_app
     0000BBEA  A$ebike_app$1697                   ebike_app
     0000BBEC  A$ebike_app$1698                   ebike_app
     0000BBEE  A$ebike_app$1701                   ebike_app
     0000BBEE  C$ebike_app.c$829$3_0$486          ebike_app
     0000BBF0  A$ebike_app$1702                   ebike_app
     0000BBF2  A$ebike_app$1703                   ebike_app
     0000BBF4  A$ebike_app$1704                   ebike_app
     0000BBF6  A$ebike_app$1707                   ebike_app
     0000BBF6  C$ebike_app.c$835$2_0$485          ebike_app
     0000BBF9  A$ebike_app$1708                   ebike_app
     0000BBFB  A$ebike_app$1709                   ebike_app
     0000BBFD  A$ebike_app$1710                   ebike_app
     0000BC00  A$ebike_app$1714                   ebike_app
ASxxxx Linker V03.00 + NoICE + sdld,  page 219.
Hexadecimal  [32-Bits]

Area                                    Addr        Size        Decimal Bytes (Attributes)
--------------------------------        ----        ----        ------- ----- ------------
CODE                                000082B4    0000592D =       22829. bytes (REL,CON)

      Value  Global                              Global Defined In Module
      -----  --------------------------------   ------------------------
     0000BC00  C$ebike_app.c$838$3_0$488          ebike_app
     0000BC04  A$ebike_app$1717                   ebike_app
     0000BC04  C$ebike_app.c$841$3_0$488          ebike_app
     0000BC07  A$ebike_app$1718                   ebike_app
     0000BC09  A$ebike_app$1719                   ebike_app
     0000BC0C  A$ebike_app$1722                   ebike_app
     0000BC0C  C$ebike_app.c$843$3_0$488          ebike_app
     0000BC0F  A$ebike_app$1723                   ebike_app
     0000BC11  A$ebike_app$1724                   ebike_app
     0000BC13  A$ebike_app$1725                   ebike_app
     0000BC15  A$ebike_app$1726                   ebike_app
     0000BC18  A$ebike_app$1728                   ebike_app
     0000BC1A  A$ebike_app$1729                   ebike_app
     0000BC1C  A$ebike_app$1730                   ebike_app
     0000BC1E  A$ebike_app$1731                   ebike_app
     0000BC21  A$ebike_app$1733                   ebike_app
     0000BC23  A$ebike_app$1734                   ebike_app
     0000BC25  A$ebike_app$1735                   ebike_app
     0000BC27  A$ebike_app$1736                   ebike_app
     0000BC2A  A$ebike_app$1738                   ebike_app
     0000BC2C  A$ebike_app$1739                   ebike_app
     0000BC2E  A$ebike_app$1740                   ebike_app
     0000BC30  A$ebike_app$1741                   ebike_app
     0000BC32  A$ebike_app$1742                   ebike_app
     0000BC34  A$ebike_app$1743                   ebike_app
     0000BC36  A$ebike_app$1744                   ebike_app
     0000BC39  A$ebike_app$1750                   ebike_app
     0000BC39  C$ebike_app.c$845$4_0$489          ebike_app
     0000BC39  C$ebike_app.c$847$4_0$489          ebike_app
     0000BC3D  A$ebike_app$1753                   ebike_app
     0000BC3D  C$ebike_app.c$850$4_0$489          ebike_app
     0000BC41  A$ebike_app$1756                   ebike_app
     0000BC41  C$ebike_app.c$853$4_0$489          ebike_app
     0000BC44  A$ebike_app$1757                   ebike_app
     0000BC47  A$ebike_app$1760                   ebike_app
     0000BC47  C$ebike_app.c$856$4_0$489          ebike_app
     0000BC4B  A$ebike_app$1763                   ebike_app
     0000BC4B  C$ebike_app.c$857$4_0$489          ebike_app
     0000BC4F  A$ebike_app$1766                   ebike_app
     0000BC4F  C$ebike_app.c$858$4_0$489          ebike_app
     0000BC53  A$ebike_app$1769                   ebike_app
     0000BC53  C$ebike_app.c$859$4_0$489          ebike_app
     0000BC57  A$ebike_app$1772                   ebike_app
     0000BC57  C$ebike_app.c$865$4_0$489          ebike_app
     0000BC5A  A$ebike_app$1778                   ebike_app
     0000BC5A  C$ebike_app.c$867$4_0$489          ebike_app
     0000BC5A  C$ebike_app.c$869$4_0$489          ebike_app
     0000BC5D  A$ebike_app$1779                   ebike_app
     0000BC60  A$ebike_app$1782                   ebike_app
     0000BC60  C$ebike_app.c$872$4_0$489          ebike_app
     0000BC63  A$ebike_app$1783                   ebike_app
ASxxxx Linker V03.00 + NoICE + sdld,  page 220.
Hexadecimal  [32-Bits]

Area                                    Addr        Size        Decimal Bytes (Attributes)
--------------------------------        ----        ----        ------- ----- ------------
CODE                                000082B4    0000592D =       22829. bytes (REL,CON)

      Value  Global                              Global Defined In Module
      -----  --------------------------------   ------------------------
     0000BC66  A$ebike_app$1786                   ebike_app
     0000BC66  C$ebike_app.c$879$4_0$489          ebike_app
     0000BC69  A$ebike_app$1787                   ebike_app
     0000BC6C  A$ebike_app$1790                   ebike_app
     0000BC6C  C$ebike_app.c$881$4_0$489          ebike_app
     0000BC6F  A$ebike_app$1796                   ebike_app
     0000BC6F  C$ebike_app.c$883$4_0$489          ebike_app
     0000BC6F  C$ebike_app.c$885$4_0$489          ebike_app
     0000BC72  A$ebike_app$1797                   ebike_app
     0000BC75  A$ebike_app$1800                   ebike_app
     0000BC75  C$ebike_app.c$888$4_0$489          ebike_app
     0000BC78  A$ebike_app$1801                   ebike_app
     0000BC7B  A$ebike_app$1804                   ebike_app
     0000BC7B  C$ebike_app.c$891$4_0$489          ebike_app
     0000BC7E  A$ebike_app$1805                   ebike_app
     0000BC81  A$ebike_app$1808                   ebike_app
     0000BC81  C$ebike_app.c$899$4_0$489          ebike_app
     0000BC83  A$ebike_app$1814                   ebike_app
     0000BC83  C$ebike_app.c$901$4_0$489          ebike_app
     0000BC83  C$ebike_app.c$903$4_0$489          ebike_app
     0000BC86  A$ebike_app$1815                   ebike_app
     0000BC89  A$ebike_app$1818                   ebike_app
     0000BC89  C$ebike_app.c$906$4_0$489          ebike_app
     0000BC8C  A$ebike_app$1819                   ebike_app
     0000BC8F  A$ebike_app$1822                   ebike_app
     0000BC8F  C$ebike_app.c$909$4_0$489          ebike_app
     0000BC92  A$ebike_app$1823                   ebike_app
     0000BC95  A$ebike_app$1826                   ebike_app
     0000BC95  C$ebike_app.c$910$4_0$489          ebike_app
     0000BC97  A$ebike_app$1832                   ebike_app
     0000BC97  C$ebike_app.c$912$4_0$489          ebike_app
     0000BC97  C$ebike_app.c$914$4_0$489          ebike_app
     0000BC9A  A$ebike_app$1833                   ebike_app
     0000BC9D  A$ebike_app$1836                   ebike_app
     0000BC9D  C$ebike_app.c$917$4_0$489          ebike_app
     0000BCA0  A$ebike_app$1837                   ebike_app
     0000BCA3  A$ebike_app$1840                   ebike_app
     0000BCA3  C$ebike_app.c$920$4_0$489          ebike_app
     0000BCA6  A$ebike_app$1841                   ebike_app
     0000BCA9  A$ebike_app$1847                   ebike_app
     0000BCA9  C$ebike_app.c$926$3_0$488          ebike_app
     0000BCA9  C$ebike_app.c$932$3_0$488          ebike_app
     0000BCAC  A$ebike_app$1850                   ebike_app
     0000BCAC  C$ebike_app.c$950$3_0$488          ebike_app
     0000BCAF  A$ebike_app$1851                   ebike_app
     0000BCB1  A$ebike_app$1852                   ebike_app
     0000BCB3  A$ebike_app$1853                   ebike_app
     0000BCB6  A$ebike_app$1857                   ebike_app
     0000BCB6  C$ebike_app.c$953$4_0$491          ebike_app
     0000BCB9  A$ebike_app$1858                   ebike_app
     0000BCBA  A$ebike_app$1859                   ebike_app
ASxxxx Linker V03.00 + NoICE + sdld,  page 221.
Hexadecimal  [32-Bits]

Area                                    Addr        Size        Decimal Bytes (Attributes)
--------------------------------        ----        ----        ------- ----- ------------
CODE                                000082B4    0000592D =       22829. bytes (REL,CON)

      Value  Global                              Global Defined In Module
      -----  --------------------------------   ------------------------
     0000BCBC  A$ebike_app$1862                   ebike_app
     0000BCBC  C$ebike_app.c$956$5_0$492          ebike_app
     0000BCC0  A$ebike_app$1863                   ebike_app
     0000BCC2  A$ebike_app$1864                   ebike_app
     0000BCC5  A$ebike_app$1868                   ebike_app
     0000BCC5  C$ebike_app.c$959$6_0$493          ebike_app
     0000BCC9  A$ebike_app$1869                   ebike_app
     0000BCCB  A$ebike_app$1872                   ebike_app
     0000BCCB  C$ebike_app.c$962$7_0$494          ebike_app
     0000BCCF  A$ebike_app$1875                   ebike_app
     0000BCCF  C$ebike_app.c$964$7_0$494          ebike_app
     0000BCD2  A$ebike_app$1876                   ebike_app
     0000BCD3  A$ebike_app$1877                   ebike_app
     0000BCD5  A$ebike_app$1880                   ebike_app
     0000BCD5  C$ebike_app.c$966$7_0$494          ebike_app
     0000BCD9  A$ebike_app$1881                   ebike_app
     0000BCDB  A$ebike_app$1885                   ebike_app
     0000BCDB  C$ebike_app.c$969$7_0$494          ebike_app
     0000BCDF  A$ebike_app$1889                   ebike_app
     0000BCDF  C$ebike_app.c$972$7_0$494          ebike_app
     0000BCE3  A$ebike_app$1893                   ebike_app
     0000BCE3  C$ebike_app.c$976$6_0$493          ebike_app
     0000BCE6  A$ebike_app$1894                   ebike_app
     0000BCE8  A$ebike_app$1895                   ebike_app
     0000BCEA  A$ebike_app$1898                   ebike_app
     0000BCEA  C$ebike_app.c$984$7_0$495          ebike_app
     0000BCEE  A$ebike_app$1899                   ebike_app
     0000BCF0  A$ebike_app$1903                   ebike_app
     0000BCF0  C$ebike_app.c$991$5_0$496          ebike_app
     0000BCF4  A$ebike_app$1904                   ebike_app
     0000BCF6  A$ebike_app$1907                   ebike_app
     0000BCF6  C$ebike_app.c$994$6_0$497          ebike_app
     0000BCFA  A$ebike_app$1908                   ebike_app
     0000BCFC  A$ebike_app$1911                   ebike_app
     0000BCFC  C$ebike_app.c$997$7_0$498          ebike_app
     0000BD00  A$ebike_app$1914                   ebike_app
     0000BD00  C$ebike_app.c$999$7_0$498          ebike_app
     0000BD03  A$ebike_app$1915                   ebike_app
     0000BD04  A$ebike_app$1916                   ebike_app
     0000BD06  A$ebike_app$1919                   ebike_app
     0000BD06  C$ebike_app.c$1002$8_0$499         ebike_app
     0000BD0A  A$ebike_app$1922                   ebike_app
     0000BD0A  C$ebike_app.c$1005$8_0$499         ebike_app
     0000BD0E  A$ebike_app$1923                   ebike_app
     0000BD10  A$ebike_app$1927                   ebike_app
     0000BD10  C$ebike_app.c$1010$8_0$500         ebike_app
     0000BD14  A$ebike_app$1930                   ebike_app
     0000BD14  C$ebike_app.c$1013$8_0$500         ebike_app
     0000BD18  A$ebike_app$1931                   ebike_app
     0000BD1A  A$ebike_app$1935                   ebike_app
     0000BD1A  C$ebike_app.c$1021$6_0$501         ebike_app
ASxxxx Linker V03.00 + NoICE + sdld,  page 222.
Hexadecimal  [32-Bits]

Area                                    Addr        Size        Decimal Bytes (Attributes)
--------------------------------        ----        ----        ------- ----- ------------
CODE                                000082B4    0000592D =       22829. bytes (REL,CON)

      Value  Global                              Global Defined In Module
      -----  --------------------------------   ------------------------
     0000BD1E  A$ebike_app$1936                   ebike_app
     0000BD20  A$ebike_app$1940                   ebike_app
     0000BD20  C$ebike_app.c$1028$4_0$502         ebike_app
     0000BD24  A$ebike_app$1944                   ebike_app
     0000BD24  C$ebike_app.c$1035$3_0$488         ebike_app
     0000BD27  A$ebike_app$1947                   ebike_app
     0000BD27  C$ebike_app.c$1053$3_0$488         ebike_app
     0000BD2A  A$ebike_app$1950                   ebike_app
     0000BD2A  C$ebike_app.c$1070$3_0$488         ebike_app
     0000BD2D  A$ebike_app$1953                   ebike_app
     0000BD2D  C$ebike_app.c$1144$3_0$488         ebike_app
     0000BD31  A$ebike_app$1956                   ebike_app
     0000BD31  C$ebike_app.c$1148$3_0$488         ebike_app
     0000BD34  A$ebike_app$1957                   ebike_app
     0000BD35  A$ebike_app$1958                   ebike_app
     0000BD38  A$ebike_app$1959                   ebike_app
     0000BD39  A$ebike_app$1962                   ebike_app
     0000BD39  C$ebike_app.c$1151$3_0$488         ebike_app
     0000BD3D  A$ebike_app$1963                   ebike_app
     0000BD3E  A$ebike_app$1964                   ebike_app
     0000BD3F  A$ebike_app$1965                   ebike_app
     0000BD40  A$ebike_app$1966                   ebike_app
     0000BD42  A$ebike_app$1967                   ebike_app
     0000BD44  A$ebike_app$1968                   ebike_app
     0000BD46  A$ebike_app$1969                   ebike_app
     0000BD48  A$ebike_app$1970                   ebike_app
     0000BD49  A$ebike_app$1971                   ebike_app
     0000BD4A  A$ebike_app$1972                   ebike_app
     0000BD4C  A$ebike_app$1973                   ebike_app
     0000BD4D  A$ebike_app$1974                   ebike_app
     0000BD4E  A$ebike_app$1975                   ebike_app
     0000BD51  A$ebike_app$1976                   ebike_app
     0000BD53  A$ebike_app$1979                   ebike_app
     0000BD53  C$ebike_app.c$1152$1_0$484         ebike_app
     0000BD55  A$ebike_app$1980                   ebike_app
     0000BD57  A$ebike_app$1981                   ebike_app
     0000BD59  A$ebike_app$1982                   ebike_app
     0000BD5B  A$ebike_app$1983                   ebike_app
     0000BD5C  A$ebike_app$1984                   ebike_app
     0000BD5E  A$ebike_app$1985                   ebike_app
     0000BD61  A$ebike_app$1986                   ebike_app
     0000BD63  A$ebike_app$1989                   ebike_app
     0000BD63  C$ebike_app.c$1153$3_0$488         ebike_app
     0000BD64  A$ebike_app$1990                   ebike_app
     0000BD65  A$ebike_app$1991                   ebike_app
     0000BD68  A$ebike_app$1992                   ebike_app
     0000BD69  A$ebike_app$1995                   ebike_app
     0000BD69  C$ebike_app.c$1164$3_1$506         ebike_app
     0000BD6B  A$ebike_app$1996                   ebike_app
     0000BD6D  A$ebike_app$1997                   ebike_app
     0000BD6E  A$ebike_app$1998                   ebike_app
ASxxxx Linker V03.00 + NoICE + sdld,  page 223.
Hexadecimal  [32-Bits]

Area                                    Addr        Size        Decimal Bytes (Attributes)
--------------------------------        ----        ----        ------- ----- ------------
CODE                                000082B4    0000592D =       22829. bytes (REL,CON)

      Value  Global                              Global Defined In Module
      -----  --------------------------------   ------------------------
     0000BD6F  A$ebike_app$1999                   ebike_app
     0000BD72  A$ebike_app$2000                   ebike_app
     0000BD74  A$ebike_app$2001                   ebike_app
     0000BD75  A$ebike_app$2002                   ebike_app
     0000BD76  A$ebike_app$2003                   ebike_app
     0000BD78  A$ebike_app$2006                   ebike_app
     0000BD78  C$ebike_app.c$1165$3_1$506         ebike_app
     0000BD7A  A$ebike_app$2007                   ebike_app
     0000BD7C  A$ebike_app$2008                   ebike_app
     0000BD7D  A$ebike_app$2009                   ebike_app
     0000BD7E  A$ebike_app$2010                   ebike_app
     0000BD81  A$ebike_app$2011                   ebike_app
     0000BD83  A$ebike_app$2014                   ebike_app
     0000BD83  C$ebike_app.c$1166$3_1$506         ebike_app
     0000BD84  A$ebike_app$2015                   ebike_app
     0000BD85  A$ebike_app$2016                   ebike_app
     0000BD86  A$ebike_app$2017                   ebike_app
     0000BD89  A$ebike_app$2020                   ebike_app
     0000BD89  C$ebike_app.c$1167$3_1$506         ebike_app
     0000BD8C  A$ebike_app$2023                   ebike_app
     0000BD8C  C$ebike_app.c$1182$3_1$506         ebike_app
     0000BD8F  A$ebike_app$2024                   ebike_app
     0000BD91  A$ebike_app$2027                   ebike_app
     0000BD91  C$ebike_app.c$1183$3_1$506         ebike_app
     0000BD93  A$ebike_app$2028                   ebike_app
     0000BD95  A$ebike_app$2029                   ebike_app
     0000BD96  A$ebike_app$2030                   ebike_app
     0000BD97  A$ebike_app$2031                   ebike_app
     0000BD9A  A$ebike_app$2032                   ebike_app
     0000BD9C  A$ebike_app$2033                   ebike_app
     0000BD9F  A$ebike_app$2037                   ebike_app
     0000BD9F  C$ebike_app.c$1192$3_1$506         ebike_app
     0000BDA3  A$ebike_app$2041                   ebike_app
     0000BDA3  C$ebike_app.c$1196$2_0$485         ebike_app
     0000BDA7  A$ebike_app$2045                   ebike_app
     0000BDA9  A$ebike_app$2048                   ebike_app
     0000BDA9  C$ebike_app.c$1199$1_0$484         ebike_app
     0000BDA9  XFebike_app$uart_receive_package   ebike_app
     0000BDAA  A$ebike_app$2056                   ebike_app
     0000BDAA  C$ebike_app.c$1204$1_0$508         ebike_app
     0000BDAA  Febike_app$uart_send_package$0$0   ebike_app
     0000BDAC  A$ebike_app$2059                   ebike_app
     0000BDAC  C$ebike_app.c$1212$1_0$508         ebike_app
     0000BDB0  A$ebike_app$2062                   ebike_app
     0000BDB0  C$ebike_app.c$1215$1_0$508         ebike_app
     0000BDB4  A$ebike_app$2065                   ebike_app
     0000BDB4  C$ebike_app.c$1218$1_0$508         ebike_app
     0000BDB7  A$ebike_app$2066                   ebike_app
     0000BDB9  A$ebike_app$2067                   ebike_app
     0000BDBC  A$ebike_app$2070                   ebike_app
     0000BDBC  C$ebike_app.c$1221$1_0$508         ebike_app
ASxxxx Linker V03.00 + NoICE + sdld,  page 224.
Hexadecimal  [32-Bits]

Area                                    Addr        Size        Decimal Bytes (Attributes)
--------------------------------        ----        ----        ------- ----- ------------
CODE                                000082B4    0000592D =       22829. bytes (REL,CON)

      Value  Global                              Global Defined In Module
      -----  --------------------------------   ------------------------
     0000BDBF  A$ebike_app$2071                   ebike_app
     0000BDC1  A$ebike_app$2072                   ebike_app
     0000BDC3  A$ebike_app$2073                   ebike_app
     0000BDC6  A$ebike_app$2075                   ebike_app
     0000BDC7  A$ebike_app$2076                   ebike_app
     0000BDC8  A$ebike_app$2077                   ebike_app
     0000BDC9  A$ebike_app$2078                   ebike_app
     0000BDCC  A$ebike_app$2079                   ebike_app
     0000BDDB  A$ebike_app$2093                   ebike_app
     0000BDDB  C$ebike_app.c$1223$2_0$509         ebike_app
     0000BDDB  C$ebike_app.c$1224$2_0$509         ebike_app
     0000BDDE  A$ebike_app$2094                   ebike_app
     0000BDE0  A$ebike_app$2095                   ebike_app
     0000BDE3  A$ebike_app$2098                   ebike_app
     0000BDE3  C$ebike_app.c$1225$2_0$509         ebike_app
     0000BDE7  A$ebike_app$2101                   ebike_app
     0000BDE7  C$ebike_app.c$1226$2_0$509         ebike_app
     0000BDEA  A$ebike_app$2107                   ebike_app
     0000BDEA  C$ebike_app.c$1228$2_0$509         ebike_app
     0000BDEA  C$ebike_app.c$1229$2_0$509         ebike_app
     0000BDEE  A$ebike_app$2110                   ebike_app
     0000BDEE  C$ebike_app.c$1230$2_0$509         ebike_app
     0000BDF0  A$ebike_app$2116                   ebike_app
     0000BDF0  C$ebike_app.c$1232$2_0$509         ebike_app
     0000BDF0  C$ebike_app.c$1233$2_0$509         ebike_app
     0000BDF4  A$ebike_app$2119                   ebike_app
     0000BDF4  C$ebike_app.c$1234$2_0$509         ebike_app
     0000BDF6  A$ebike_app$2125                   ebike_app
     0000BDF6  C$ebike_app.c$1236$2_0$509         ebike_app
     0000BDF6  C$ebike_app.c$1237$2_0$509         ebike_app
     0000BDFA  A$ebike_app$2128                   ebike_app
     0000BDFA  C$ebike_app.c$1238$2_0$509         ebike_app
     0000BDFC  A$ebike_app$2134                   ebike_app
     0000BDFC  C$ebike_app.c$1240$2_0$509         ebike_app
     0000BDFC  C$ebike_app.c$1241$2_0$509         ebike_app
     0000BE00  A$ebike_app$2137                   ebike_app
     0000BE00  C$ebike_app.c$1242$2_0$509         ebike_app
     0000BE02  A$ebike_app$2143                   ebike_app
     0000BE02  C$ebike_app.c$1244$2_0$509         ebike_app
     0000BE02  C$ebike_app.c$1245$2_0$509         ebike_app
     0000BE06  A$ebike_app$2146                   ebike_app
     0000BE06  C$ebike_app.c$1246$2_0$509         ebike_app
     0000BE08  A$ebike_app$2152                   ebike_app
     0000BE08  C$ebike_app.c$1248$2_0$509         ebike_app
     0000BE08  C$ebike_app.c$1249$2_0$509         ebike_app
     0000BE0C  A$ebike_app$2155                   ebike_app
     0000BE0C  C$ebike_app.c$1250$2_0$509         ebike_app
     0000BE10  A$ebike_app$2161                   ebike_app
     0000BE10  C$ebike_app.c$1252$1_0$508         ebike_app
     0000BE10  C$ebike_app.c$1334$1_0$508         ebike_app
     0000BE14  A$ebike_app$2164                   ebike_app
ASxxxx Linker V03.00 + NoICE + sdld,  page 225.
Hexadecimal  [32-Bits]

Area                                    Addr        Size        Decimal Bytes (Attributes)
--------------------------------        ----        ----        ------- ----- ------------
CODE                                000082B4    0000592D =       22829. bytes (REL,CON)

      Value  Global                              Global Defined In Module
      -----  --------------------------------   ------------------------
     0000BE14  C$ebike_app.c$1335$1_0$508         ebike_app
     0000BE18  A$ebike_app$2167                   ebike_app
     0000BE18  C$ebike_app.c$1338$1_0$508         ebike_app
     0000BE1B  A$ebike_app$2168                   ebike_app
     0000BE1C  A$ebike_app$2169                   ebike_app
     0000BE1E  A$ebike_app$2172                   ebike_app
     0000BE1E  C$ebike_app.c$1340$2_0$510         ebike_app
     0000BE22  A$ebike_app$2173                   ebike_app
     0000BE24  A$ebike_app$2177                   ebike_app
     0000BE24  C$ebike_app.c$1342$1_0$508         ebike_app
     0000BE28  A$ebike_app$2178                   ebike_app
     0000BE2A  A$ebike_app$2181                   ebike_app
     0000BE2A  C$ebike_app.c$1344$2_0$511         ebike_app
     0000BE2D  A$ebike_app$2182                   ebike_app
     0000BE2F  A$ebike_app$2183                   ebike_app
     0000BE31  A$ebike_app$2186                   ebike_app
     0000BE31  C$ebike_app.c$1346$3_0$512         ebike_app
     0000BE35  A$ebike_app$2187                   ebike_app
     0000BE37  A$ebike_app$2191                   ebike_app
     0000BE37  C$ebike_app.c$1351$3_0$513         ebike_app
     0000BE3A  A$ebike_app$2192                   ebike_app
     0000BE3C  A$ebike_app$2193                   ebike_app
     0000BE3E  A$ebike_app$2196                   ebike_app
     0000BE3E  C$ebike_app.c$1353$4_0$514         ebike_app
     0000BE42  A$ebike_app$2197                   ebike_app
     0000BE44  A$ebike_app$2201                   ebike_app
     0000BE44  C$ebike_app.c$1357$4_0$515         ebike_app
     0000BE48  A$ebike_app$2205                   ebike_app
     0000BE48  C$ebike_app.c$1360$3_0$513         ebike_app
     0000BE4C  A$ebike_app$2206                   ebike_app
     0000BE4F  A$ebike_app$2207                   ebike_app
     0000BE51  A$ebike_app$2208                   ebike_app
     0000BE53  A$ebike_app$2209                   ebike_app
     0000BE57  A$ebike_app$2210                   ebike_app
     0000BE59  A$ebike_app$2214                   ebike_app
     0000BE59  C$ebike_app.c$1365$2_0$516         ebike_app
     0000BE5D  A$ebike_app$2218                   ebike_app
     0000BE5D  C$ebike_app.c$1369$1_0$508         ebike_app
     0000BE60  A$ebike_app$2219                   ebike_app
     0000BE62  A$ebike_app$2222                   ebike_app
     0000BE62  C$ebike_app.c$1372$2_0$517         ebike_app
     0000BE65  A$ebike_app$2223                   ebike_app
     0000BE67  A$ebike_app$2224                   ebike_app
     0000BE69  A$ebike_app$2227                   ebike_app
     0000BE69  C$ebike_app.c$1374$2_0$517         ebike_app
     0000BE6C  A$ebike_app$2228                   ebike_app
     0000BE6F  A$ebike_app$2229                   ebike_app
     0000BE71  A$ebike_app$2233                   ebike_app
     0000BE71  C$ebike_app.c$1376$2_0$517         ebike_app
     0000BE74  A$ebike_app$2234                   ebike_app
     0000BE77  A$ebike_app$2235                   ebike_app
ASxxxx Linker V03.00 + NoICE + sdld,  page 226.
Hexadecimal  [32-Bits]

Area                                    Addr        Size        Decimal Bytes (Attributes)
--------------------------------        ----        ----        ------- ----- ------------
CODE                                000082B4    0000592D =       22829. bytes (REL,CON)

      Value  Global                              Global Defined In Module
      -----  --------------------------------   ------------------------
     0000BE79  A$ebike_app$2239                   ebike_app
     0000BE79  C$ebike_app.c$1381$2_0$518         ebike_app
     0000BE7C  A$ebike_app$2240                   ebike_app
     0000BE7F  A$ebike_app$2244                   ebike_app
     0000BE7F  C$ebike_app.c$1385$1_0$508         ebike_app
     0000BE82  A$ebike_app$2245                   ebike_app
     0000BE84  A$ebike_app$2248                   ebike_app
     0000BE84  C$ebike_app.c$1387$2_0$519         ebike_app
     0000BE88  A$ebike_app$2251                   ebike_app
     0000BE88  C$ebike_app.c$1388$2_0$519         ebike_app
     0000BE8C  A$ebike_app$2254                   ebike_app
     0000BE8C  C$ebike_app.c$1392$2_0$519         ebike_app
     0000BE8F  A$ebike_app$2255                   ebike_app
     0000BE91  A$ebike_app$2256                   ebike_app
     0000BE94  A$ebike_app$2257                   ebike_app
     0000BE96  A$ebike_app$2261                   ebike_app
     0000BE96  C$ebike_app.c$1397$2_0$520         ebike_app
     0000BE99  A$ebike_app$2262                   ebike_app
     0000BE9C  A$ebike_app$2265                   ebike_app
     0000BE9C  C$ebike_app.c$1398$2_0$520         ebike_app
     0000BE9F  A$ebike_app$2266                   ebike_app
     0000BEA1  A$ebike_app$2267                   ebike_app
     0000BEA3  A$ebike_app$2268                   ebike_app
     0000BEA5  A$ebike_app$2269                   ebike_app
     0000BEA8  A$ebike_app$2272                   ebike_app
     0000BEA8  C$ebike_app.c$1402$2_0$520         ebike_app
     0000BEAB  A$ebike_app$2273                   ebike_app
     0000BEAD  A$ebike_app$2274                   ebike_app
     0000BEB0  A$ebike_app$2278                   ebike_app
     0000BEB0  C$ebike_app.c$1411$1_0$508         ebike_app
     0000BEB3  A$ebike_app$2279                   ebike_app
     0000BEB5  A$ebike_app$2280                   ebike_app
     0000BEB7  A$ebike_app$2283                   ebike_app
     0000BEB7  C$ebike_app.c$1414$2_0$521         ebike_app
     0000BEBA  A$ebike_app$2284                   ebike_app
     0000BEBC  A$ebike_app$2285                   ebike_app
     0000BEBF  A$ebike_app$2286                   ebike_app
     0000BEC1  A$ebike_app$2290                   ebike_app
     0000BEC1  C$ebike_app.c$1419$2_0$522         ebike_app
     0000BEC4  A$ebike_app$2291                   ebike_app
     0000BEC6  A$ebike_app$2292                   ebike_app
     0000BEC9  A$ebike_app$2296                   ebike_app
     0000BEC9  C$ebike_app.c$1424$1_0$508         ebike_app
     0000BECC  A$ebike_app$2297                   ebike_app
     0000BECE  A$ebike_app$2298                   ebike_app
     0000BED1  A$ebike_app$2301                   ebike_app
     0000BED1  C$ebike_app.c$1427$1_0$508         ebike_app
     0000BED4  A$ebike_app$2302                   ebike_app
     0000BED6  A$ebike_app$2303                   ebike_app
     0000BED9  A$ebike_app$2306                   ebike_app
     0000BED9  C$ebike_app.c$1430$1_0$508         ebike_app
ASxxxx Linker V03.00 + NoICE + sdld,  page 227.
Hexadecimal  [32-Bits]

Area                                    Addr        Size        Decimal Bytes (Attributes)
--------------------------------        ----        ----        ------- ----- ------------
CODE                                000082B4    0000592D =       22829. bytes (REL,CON)

      Value  Global                              Global Defined In Module
      -----  --------------------------------   ------------------------
     0000BEDA  A$ebike_app$2307                   ebike_app
     0000BEDC  A$ebike_app$2310                   ebike_app
     0000BEDC  C$ebike_app.c$1431$2_0$508         ebike_app
     0000BEDD  A$ebike_app$2314                   ebike_app
     0000BEDD  C$ebike_app.c$1433$3_0$524         ebike_app
     0000BEDE  A$ebike_app$2315                   ebike_app
     0000BEDF  A$ebike_app$2316                   ebike_app
     0000BEE2  A$ebike_app$2317                   ebike_app
     0000BEE3  A$ebike_app$2318                   ebike_app
     0000BEE4  A$ebike_app$2319                   ebike_app
     0000BEE6  A$ebike_app$2320                   ebike_app
     0000BEE7  A$ebike_app$2321                   ebike_app
     0000BEEA  A$ebike_app$2324                   ebike_app
     0000BEEA  C$ebike_app.c$1431$2_0$523         ebike_app
     0000BEEB  A$ebike_app$2325                   ebike_app
     0000BEED  A$ebike_app$2326                   ebike_app
     0000BEEF  A$ebike_app$2329                   ebike_app
     0000BEEF  C$ebike_app.c$1435$1_0$508         ebike_app
     0000BEF2  A$ebike_app$2330                   ebike_app
     0000BEF4  A$ebike_app$2331                   ebike_app
     0000BEF5  A$ebike_app$2334                   ebike_app
     0000BEF5  C$ebike_app.c$1438$2_0$508         ebike_app
     0000BEF7  A$ebike_app$2338                   ebike_app
     0000BEF7  C$ebike_app.c$1440$3_0$526         ebike_app
     0000BEF8  A$ebike_app$2339                   ebike_app
     0000BEFA  A$ebike_app$2340                   ebike_app
     0000BEFB  A$ebike_app$2341                   ebike_app
     0000BEFE  A$ebike_app$2342                   ebike_app
     0000BEFF  A$ebike_app$2343                   ebike_app
     0000BF00  A$ebike_app$2344                   ebike_app
     0000BF01  A$ebike_app$2345                   ebike_app
     0000BF02  A$ebike_app$2346                   ebike_app
     0000BF05  A$ebike_app$2347                   ebike_app
     0000BF07  A$ebike_app$2350                   ebike_app
     0000BF07  C$ebike_app.c$1438$2_0$525         ebike_app
     0000BF09  A$ebike_app$2351                   ebike_app
     0000BF0B  A$ebike_app$2352                   ebike_app
     0000BF0D  A$ebike_app$2353                   ebike_app
     0000BF0F  A$ebike_app$2356                   ebike_app
     0000BF11  A$ebike_app$2359                   ebike_app
     0000BF11  C$ebike_app.c$1443$2_0$508         ebike_app
     0000BF11  XFebike_app$uart_send_package$0$   ebike_app
     0000BF12  A$ebike_app$2369                   ebike_app
     0000BF12  C$ebike_app.c$1448$2_0$528         ebike_app
     0000BF12  C$ebike_app.c$1451$1_0$528         ebike_app
     0000BF12  Febike_app$ebike_app_set_target_   ebike_app
     0000BF14  A$ebike_app$2370                   ebike_app
     0000BF17  A$ebike_app$2371                   ebike_app
     0000BF19  A$ebike_app$2372                   ebike_app
     0000BF1C  A$ebike_app$2373                   ebike_app
     0000BF1E  A$ebike_app$2377                   ebike_app
ASxxxx Linker V03.00 + NoICE + sdld,  page 228.
Hexadecimal  [32-Bits]

Area                                    Addr        Size        Decimal Bytes (Attributes)
--------------------------------        ----        ----        ------- ----- ------------
CODE                                000082B4    0000592D =       22829. bytes (REL,CON)

      Value  Global                              Global Defined In Module
      -----  --------------------------------   ------------------------
     0000BF1E  C$ebike_app.c$1453$1_0$528         ebike_app
     0000BF21  A$ebike_app$2378                   ebike_app
     0000BF23  A$ebike_app$2379                   ebike_app
     0000BF26  A$ebike_app$2384                   ebike_app
     0000BF26  C$ebike_app.c$1454$1_0$528         ebike_app
     0000BF26  XFebike_app$ebike_app_set_target   ebike_app
     0000BF27  A$ebike_app$2394                   ebike_app
     0000BF27  C$ebike_app.c$1459$1_0$530         ebike_app
     0000BF27  C$ebike_app.c$1462$1_0$530         ebike_app
     0000BF27  Febike_app$ebike_app_set_target_   ebike_app
     0000BF29  A$ebike_app$2395                   ebike_app
     0000BF2C  A$ebike_app$2396                   ebike_app
     0000BF2E  A$ebike_app$2397                   ebike_app
     0000BF31  A$ebike_app$2398                   ebike_app
     0000BF33  A$ebike_app$2402                   ebike_app
     0000BF33  C$ebike_app.c$1464$1_0$530         ebike_app
     0000BF35  A$ebike_app$2403                   ebike_app
     0000BF38  A$ebike_app$2408                   ebike_app
     0000BF38  C$ebike_app.c$1465$1_0$530         ebike_app
     0000BF38  XFebike_app$ebike_app_set_target   ebike_app
     0000BF39  A$ebike_app$2418                   ebike_app
     0000BF39  C$ebike_app.c$1470$1_0$532         ebike_app
     0000BF39  C$ebike_app.c$1473$1_0$532         ebike_app
     0000BF39  Febike_app$ebike_app_set_battery   ebike_app
     0000BF3B  A$ebike_app$2419                   ebike_app
     0000BF3C  A$ebike_app$2420                   ebike_app
     0000BF3D  A$ebike_app$2421                   ebike_app
     0000BF3E  A$ebike_app$2422                   ebike_app
     0000BF42  A$ebike_app$2423                   ebike_app
     0000BF43  A$ebike_app$2424                   ebike_app
     0000BF44  A$ebike_app$2425                   ebike_app
     0000BF47  A$ebike_app$2428                   ebike_app
     0000BF47  C$ebike_app.c$1475$1_0$532         ebike_app
     0000BF4A  A$ebike_app$2429                   ebike_app
     0000BF4C  A$ebike_app$2430                   ebike_app
     0000BF4E  A$ebike_app$2433                   ebike_app
     0000BF4E  C$ebike_app.c$1476$1_0$532         ebike_app
     0000BF52  A$ebike_app$2439                   ebike_app
     0000BF52  C$ebike_app.c$1477$1_0$532         ebike_app
     0000BF52  XFebike_app$ebike_app_set_batter   ebike_app
     0000BF53  A$ebike_app$2449                   ebike_app
     0000BF53  C$ebike_app.c$1482$1_0$534         ebike_app
     0000BF53  C$ebike_app.c$1485$1_0$534         ebike_app
     0000BF53  Febike_app$ebike_app_set_motor_m   ebike_app
     0000BF55  A$ebike_app$2450                   ebike_app
     0000BF56  A$ebike_app$2451                   ebike_app
     0000BF57  A$ebike_app$2452                   ebike_app
     0000BF58  A$ebike_app$2453                   ebike_app
     0000BF5C  A$ebike_app$2454                   ebike_app
     0000BF5D  A$ebike_app$2455                   ebike_app
     0000BF5E  A$ebike_app$2456                   ebike_app
ASxxxx Linker V03.00 + NoICE + sdld,  page 229.
Hexadecimal  [32-Bits]

Area                                    Addr        Size        Decimal Bytes (Attributes)
--------------------------------        ----        ----        ------- ----- ------------
CODE                                000082B4    0000592D =       22829. bytes (REL,CON)

      Value  Global                              Global Defined In Module
      -----  --------------------------------   ------------------------
     0000BF61  A$ebike_app$2459                   ebike_app
     0000BF61  C$ebike_app.c$1487$1_0$534         ebike_app
     0000BF64  A$ebike_app$2460                   ebike_app
     0000BF66  A$ebike_app$2461                   ebike_app
     0000BF68  A$ebike_app$2464                   ebike_app
     0000BF68  C$ebike_app.c$1488$1_0$534         ebike_app
     0000BF6C  A$ebike_app$2470                   ebike_app
     0000BF6C  C$ebike_app.c$1489$1_0$534         ebike_app
     0000BF6C  XFebike_app$ebike_app_set_motor_   ebike_app
     0000BF6D  A$ebike_app$2478                   ebike_app
     0000BF6D  C$ebike_app.c$1491$1_0$536         ebike_app
     0000BF6D  Febike_app$ebike_app_set_torque_   ebike_app
     0000BF6F  A$ebike_app$2481                   ebike_app
     0000BF6F  C$ebike_app.c$1495$1_0$536         ebike_app
     0000BF70  A$ebike_app$2482                   ebike_app
     0000BF73  A$ebike_app$2483                   ebike_app
     0000BF74  A$ebike_app$2484                   ebike_app
     0000BF77  A$ebike_app$2485                   ebike_app
     0000BF79  A$ebike_app$2486                   ebike_app
     0000BF7B  A$ebike_app$2487                   ebike_app
     0000BF7E  A$ebike_app$2488                   ebike_app
     0000BF7F  A$ebike_app$2489                   ebike_app
     0000BF82  A$ebike_app$2490                   ebike_app
     0000BF84  A$ebike_app$2491                   ebike_app
     0000BF85  A$ebike_app$2492                   ebike_app
     0000BF87  A$ebike_app$2493                   ebike_app
     0000BF88  A$ebike_app$2494                   ebike_app
     0000BF89  A$ebike_app$2495                   ebike_app
     0000BF8B  A$ebike_app$2496                   ebike_app
     0000BF8D  A$ebike_app$2497                   ebike_app
     0000BF90  A$ebike_app$2498                   ebike_app
     0000BF92  A$ebike_app$2499                   ebike_app
     0000BF93  A$ebike_app$2500                   ebike_app
     0000BF95  A$ebike_app$2501                   ebike_app
     0000BF96  A$ebike_app$2502                   ebike_app
     0000BF97  A$ebike_app$2503                   ebike_app
     0000BF99  A$ebike_app$2504                   ebike_app
     0000BF9B  A$ebike_app$2505                   ebike_app
     0000BF9E  A$ebike_app$2506                   ebike_app
     0000BFA0  A$ebike_app$2507                   ebike_app
     0000BFA3  A$ebike_app$2508                   ebike_app
     0000BFA7  A$ebike_app$2511                   ebike_app
     0000BFA9  A$ebike_app$2514                   ebike_app
     0000BFA9  C$ebike_app.c$1499$1_0$536         ebike_app
     0000BFA9  XFebike_app$ebike_app_set_torque   ebike_app
     0000BFAA  A$ebike_app$2524                   ebike_app
     0000BFAA  C$ebike_app.c$1504$1_0$538         ebike_app
     0000BFAA  C$ebike_app.c$1509$1_0$538         ebike_app
     0000BFAA  Febike_app$calc_pedal_force_and_   ebike_app
     0000BFAB  A$ebike_app$2525                   ebike_app
     0000BFAE  A$ebike_app$2526                   ebike_app
ASxxxx Linker V03.00 + NoICE + sdld,  page 230.
Hexadecimal  [32-Bits]

Area                                    Addr        Size        Decimal Bytes (Attributes)
--------------------------------        ----        ----        ------- ----- ------------
CODE                                000082B4    0000592D =       22829. bytes (REL,CON)

      Value  Global                              Global Defined In Module
      -----  --------------------------------   ------------------------
     0000BFAF  A$ebike_app$2527                   ebike_app
     0000BFB0  A$ebike_app$2528                   ebike_app
     0000BFB2  A$ebike_app$2529                   ebike_app
     0000BFB4  A$ebike_app$2530                   ebike_app
     0000BFB7  A$ebike_app$2531                   ebike_app
     0000BFB9  A$ebike_app$2534                   ebike_app
     0000BFB9  C$ebike_app.c$1510$1_0$538         ebike_app
     0000BFBD  A$ebike_app$2535                   ebike_app
     0000BFBE  A$ebike_app$2536                   ebike_app
     0000BFC1  A$ebike_app$2541                   ebike_app
     0000BFC1  C$ebike_app.c$1569$1_0$538         ebike_app
     0000BFC1  XFebike_app$calc_pedal_force_and   ebike_app
     0000BFC2  A$ebike_app$2549                   ebike_app
     0000BFC2  C$ebike_app.c$1574$1_0$540         ebike_app
     0000BFC2  Febike_app$calc_wheel_speed$0$0    ebike_app
     0000BFC4  A$ebike_app$2552                   ebike_app
     0000BFC4  C$ebike_app.c$1577$1_0$540         ebike_app
     0000BFC7  A$ebike_app$2553                   ebike_app
     0000BFCA  A$ebike_app$2554                   ebike_app
     0000BFCC  A$ebike_app$2555                   ebike_app
     0000BFCF  A$ebike_app$2559                   ebike_app
     0000BFCF  C$ebike_app.c$1597$1_0$540         ebike_app
     0000BFD2  A$ebike_app$2560                   ebike_app
     0000BFD5  A$ebike_app$2561                   ebike_app
     0000BFD8  A$ebike_app$2562                   ebike_app
     0000BFDA  A$ebike_app$2563                   ebike_app
     0000BFDB  A$ebike_app$2564                   ebike_app
     0000BFDD  A$ebike_app$2565                   ebike_app
     0000BFDF  A$ebike_app$2566                   ebike_app
     0000BFE1  A$ebike_app$2567                   ebike_app
     0000BFE3  A$ebike_app$2568                   ebike_app
     0000BFE5  A$ebike_app$2569                   ebike_app
     0000BFE8  A$ebike_app$2570                   ebike_app
     0000BFEA  A$ebike_app$2571                   ebike_app
     0000BFED  A$ebike_app$2572                   ebike_app
     0000BFF1  A$ebike_app$2575                   ebike_app
     0000BFF1  C$ebike_app.c$1598$2_0$541         ebike_app
     0000BFF4  A$ebike_app$2576                   ebike_app
     0000BFF5  A$ebike_app$2577                   ebike_app
     0000BFF8  A$ebike_app$2578                   ebike_app
     0000BFFA  A$ebike_app$2579                   ebike_app
     0000BFFB  A$ebike_app$2580                   ebike_app
     0000BFFD  A$ebike_app$2581                   ebike_app
     0000C000  A$ebike_app$2582                   ebike_app
     0000C003  A$ebike_app$2583                   ebike_app
     0000C006  A$ebike_app$2584                   ebike_app
     0000C009  A$ebike_app$2585                   ebike_app
     0000C00C  A$ebike_app$2586                   ebike_app
     0000C00E  A$ebike_app$2587                   ebike_app
     0000C011  A$ebike_app$2588                   ebike_app
     0000C015  A$ebike_app$2591                   ebike_app
ASxxxx Linker V03.00 + NoICE + sdld,  page 231.
Hexadecimal  [32-Bits]

Area                                    Addr        Size        Decimal Bytes (Attributes)
--------------------------------        ----        ----        ------- ----- ------------
CODE                                000082B4    0000592D =       22829. bytes (REL,CON)

      Value  Global                              Global Defined In Module
      -----  --------------------------------   ------------------------
     0000C015  C$ebike_app.c$1599$1_0$540         ebike_app
     0000C018  A$ebike_app$2592                   ebike_app
     0000C01B  A$ebike_app$2593                   ebike_app
     0000C01E  A$ebike_app$2594                   ebike_app
     0000C021  A$ebike_app$2595                   ebike_app
     0000C023  A$ebike_app$2596                   ebike_app
     0000C025  A$ebike_app$2597                   ebike_app
     0000C027  A$ebike_app$2598                   ebike_app
     0000C029  A$ebike_app$2599                   ebike_app
     0000C02C  A$ebike_app$2600                   ebike_app
     0000C02E  A$ebike_app$2601                   ebike_app
     0000C031  A$ebike_app$2602                   ebike_app
     0000C035  A$ebike_app$2605                   ebike_app
     0000C035  C$ebike_app.c$1600$1_0$540         ebike_app
     0000C038  A$ebike_app$2606                   ebike_app
     0000C03B  A$ebike_app$2607                   ebike_app
     0000C03E  A$ebike_app$2608                   ebike_app
     0000C041  A$ebike_app$2609                   ebike_app
     0000C044  A$ebike_app$2610                   ebike_app
     0000C046  A$ebike_app$2611                   ebike_app
     0000C049  A$ebike_app$2614                   ebike_app
     0000C049  C$ebike_app.c$1603$2_0$541         ebike_app
     0000C04D  A$ebike_app$2615                   ebike_app
     0000C04F  A$ebike_app$2618                   ebike_app
     0000C04F  C$ebike_app.c$1605$1_0$540         ebike_app
     0000C052  A$ebike_app$2619                   ebike_app
     0000C055  A$ebike_app$2620                   ebike_app
     0000C058  A$ebike_app$2621                   ebike_app
     0000C05A  A$ebike_app$2622                   ebike_app
     0000C05B  A$ebike_app$2623                   ebike_app
     0000C05D  A$ebike_app$2624                   ebike_app
     0000C05E  A$ebike_app$2625                   ebike_app
     0000C05F  A$ebike_app$2626                   ebike_app
     0000C061  A$ebike_app$2627                   ebike_app
     0000C063  A$ebike_app$2628                   ebike_app
     0000C066  A$ebike_app$2629                   ebike_app
     0000C068  A$ebike_app$2630                   ebike_app
     0000C06A  A$ebike_app$2631                   ebike_app
     0000C06C  A$ebike_app$2632                   ebike_app
     0000C06F  A$ebike_app$2633                   ebike_app
     0000C070  A$ebike_app$2634                   ebike_app
     0000C073  A$ebike_app$2635                   ebike_app
     0000C075  A$ebike_app$2636                   ebike_app
     0000C076  A$ebike_app$2637                   ebike_app
     0000C078  A$ebike_app$2638                   ebike_app
     0000C07A  A$ebike_app$2639                   ebike_app
     0000C07B  A$ebike_app$2640                   ebike_app
     0000C07D  A$ebike_app$2641                   ebike_app
     0000C07E  A$ebike_app$2642                   ebike_app
     0000C081  A$ebike_app$2643                   ebike_app
     0000C083  A$ebike_app$2644                   ebike_app
ASxxxx Linker V03.00 + NoICE + sdld,  page 232.
Hexadecimal  [32-Bits]

Area                                    Addr        Size        Decimal Bytes (Attributes)
--------------------------------        ----        ----        ------- ----- ------------
CODE                                000082B4    0000592D =       22829. bytes (REL,CON)

      Value  Global                              Global Defined In Module
      -----  --------------------------------   ------------------------
     0000C086  A$ebike_app$2645                   ebike_app
     0000C08A  A$ebike_app$2648                   ebike_app
     0000C08A  C$ebike_app.c$1606$1_0$540         ebike_app
     0000C08D  A$ebike_app$2649                   ebike_app
     0000C090  A$ebike_app$2650                   ebike_app
     0000C093  A$ebike_app$2651                   ebike_app
     0000C096  A$ebike_app$2652                   ebike_app
     0000C099  A$ebike_app$2653                   ebike_app
     0000C09B  A$ebike_app$2654                   ebike_app
     0000C09E  A$ebike_app$2655                   ebike_app
     0000C0A0  A$ebike_app$2659                   ebike_app
     0000C0A0  C$ebike_app.c$1612$3_0$543         ebike_app
     0000C0A1  A$ebike_app$2660                   ebike_app
     0000C0A4  A$ebike_app$2663                   ebike_app
     0000C0A4  C$ebike_app.c$1615$3_0$543         ebike_app
     0000C0A7  A$ebike_app$2664                   ebike_app
     0000C0A8  A$ebike_app$2665                   ebike_app
     0000C0A9  A$ebike_app$2666                   ebike_app
     0000C0AC  A$ebike_app$2667                   ebike_app
     0000C0AD  A$ebike_app$2668                   ebike_app
     0000C0AF  A$ebike_app$2669                   ebike_app
     0000C0B1  A$ebike_app$2672                   ebike_app
     0000C0B1  C$ebike_app.c$1617$4_0$544         ebike_app
     0000C0B5  A$ebike_app$2673                   ebike_app
     0000C0B7  A$ebike_app$2677                   ebike_app
     0000C0B7  C$ebike_app.c$1623$2_0$545         ebike_app
     0000C0B8  A$ebike_app$2678                   ebike_app
     0000C0BB  A$ebike_app$2681                   ebike_app
     0000C0BB  C$ebike_app.c$1624$2_0$545         ebike_app
     0000C0BC  A$ebike_app$2682                   ebike_app
     0000C0BF  A$ebike_app$2686                   ebike_app
     0000C0C1  A$ebike_app$2689                   ebike_app
     0000C0C1  C$ebike_app.c$1626$1_0$540         ebike_app
     0000C0C1  XFebike_app$calc_wheel_speed$0$0   ebike_app
     0000C0C2  A$ebike_app$2699                   ebike_app
     0000C0C2  C$ebike_app.c$1631$1_0$547         ebike_app
     0000C0C2  C$ebike_app.c$1636$1_0$547         ebike_app
     0000C0C2  Febike_app$calc_motor_temperatur   ebike_app
     0000C0C5  A$ebike_app$2700                   ebike_app
     0000C0C7  A$ebike_app$2701                   ebike_app
     0000C0C8  A$ebike_app$2702                   ebike_app
     0000C0C9  A$ebike_app$2703                   ebike_app
     0000C0CD  A$ebike_app$2704                   ebike_app
     0000C0D0  A$ebike_app$2707                   ebike_app
     0000C0D0  C$ebike_app.c$1637$1_0$547         ebike_app
     0000C0D3  A$ebike_app$2708                   ebike_app
     0000C0D7  A$ebike_app$2709                   ebike_app
     0000C0DA  A$ebike_app$2712                   ebike_app
     0000C0DA  C$ebike_app.c$1638$1_0$547         ebike_app
     0000C0DD  A$ebike_app$2713                   ebike_app
     0000C0DF  A$ebike_app$2714                   ebike_app
ASxxxx Linker V03.00 + NoICE + sdld,  page 233.
Hexadecimal  [32-Bits]

Area                                    Addr        Size        Decimal Bytes (Attributes)
--------------------------------        ----        ----        ------- ----- ------------
CODE                                000082B4    0000592D =       22829. bytes (REL,CON)

      Value  Global                              Global Defined In Module
      -----  --------------------------------   ------------------------
     0000C0E0  A$ebike_app$2717                   ebike_app
     0000C0E0  C$ebike_app.c$1640$1_0$547         ebike_app
     0000C0E1  A$ebike_app$2718                   ebike_app
     0000C0E4  A$ebike_app$2719                   ebike_app
     0000C0E6  A$ebike_app$2720                   ebike_app
     0000C0E8  A$ebike_app$2721                   ebike_app
     0000C0EA  A$ebike_app$2722                   ebike_app
     0000C0EC  A$ebike_app$2723                   ebike_app
     0000C0EE  A$ebike_app$2724                   ebike_app
     0000C0EF  A$ebike_app$2725                   ebike_app
     0000C0F1  A$ebike_app$2726                   ebike_app
     0000C0F4  A$ebike_app$2727                   ebike_app
     0000C0F6  A$ebike_app$2728                   ebike_app
     0000C0F7  A$ebike_app$2729                   ebike_app
     0000C0F9  A$ebike_app$2730                   ebike_app
     0000C0FC  A$ebike_app$2731                   ebike_app
     0000C0FE  A$ebike_app$2732                   ebike_app
     0000C101  A$ebike_app$2735                   ebike_app
     0000C101  C$ebike_app.c$1641$1_0$547         ebike_app
     0000C104  A$ebike_app$2736                   ebike_app
     0000C105  A$ebike_app$2737                   ebike_app
     0000C106  A$ebike_app$2738                   ebike_app
     0000C109  A$ebike_app$2743                   ebike_app
     0000C109  C$ebike_app.c$1642$1_0$547         ebike_app
     0000C109  XFebike_app$calc_motor_temperatu   ebike_app
     0000C10A  A$ebike_app$2753                   ebike_app
     0000C10A  C$ebike_app.c$1647$1_0$549         ebike_app
     0000C10A  C$ebike_app.c$1649$1_0$549         ebike_app
     0000C10A  Febike_app$calc_filtered_battery   ebike_app
     0000C10D  A$ebike_app$2754                   ebike_app
     0000C10E  A$ebike_app$2755                   ebike_app
     0000C110  A$ebike_app$2756                   ebike_app
     0000C112  A$ebike_app$2757                   ebike_app
     0000C115  A$ebike_app$2758                   ebike_app
     0000C117  A$ebike_app$2759                   ebike_app
     0000C118  A$ebike_app$2762                   ebike_app
     0000C118  C$ebike_app.c$1650$1_0$549         ebike_app
     0000C119  A$ebike_app$2763                   ebike_app
     0000C11A  A$ebike_app$2764                   ebike_app
     0000C11B  A$ebike_app$2769                   ebike_app
     0000C11B  C$ebike_app.c$1651$1_0$549         ebike_app
     0000C11B  XFebike_app$calc_filtered_batter   ebike_app
     0000C11C  A$ebike_app$2777                   ebike_app
     0000C11C  C$ebike_app.c$1656$1_0$551         ebike_app
     0000C11C  Febike_app$apply_street_mode$0$0   ebike_app
     0000C11E  A$ebike_app$2780                   ebike_app
     0000C11E  C$ebike_app.c$1658$1_0$551         ebike_app
     0000C121  A$ebike_app$2781                   ebike_app
     0000C123  A$ebike_app$2784                   ebike_app
     0000C123  C$ebike_app.c$1661$2_0$552         ebike_app
     0000C125  A$ebike_app$2785                   ebike_app
ASxxxx Linker V03.00 + NoICE + sdld,  page 234.
Hexadecimal  [32-Bits]

Area                                    Addr        Size        Decimal Bytes (Attributes)
--------------------------------        ----        ----        ------- ----- ------------
CODE                                000082B4    0000592D =       22829. bytes (REL,CON)

      Value  Global                              Global Defined In Module
      -----  --------------------------------   ------------------------
     0000C128  A$ebike_app$2786                   ebike_app
     0000C129  A$ebike_app$2789                   ebike_app
     0000C129  C$ebike_app.c$1663$2_0$552         ebike_app
     0000C12C  A$ebike_app$2790                   ebike_app
     0000C12E  A$ebike_app$2791                   ebike_app
     0000C131  A$ebike_app$2792                   ebike_app
     0000C133  A$ebike_app$2795                   ebike_app
     0000C133  C$ebike_app.c$1665$3_0$553         ebike_app
     0000C136  A$ebike_app$2796                   ebike_app
     0000C137  A$ebike_app$2797                   ebike_app
     0000C138  A$ebike_app$2798                   ebike_app
     0000C13A  A$ebike_app$2799                   ebike_app
     0000C13B  A$ebike_app$2800                   ebike_app
     0000C13D  A$ebike_app$2801                   ebike_app
     0000C13F  A$ebike_app$2802                   ebike_app
     0000C140  A$ebike_app$2803                   ebike_app
     0000C141  A$ebike_app$2804                   ebike_app
     0000C143  A$ebike_app$2805                   ebike_app
     0000C146  A$ebike_app$2806                   ebike_app
     0000C148  A$ebike_app$2807                   ebike_app
     0000C14A  A$ebike_app$2808                   ebike_app
     0000C14C  A$ebike_app$2809                   ebike_app
     0000C14E  A$ebike_app$2810                   ebike_app
     0000C150  A$ebike_app$2811                   ebike_app
     0000C152  A$ebike_app$2812                   ebike_app
     0000C154  A$ebike_app$2813                   ebike_app
     0000C155  A$ebike_app$2814                   ebike_app
     0000C157  A$ebike_app$2815                   ebike_app
     0000C158  A$ebike_app$2816                   ebike_app
     0000C15A  A$ebike_app$2817                   ebike_app
     0000C15B  A$ebike_app$2818                   ebike_app
     0000C15D  A$ebike_app$2819                   ebike_app
     0000C160  A$ebike_app$2820                   ebike_app
     0000C162  A$ebike_app$2821                   ebike_app
     0000C163  A$ebike_app$2822                   ebike_app
     0000C164  A$ebike_app$2823                   ebike_app
     0000C165  A$ebike_app$2826                   ebike_app
     0000C165  C$ebike_app.c$1666$3_0$553         ebike_app
     0000C167  A$ebike_app$2827                   ebike_app
     0000C168  A$ebike_app$2828                   ebike_app
     0000C169  A$ebike_app$2829                   ebike_app
     0000C16A  A$ebike_app$2830                   ebike_app
     0000C16C  A$ebike_app$2831                   ebike_app
     0000C16D  A$ebike_app$2832                   ebike_app
     0000C170  A$ebike_app$2833                   ebike_app
     0000C172  A$ebike_app$2834                   ebike_app
     0000C173  A$ebike_app$2835                   ebike_app
     0000C174  A$ebike_app$2839                   ebike_app
     0000C176  A$ebike_app$2842                   ebike_app
     0000C176  C$ebike_app.c$1669$1_0$551         ebike_app
     0000C176  XFebike_app$apply_street_mode$0$   ebike_app
ASxxxx Linker V03.00 + NoICE + sdld,  page 235.
Hexadecimal  [32-Bits]

Area                                    Addr        Size        Decimal Bytes (Attributes)
--------------------------------        ----        ----        ------- ----- ------------
CODE                                000082B4    0000592D =       22829. bytes (REL,CON)

      Value  Global                              Global Defined In Module
      -----  --------------------------------   ------------------------
     0000C177  A$ebike_app$2850                   ebike_app
     0000C177  C$ebike_app.c$1674$1_0$555         ebike_app
     0000C177  Febike_app$apply_speed_limit$0$0   ebike_app
     0000C179  A$ebike_app$2853                   ebike_app
     0000C17B  A$ebike_app$2856                   ebike_app
     0000C17B  C$ebike_app.c$1679$1_0$555         ebike_app
     0000C17D  A$ebike_app$2857                   ebike_app
     0000C17F  A$ebike_app$2858                   ebike_app
     0000C181  A$ebike_app$2859                   ebike_app
     0000C183  A$ebike_app$2860                   ebike_app
     0000C185  A$ebike_app$2863                   ebike_app
     0000C185  C$ebike_app.c$1678$1_0$555         ebike_app
     0000C186  A$ebike_app$2864                   ebike_app
     0000C188  A$ebike_app$2865                   ebike_app
     0000C189  A$ebike_app$2866                   ebike_app
     0000C18A  A$ebike_app$2867                   ebike_app
     0000C18B  A$ebike_app$2868                   ebike_app
     0000C18C  A$ebike_app$2869                   ebike_app
     0000C18F  A$ebike_app$2870                   ebike_app
     0000C190  A$ebike_app$2871                   ebike_app
     0000C192  A$ebike_app$2872                   ebike_app
     0000C194  A$ebike_app$2873                   ebike_app
     0000C197  A$ebike_app$2874                   ebike_app
     0000C199  A$ebike_app$2875                   ebike_app
     0000C19B  A$ebike_app$2876                   ebike_app
     0000C19C  A$ebike_app$2877                   ebike_app
     0000C19D  A$ebike_app$2878                   ebike_app
     0000C19F  A$ebike_app$2879                   ebike_app
     0000C1A1  A$ebike_app$2880                   ebike_app
     0000C1A3  A$ebike_app$2883                   ebike_app
     0000C1A3  C$ebike_app.c$1677$1_0$555         ebike_app
     0000C1A5  A$ebike_app$2884                   ebike_app
     0000C1A8  A$ebike_app$2885                   ebike_app
     0000C1AA  A$ebike_app$2886                   ebike_app
     0000C1AC  A$ebike_app$2887                   ebike_app
     0000C1AD  A$ebike_app$2888                   ebike_app
     0000C1AE  A$ebike_app$2889                   ebike_app
     0000C1B0  A$ebike_app$2890                   ebike_app
     0000C1B2  A$ebike_app$2891                   ebike_app
     0000C1B4  A$ebike_app$2894                   ebike_app
     0000C1B4  C$ebike_app.c$1676$1_0$555         ebike_app
     0000C1B6  A$ebike_app$2895                   ebike_app
     0000C1B8  A$ebike_app$2896                   ebike_app
     0000C1BA  A$ebike_app$2897                   ebike_app
     0000C1BC  A$ebike_app$2898                   ebike_app
     0000C1BE  A$ebike_app$2899                   ebike_app
     0000C1BF  A$ebike_app$2900                   ebike_app
     0000C1C0  A$ebike_app$2901                   ebike_app
     0000C1C1  A$ebike_app$2902                   ebike_app
     0000C1C2  A$ebike_app$2903                   ebike_app
     0000C1C4  A$ebike_app$2904                   ebike_app
ASxxxx Linker V03.00 + NoICE + sdld,  page 236.
Hexadecimal  [32-Bits]

Area                                    Addr        Size        Decimal Bytes (Attributes)
--------------------------------        ----        ----        ------- ----- ------------
CODE                                000082B4    0000592D =       22829. bytes (REL,CON)

      Value  Global                              Global Defined In Module
      -----  --------------------------------   ------------------------
     0000C1C5  A$ebike_app$2905                   ebike_app
     0000C1C7  A$ebike_app$2906                   ebike_app
     0000C1C8  A$ebike_app$2907                   ebike_app
     0000C1CA  A$ebike_app$2908                   ebike_app
     0000C1CB  A$ebike_app$2909                   ebike_app
     0000C1CD  A$ebike_app$2910                   ebike_app
     0000C1CE  A$ebike_app$2911                   ebike_app
     0000C1D0  A$ebike_app$2912                   ebike_app
     0000C1D1  A$ebike_app$2913                   ebike_app
     0000C1D3  A$ebike_app$2914                   ebike_app
     0000C1D4  A$ebike_app$2915                   ebike_app
     0000C1D6  A$ebike_app$2916                   ebike_app
     0000C1D7  A$ebike_app$2917                   ebike_app
     0000C1D9  A$ebike_app$2918                   ebike_app
     0000C1DA  A$ebike_app$2919                   ebike_app
     0000C1DD  A$ebike_app$2920                   ebike_app
     0000C1DF  A$ebike_app$2921                   ebike_app
     0000C1E1  A$ebike_app$2922                   ebike_app
     0000C1E3  A$ebike_app$2923                   ebike_app
     0000C1E5  A$ebike_app$2924                   ebike_app
     0000C1E7  A$ebike_app$2925                   ebike_app
     0000C1E9  A$ebike_app$2928                   ebike_app
     0000C1EB  A$ebike_app$2931                   ebike_app
     0000C1EB  C$ebike_app.c$1681$1_0$555         ebike_app
     0000C1EB  XFebike_app$apply_speed_limit$0$   ebike_app
     0000C1EC  A$ebike_app$2939                   ebike_app
     0000C1EC  C$ebike_app.c$1711$1_0$557         ebike_app
     0000C1EC  Febike_app$apply_walk_assist$0$0   ebike_app
     0000C1EE  A$ebike_app$2942                   ebike_app
     0000C1EE  C$ebike_app.c$1714$1_0$557         ebike_app
     0000C1F0  A$ebike_app$2943                   ebike_app
     0000C1F2  A$ebike_app$2946                   ebike_app
     0000C1F2  C$ebike_app.c$1716$2_0$558         ebike_app
     0000C1F3  A$ebike_app$2947                   ebike_app
     0000C1F6  A$ebike_app$2948                   ebike_app
     0000C1F7  A$ebike_app$2949                   ebike_app
     0000C1F9  A$ebike_app$2950                   ebike_app
     0000C1FB  A$ebike_app$2951                   ebike_app
     0000C1FD  A$ebike_app$2952                   ebike_app
     0000C1FF  A$ebike_app$2953                   ebike_app
     0000C201  A$ebike_app$2954                   ebike_app
     0000C203  A$ebike_app$2955                   ebike_app
     0000C204  A$ebike_app$2956                   ebike_app
     0000C206  A$ebike_app$2957                   ebike_app
     0000C207  A$ebike_app$2958                   ebike_app
     0000C208  A$ebike_app$2959                   ebike_app
     0000C209  A$ebike_app$2960                   ebike_app
     0000C20A  A$ebike_app$2961                   ebike_app
     0000C20C  A$ebike_app$2962                   ebike_app
     0000C20D  A$ebike_app$2963                   ebike_app
     0000C20E  A$ebike_app$2964                   ebike_app
ASxxxx Linker V03.00 + NoICE + sdld,  page 237.
Hexadecimal  [32-Bits]

Area                                    Addr        Size        Decimal Bytes (Attributes)
--------------------------------        ----        ----        ------- ----- ------------
CODE                                000082B4    0000592D =       22829. bytes (REL,CON)

      Value  Global                              Global Defined In Module
      -----  --------------------------------   ------------------------
     0000C210  A$ebike_app$2965                   ebike_app
     0000C211  A$ebike_app$2966                   ebike_app
     0000C212  A$ebike_app$2967                   ebike_app
     0000C213  A$ebike_app$2968                   ebike_app
     0000C214  A$ebike_app$2969                   ebike_app
     0000C216  A$ebike_app$2970                   ebike_app
     0000C217  A$ebike_app$2971                   ebike_app
     0000C219  A$ebike_app$2972                   ebike_app
     0000C21A  A$ebike_app$2973                   ebike_app
     0000C21D  A$ebike_app$2974                   ebike_app
     0000C21F  A$ebike_app$2975                   ebike_app
     0000C220  A$ebike_app$2978                   ebike_app
     0000C220  C$ebike_app.c$1723$2_0$558         ebike_app
     0000C222  A$ebike_app$2979                   ebike_app
     0000C223  A$ebike_app$2983                   ebike_app
     0000C225  A$ebike_app$2986                   ebike_app
     0000C225  C$ebike_app.c$1725$1_0$557         ebike_app
     0000C225  XFebike_app$apply_walk_assist$0$   ebike_app
     0000C226  A$ebike_app$2994                   ebike_app
     0000C226  C$ebike_app.c$1730$1_0$560         ebike_app
     0000C226  Febike_app$apply_temperature_lim   ebike_app
     0000C228  A$ebike_app$2997                   ebike_app
     0000C228  C$ebike_app.c$1733$1_0$560         ebike_app
     0000C22B  A$ebike_app$2998                   ebike_app
     0000C22D  A$ebike_app$2999                   ebike_app
     0000C230  A$ebike_app$3000                   ebike_app
     0000C232  A$ebike_app$3001                   ebike_app
     0000C234  A$ebike_app$3004                   ebike_app
     0000C234  C$ebike_app.c$1735$2_0$561         ebike_app
     0000C236  A$ebike_app$3005                   ebike_app
     0000C237  A$ebike_app$3008                   ebike_app
     0000C237  C$ebike_app.c$1736$2_0$561         ebike_app
     0000C23B  A$ebike_app$3009                   ebike_app
     0000C23E  A$ebike_app$3013                   ebike_app
     0000C23E  C$ebike_app.c$1741$2_0$562         ebike_app
     0000C240  A$ebike_app$3016                   ebike_app
     0000C240  C$ebike_app.c$1745$2_0$562         ebike_app
     0000C242  A$ebike_app$3017                   ebike_app
     0000C244  A$ebike_app$3018                   ebike_app
     0000C246  A$ebike_app$3019                   ebike_app
     0000C248  A$ebike_app$3020                   ebike_app
     0000C24A  A$ebike_app$3023                   ebike_app
     0000C24A  C$ebike_app.c$1744$2_0$562         ebike_app
     0000C24D  A$ebike_app$3024                   ebike_app
     0000C24E  A$ebike_app$3025                   ebike_app
     0000C24F  A$ebike_app$3026                   ebike_app
     0000C250  A$ebike_app$3027                   ebike_app
     0000C252  A$ebike_app$3028                   ebike_app
     0000C254  A$ebike_app$3029                   ebike_app
     0000C256  A$ebike_app$3032                   ebike_app
     0000C256  C$ebike_app.c$1743$2_0$562         ebike_app
ASxxxx Linker V03.00 + NoICE + sdld,  page 238.
Hexadecimal  [32-Bits]

Area                                    Addr        Size        Decimal Bytes (Attributes)
--------------------------------        ----        ----        ------- ----- ------------
CODE                                000082B4    0000592D =       22829. bytes (REL,CON)

      Value  Global                              Global Defined In Module
      -----  --------------------------------   ------------------------
     0000C259  A$ebike_app$3033                   ebike_app
     0000C25A  A$ebike_app$3034                   ebike_app
     0000C25B  A$ebike_app$3035                   ebike_app
     0000C25C  A$ebike_app$3036                   ebike_app
     0000C25E  A$ebike_app$3037                   ebike_app
     0000C260  A$ebike_app$3038                   ebike_app
     0000C262  A$ebike_app$3041                   ebike_app
     0000C262  C$ebike_app.c$1742$2_0$562         ebike_app
     0000C265  A$ebike_app$3042                   ebike_app
     0000C267  A$ebike_app$3043                   ebike_app
     0000C269  A$ebike_app$3044                   ebike_app
     0000C26B  A$ebike_app$3045                   ebike_app
     0000C26D  A$ebike_app$3046                   ebike_app
     0000C26E  A$ebike_app$3047                   ebike_app
     0000C26F  A$ebike_app$3048                   ebike_app
     0000C270  A$ebike_app$3049                   ebike_app
     0000C271  A$ebike_app$3050                   ebike_app
     0000C273  A$ebike_app$3051                   ebike_app
     0000C274  A$ebike_app$3052                   ebike_app
     0000C276  A$ebike_app$3053                   ebike_app
     0000C277  A$ebike_app$3054                   ebike_app
     0000C279  A$ebike_app$3055                   ebike_app
     0000C27A  A$ebike_app$3056                   ebike_app
     0000C27C  A$ebike_app$3057                   ebike_app
     0000C27D  A$ebike_app$3058                   ebike_app
     0000C27F  A$ebike_app$3059                   ebike_app
     0000C280  A$ebike_app$3060                   ebike_app
     0000C282  A$ebike_app$3061                   ebike_app
     0000C283  A$ebike_app$3062                   ebike_app
     0000C285  A$ebike_app$3063                   ebike_app
     0000C286  A$ebike_app$3064                   ebike_app
     0000C288  A$ebike_app$3065                   ebike_app
     0000C289  A$ebike_app$3066                   ebike_app
     0000C28C  A$ebike_app$3067                   ebike_app
     0000C28E  A$ebike_app$3068                   ebike_app
     0000C290  A$ebike_app$3069                   ebike_app
     0000C292  A$ebike_app$3070                   ebike_app
     0000C294  A$ebike_app$3071                   ebike_app
     0000C296  A$ebike_app$3072                   ebike_app
     0000C298  A$ebike_app$3077                   ebike_app
     0000C298  C$ebike_app.c$1749$2_0$562         ebike_app
     0000C298  C$ebike_app.c$1752$2_0$562         ebike_app
     0000C29B  A$ebike_app$3078                   ebike_app
     0000C29C  A$ebike_app$3079                   ebike_app
     0000C29D  A$ebike_app$3080                   ebike_app
     0000C29E  A$ebike_app$3081                   ebike_app
     0000C2A0  A$ebike_app$3082                   ebike_app
     0000C2A2  A$ebike_app$3085                   ebike_app
     0000C2A2  C$ebike_app.c$1751$2_0$562         ebike_app
     0000C2A5  A$ebike_app$3086                   ebike_app
     0000C2A6  A$ebike_app$3087                   ebike_app
ASxxxx Linker V03.00 + NoICE + sdld,  page 239.
Hexadecimal  [32-Bits]

Area                                    Addr        Size        Decimal Bytes (Attributes)
--------------------------------        ----        ----        ------- ----- ------------
CODE                                000082B4    0000592D =       22829. bytes (REL,CON)

      Value  Global                              Global Defined In Module
      -----  --------------------------------   ------------------------
     0000C2A7  A$ebike_app$3088                   ebike_app
     0000C2A8  A$ebike_app$3089                   ebike_app
     0000C2AA  A$ebike_app$3090                   ebike_app
     0000C2AC  A$ebike_app$3091                   ebike_app
     0000C2AE  A$ebike_app$3094                   ebike_app
     0000C2AE  C$ebike_app.c$1750$2_0$562         ebike_app
     0000C2B1  A$ebike_app$3095                   ebike_app
     0000C2B3  A$ebike_app$3096                   ebike_app
     0000C2B5  A$ebike_app$3097                   ebike_app
     0000C2B7  A$ebike_app$3098                   ebike_app
     0000C2B8  A$ebike_app$3099                   ebike_app
     0000C2B9  A$ebike_app$3100                   ebike_app
     0000C2BA  A$ebike_app$3101                   ebike_app
     0000C2BB  A$ebike_app$3102                   ebike_app
     0000C2BD  A$ebike_app$3103                   ebike_app
     0000C2BE  A$ebike_app$3104                   ebike_app
     0000C2BF  A$ebike_app$3105                   ebike_app
     0000C2C1  A$ebike_app$3106                   ebike_app
     0000C2C3  A$ebike_app$3107                   ebike_app
     0000C2C4  A$ebike_app$3108                   ebike_app
     0000C2C6  A$ebike_app$3109                   ebike_app
     0000C2C8  A$ebike_app$3110                   ebike_app
     0000C2C9  A$ebike_app$3111                   ebike_app
     0000C2CB  A$ebike_app$3112                   ebike_app
     0000C2CC  A$ebike_app$3113                   ebike_app
     0000C2CE  A$ebike_app$3114                   ebike_app
     0000C2CF  A$ebike_app$3115                   ebike_app
     0000C2D1  A$ebike_app$3116                   ebike_app
     0000C2D2  A$ebike_app$3117                   ebike_app
     0000C2D5  A$ebike_app$3118                   ebike_app
     0000C2D7  A$ebike_app$3119                   ebike_app
     0000C2D8  A$ebike_app$3120                   ebike_app
     0000C2DB  A$ebike_app$3124                   ebike_app
     0000C2DD  A$ebike_app$3127                   ebike_app
     0000C2DD  C$ebike_app.c$1756$1_0$560         ebike_app
     0000C2DD  XFebike_app$apply_temperature_li   ebike_app
     0000C2DE  A$ebike_app$3135                   ebike_app
     0000C2DE  C$ebike_app.c$1761$1_0$564         ebike_app
     0000C2DE  Febike_app$boost_run_statemachin   ebike_app
     0000C2E0  A$ebike_app$3138                   ebike_app
     0000C2E0  C$ebike_app.c$1763$1_0$564         ebike_app
     0000C2E3  A$ebike_app$3139                   ebike_app
     0000C2E5  A$ebike_app$3140                   ebike_app
     0000C2E7  A$ebike_app$3141                   ebike_app
     0000C2EA  A$ebike_app$3145                   ebike_app
     0000C2EA  C$ebike_app.c$1765$2_0$565         ebike_app
     0000C2ED  A$ebike_app$3146                   ebike_app
     0000C2EF  A$ebike_app$3147                   ebike_app
     0000C2F1  A$ebike_app$3148                   ebike_app
     0000C2F3  A$ebike_app$3149                   ebike_app
     0000C2F5  A$ebike_app$3150                   ebike_app
ASxxxx Linker V03.00 + NoICE + sdld,  page 240.
Hexadecimal  [32-Bits]

Area                                    Addr        Size        Decimal Bytes (Attributes)
--------------------------------        ----        ----        ------- ----- ------------
CODE                                000082B4    0000592D =       22829. bytes (REL,CON)

      Value  Global                              Global Defined In Module
      -----  --------------------------------   ------------------------
     0000C2F7  A$ebike_app$3151                   ebike_app
     0000C2F9  A$ebike_app$3152                   ebike_app
     0000C2FC  A$ebike_app$3154                   ebike_app
     0000C2FE  A$ebike_app$3155                   ebike_app
     0000C300  A$ebike_app$3156                   ebike_app
     0000C303  A$ebike_app$3158                   ebike_app
     0000C306  A$ebike_app$3164                   ebike_app
     0000C306  C$ebike_app.c$1768$3_0$566         ebike_app
     0000C306  C$ebike_app.c$1769$3_0$566         ebike_app
     0000C309  A$ebike_app$3165                   ebike_app
     0000C30B  A$ebike_app$3166                   ebike_app
     0000C30D  A$ebike_app$3167                   ebike_app
     0000C310  A$ebike_app$3169                   ebike_app
     0000C314  A$ebike_app$3170                   ebike_app
     0000C316  A$ebike_app$3171                   ebike_app
     0000C319  A$ebike_app$3175                   ebike_app
     0000C319  C$ebike_app.c$1771$4_0$567         ebike_app
     0000C31D  A$ebike_app$3178                   ebike_app
     0000C31D  C$ebike_app.c$1772$4_0$567         ebike_app
     0000C320  A$ebike_app$3179                   ebike_app
     0000C323  A$ebike_app$3182                   ebike_app
     0000C323  C$ebike_app.c$1773$4_0$567         ebike_app
     0000C327  A$ebike_app$3185                   ebike_app
     0000C327  C$ebike_app.c$1775$3_0$566         ebike_app
     0000C32A  A$ebike_app$3191                   ebike_app
     0000C32A  C$ebike_app.c$1777$3_0$566         ebike_app
     0000C32A  C$ebike_app.c$1779$3_0$566         ebike_app
     0000C32E  A$ebike_app$3192                   ebike_app
     0000C330  A$ebike_app$3195                   ebike_app
     0000C330  C$ebike_app.c$1781$4_0$568         ebike_app
     0000C334  A$ebike_app$3198                   ebike_app
     0000C334  C$ebike_app.c$1782$4_0$568         ebike_app
     0000C338  A$ebike_app$3202                   ebike_app
     0000C338  C$ebike_app.c$1786$3_0$566         ebike_app
     0000C33B  A$ebike_app$3203                   ebike_app
     0000C33D  A$ebike_app$3204                   ebike_app
     0000C33F  A$ebike_app$3207                   ebike_app
     0000C33F  C$ebike_app.c$1788$4_0$569         ebike_app
     0000C343  A$ebike_app$3210                   ebike_app
     0000C343  C$ebike_app.c$1789$4_0$569         ebike_app
     0000C347  A$ebike_app$3214                   ebike_app
     0000C347  C$ebike_app.c$1793$3_0$566         ebike_app
     0000C34B  A$ebike_app$3215                   ebike_app
     0000C34D  A$ebike_app$3216                   ebike_app
     0000C351  A$ebike_app$3220                   ebike_app
     0000C351  C$ebike_app.c$1796$3_0$566         ebike_app
     0000C355  A$ebike_app$3221                   ebike_app
     0000C357  A$ebike_app$3222                   ebike_app
     0000C35A  A$ebike_app$3226                   ebike_app
     0000C35A  C$ebike_app.c$1798$4_0$571         ebike_app
     0000C35E  A$ebike_app$3229                   ebike_app
ASxxxx Linker V03.00 + NoICE + sdld,  page 241.
Hexadecimal  [32-Bits]

Area                                    Addr        Size        Decimal Bytes (Attributes)
--------------------------------        ----        ----        ------- ----- ------------
CODE                                000082B4    0000592D =       22829. bytes (REL,CON)

      Value  Global                              Global Defined In Module
      -----  --------------------------------   ------------------------
     0000C35E  C$ebike_app.c$1799$4_0$571         ebike_app
     0000C362  A$ebike_app$3232                   ebike_app
     0000C362  C$ebike_app.c$1802$4_0$571         ebike_app
     0000C365  A$ebike_app$3233                   ebike_app
     0000C368  A$ebike_app$3236                   ebike_app
     0000C368  C$ebike_app.c$1803$4_0$571         ebike_app
     0000C36B  A$ebike_app$3237                   ebike_app
     0000C36C  A$ebike_app$3238                   ebike_app
     0000C36D  A$ebike_app$3239                   ebike_app
     0000C36E  A$ebike_app$3240                   ebike_app
     0000C371  A$ebike_app$3243                   ebike_app
     0000C371  C$ebike_app.c$1804$4_0$571         ebike_app
     0000C372  A$ebike_app$3244                   ebike_app
     0000C375  A$ebike_app$3245                   ebike_app
     0000C376  A$ebike_app$3246                   ebike_app
     0000C377  A$ebike_app$3247                   ebike_app
     0000C37A  A$ebike_app$3248                   ebike_app
     0000C37B  A$ebike_app$3249                   ebike_app
     0000C37E  A$ebike_app$3252                   ebike_app
     0000C37E  C$ebike_app.c$1805$4_0$571         ebike_app
     0000C382  A$ebike_app$3255                   ebike_app
     0000C382  C$ebike_app.c$1807$3_0$566         ebike_app
     0000C385  A$ebike_app$3261                   ebike_app
     0000C385  C$ebike_app.c$1809$3_0$566         ebike_app
     0000C385  C$ebike_app.c$1811$3_0$566         ebike_app
     0000C389  A$ebike_app$3262                   ebike_app
     0000C38B  A$ebike_app$3265                   ebike_app
     0000C38B  C$ebike_app.c$1813$4_0$572         ebike_app
     0000C38F  A$ebike_app$3268                   ebike_app
     0000C38F  C$ebike_app.c$1814$4_0$572         ebike_app
     0000C393  A$ebike_app$3271                   ebike_app
     0000C393  C$ebike_app.c$1815$4_0$572         ebike_app
     0000C397  A$ebike_app$3275                   ebike_app
     0000C397  C$ebike_app.c$1818$3_0$566         ebike_app
     0000C39B  A$ebike_app$3276                   ebike_app
     0000C39D  A$ebike_app$3277                   ebike_app
     0000C3A1  A$ebike_app$3281                   ebike_app
     0000C3A1  C$ebike_app.c$1821$3_0$566         ebike_app
     0000C3A4  A$ebike_app$3282                   ebike_app
     0000C3A6  A$ebike_app$3283                   ebike_app
     0000C3A8  A$ebike_app$3284                   ebike_app
     0000C3AC  A$ebike_app$3285                   ebike_app
     0000C3AE  A$ebike_app$3286                   ebike_app
     0000C3B1  A$ebike_app$3291                   ebike_app
     0000C3B1  C$ebike_app.c$1823$4_0$574         ebike_app
     0000C3B5  A$ebike_app$3294                   ebike_app
     0000C3B5  C$ebike_app.c$1824$4_0$574         ebike_app
     0000C3B9  A$ebike_app$3297                   ebike_app
     0000C3B9  C$ebike_app.c$1825$4_0$574         ebike_app
     0000C3BD  A$ebike_app$3300                   ebike_app
     0000C3BD  C$ebike_app.c$1827$3_0$566         ebike_app
ASxxxx Linker V03.00 + NoICE + sdld,  page 242.
Hexadecimal  [32-Bits]

Area                                    Addr        Size        Decimal Bytes (Attributes)
--------------------------------        ----        ----        ------- ----- ------------
CODE                                000082B4    0000592D =       22829. bytes (REL,CON)

      Value  Global                              Global Defined In Module
      -----  --------------------------------   ------------------------
     0000C3BF  A$ebike_app$3306                   ebike_app
     0000C3BF  C$ebike_app.c$1830$3_0$566         ebike_app
     0000C3BF  C$ebike_app.c$1832$3_0$566         ebike_app
     0000C3C2  A$ebike_app$3307                   ebike_app
     0000C3C3  A$ebike_app$3308                   ebike_app
     0000C3C5  A$ebike_app$3311                   ebike_app
     0000C3C5  C$ebike_app.c$1834$4_0$575         ebike_app
     0000C3C8  A$ebike_app$3312                   ebike_app
     0000C3CA  A$ebike_app$3313                   ebike_app
     0000C3CD  A$ebike_app$3314                   ebike_app
     0000C3CF  A$ebike_app$3315                   ebike_app
     0000C3D1  A$ebike_app$3318                   ebike_app
     0000C3D1  C$ebike_app.c$1836$5_0$576         ebike_app
     0000C3D5  A$ebike_app$3322                   ebike_app
     0000C3D5  C$ebike_app.c$1840$3_0$566         ebike_app
     0000C3D8  A$ebike_app$3323                   ebike_app
     0000C3DA  A$ebike_app$3324                   ebike_app
     0000C3DC  A$ebike_app$3325                   ebike_app
     0000C3DE  A$ebike_app$3326                   ebike_app
     0000C3E0  A$ebike_app$3327                   ebike_app
     0000C3E1  A$ebike_app$3328                   ebike_app
     0000C3E2  A$ebike_app$3329                   ebike_app
     0000C3E3  A$ebike_app$3330                   ebike_app
     0000C3E6  A$ebike_app$3331                   ebike_app
     0000C3E8  A$ebike_app$3334                   ebike_app
     0000C3E8  C$ebike_app.c$1842$4_0$577         ebike_app
     0000C3EB  A$ebike_app$3335                   ebike_app
     0000C3ED  A$ebike_app$3336                   ebike_app
     0000C3EF  A$ebike_app$3337                   ebike_app
     0000C3F3  A$ebike_app$3338                   ebike_app
     0000C3F5  A$ebike_app$3342                   ebike_app
     0000C3F5  C$ebike_app.c$1844$5_0$578         ebike_app
     0000C3F9  A$ebike_app$3348                   ebike_app
     0000C3F9  C$ebike_app.c$1851$1_0$564         ebike_app
     0000C3FB  A$ebike_app$3351                   ebike_app
     0000C3FB  C$ebike_app.c$1853$1_0$564         ebike_app
     0000C3FB  XFebike_app$boost_run_statemachi   ebike_app
     0000C3FC  A$ebike_app$3361                   ebike_app
     0000C3FC  C$ebike_app.c$1858$1_0$580         ebike_app
     0000C3FC  C$ebike_app.c$1860$1_0$580         ebike_app
     0000C3FC  Febike_app$apply_boost$0$0         ebike_app
     0000C400  A$ebike_app$3362                   ebike_app
     0000C402  A$ebike_app$3363                   ebike_app
     0000C405  A$ebike_app$3364                   ebike_app
     0000C407  A$ebike_app$3365                   ebike_app
     0000C409  A$ebike_app$3366                   ebike_app
     0000C40B  A$ebike_app$3367                   ebike_app
     0000C40C  A$ebike_app$3368                   ebike_app
     0000C40E  A$ebike_app$3371                   ebike_app
     0000C40F  A$ebike_app$3373                   ebike_app
     0000C410  A$ebike_app$3376                   ebike_app
ASxxxx Linker V03.00 + NoICE + sdld,  page 243.
Hexadecimal  [32-Bits]

Area                                    Addr        Size        Decimal Bytes (Attributes)
--------------------------------        ----        ----        ------- ----- ------------
CODE                                000082B4    0000592D =       22829. bytes (REL,CON)

      Value  Global                              Global Defined In Module
      -----  --------------------------------   ------------------------
     0000C410  C$ebike_app.c$1862$1_0$580         ebike_app
     0000C411  A$ebike_app$3377                   ebike_app
     0000C413  A$ebike_app$3380                   ebike_app
     0000C413  C$ebike_app.c$1864$2_0$581         ebike_app
     0000C415  A$ebike_app$3381                   ebike_app
     0000C417  A$ebike_app$3382                   ebike_app
     0000C419  A$ebike_app$3386                   ebike_app
     0000C419  C$ebike_app.c$1867$1_0$580         ebike_app
     0000C41A  A$ebike_app$3391                   ebike_app
     0000C41A  C$ebike_app.c$1868$1_0$580         ebike_app
     0000C41A  XFebike_app$apply_boost$0$0        ebike_app
     0000C41B  A$ebike_app$3399                   ebike_app
     0000C41B  C$ebike_app.c$1873$1_0$583         ebike_app
     0000C41B  Febike_app$apply_boost_fade_out$   ebike_app
     0000C41D  A$ebike_app$3402                   ebike_app
     0000C41D  C$ebike_app.c$1875$1_0$583         ebike_app
     0000C421  A$ebike_app$3403                   ebike_app
     0000C423  A$ebike_app$3406                   ebike_app
     0000C423  C$ebike_app.c$1878$2_0$584         ebike_app
     0000C426  A$ebike_app$3407                   ebike_app
     0000C427  A$ebike_app$3408                   ebike_app
     0000C428  A$ebike_app$3409                   ebike_app
     0000C429  A$ebike_app$3410                   ebike_app
     0000C42B  A$ebike_app$3413                   ebike_app
     0000C42B  C$ebike_app.c$1879$2_0$584         ebike_app
     0000C42D  A$ebike_app$3414                   ebike_app
     0000C430  A$ebike_app$3415                   ebike_app
     0000C432  A$ebike_app$3418                   ebike_app
     0000C432  C$ebike_app.c$1881$3_0$585         ebike_app
     0000C435  A$ebike_app$3419                   ebike_app
     0000C439  A$ebike_app$3420                   ebike_app
     0000C43C  A$ebike_app$3421                   ebike_app
     0000C43E  A$ebike_app$3425                   ebike_app
     0000C43E  C$ebike_app.c$1883$2_0$584         ebike_app
     0000C440  A$ebike_app$3426                   ebike_app
     0000C443  A$ebike_app$3427                   ebike_app
     0000C445  A$ebike_app$3430                   ebike_app
     0000C445  C$ebike_app.c$1885$3_0$586         ebike_app
     0000C448  A$ebike_app$3431                   ebike_app
     0000C44C  A$ebike_app$3432                   ebike_app
     0000C44F  A$ebike_app$3436                   ebike_app
     0000C44F  C$ebike_app.c$1888$2_0$584         ebike_app
     0000C451  A$ebike_app$3437                   ebike_app
     0000C454  A$ebike_app$3438                   ebike_app
     0000C456  A$ebike_app$3439                   ebike_app
     0000C458  A$ebike_app$3440                   ebike_app
     0000C45A  A$ebike_app$3441                   ebike_app
     0000C45B  A$ebike_app$3445                   ebike_app
     0000C45D  A$ebike_app$3448                   ebike_app
     0000C45D  C$ebike_app.c$1890$1_0$583         ebike_app
     0000C45D  XFebike_app$apply_boost_fade_out   ebike_app
ASxxxx Linker V03.00 + NoICE + sdld,  page 244.
Hexadecimal  [32-Bits]

Area                                    Addr        Size        Decimal Bytes (Attributes)
--------------------------------        ----        ----        ------- ----- ------------
CODE                                000082B4    0000592D =       22829. bytes (REL,CON)

      Value  Global                              Global Defined In Module
      -----  --------------------------------   ------------------------
     0000C45E  A$ebike_app$3458                   ebike_app
     0000C45E  C$ebike_app.c$1895$1_0$588         ebike_app
     0000C45E  C$ebike_app.c$1898$1_0$588         ebike_app
     0000C45E  Febike_app$read_pas_cadence$0$0    ebike_app
     0000C461  A$ebike_app$3459                   ebike_app
     0000C464  A$ebike_app$3460                   ebike_app
     0000C466  A$ebike_app$3461                   ebike_app
     0000C46A  A$ebike_app$3462                   ebike_app
     0000C46C  A$ebike_app$3466                   ebike_app
     0000C46C  C$ebike_app.c$1900$2_0$589         ebike_app
     0000C470  A$ebike_app$3469                   ebike_app
     0000C470  C$ebike_app.c$1901$2_0$589         ebike_app
     0000C474  A$ebike_app$3470                   ebike_app
     0000C477  A$ebike_app$3474                   ebike_app
     0000C477  C$ebike_app.c$1903$1_0$588         ebike_app
     0000C47A  A$ebike_app$3475                   ebike_app
     0000C47C  A$ebike_app$3476                   ebike_app
     0000C47E  A$ebike_app$3479                   ebike_app
     0000C47E  C$ebike_app.c$1905$2_0$590         ebike_app
     0000C482  A$ebike_app$3482                   ebike_app
     0000C482  C$ebike_app.c$1906$1_0$588         ebike_app
     0000C485  A$ebike_app$3483                   ebike_app
     0000C488  A$ebike_app$3484                   ebike_app
     0000C48B  A$ebike_app$3485                   ebike_app
     0000C48D  A$ebike_app$3486                   ebike_app
     0000C48E  A$ebike_app$3487                   ebike_app
     0000C490  A$ebike_app$3488                   ebike_app
     0000C492  A$ebike_app$3489                   ebike_app
     0000C494  A$ebike_app$3490                   ebike_app
     0000C496  A$ebike_app$3491                   ebike_app
     0000C498  A$ebike_app$3492                   ebike_app
     0000C49B  A$ebike_app$3493                   ebike_app
     0000C49D  A$ebike_app$3494                   ebike_app
     0000C49E  A$ebike_app$3495                   ebike_app
     0000C4A0  A$ebike_app$3496                   ebike_app
     0000C4A1  A$ebike_app$3497                   ebike_app
     0000C4A2  A$ebike_app$3498                   ebike_app
     0000C4A4  A$ebike_app$3499                   ebike_app
     0000C4A6  A$ebike_app$3500                   ebike_app
     0000C4A9  A$ebike_app$3501                   ebike_app
     0000C4AB  A$ebike_app$3502                   ebike_app
     0000C4AC  A$ebike_app$3503                   ebike_app
     0000C4AE  A$ebike_app$3504                   ebike_app
     0000C4B1  A$ebike_app$3505                   ebike_app
     0000C4B3  A$ebike_app$3506                   ebike_app
     0000C4B6  A$ebike_app$3507                   ebike_app
     0000C4B8  A$ebike_app$3511                   ebike_app
     0000C4B8  C$ebike_app.c$1910$1_0$588         ebike_app
     0000C4BB  A$ebike_app$3512                   ebike_app
     0000C4BE  A$ebike_app$3513                   ebike_app
     0000C4C1  A$ebike_app$3514                   ebike_app
ASxxxx Linker V03.00 + NoICE + sdld,  page 245.
Hexadecimal  [32-Bits]

Area                                    Addr        Size        Decimal Bytes (Attributes)
--------------------------------        ----        ----        ------- ----- ------------
CODE                                000082B4    0000592D =       22829. bytes (REL,CON)

      Value  Global                              Global Defined In Module
      -----  --------------------------------   ------------------------
     0000C4C3  A$ebike_app$3515                   ebike_app
     0000C4C4  A$ebike_app$3516                   ebike_app
     0000C4C6  A$ebike_app$3517                   ebike_app
     0000C4C8  A$ebike_app$3518                   ebike_app
     0000C4CA  A$ebike_app$3519                   ebike_app
     0000C4CC  A$ebike_app$3520                   ebike_app
     0000C4CE  A$ebike_app$3521                   ebike_app
     0000C4D1  A$ebike_app$3522                   ebike_app
     0000C4D3  A$ebike_app$3523                   ebike_app
     0000C4D4  A$ebike_app$3524                   ebike_app
     0000C4D6  A$ebike_app$3525                   ebike_app
     0000C4D7  A$ebike_app$3526                   ebike_app
     0000C4D8  A$ebike_app$3527                   ebike_app
     0000C4DA  A$ebike_app$3528                   ebike_app
     0000C4DC  A$ebike_app$3529                   ebike_app
     0000C4DF  A$ebike_app$3530                   ebike_app
     0000C4E1  A$ebike_app$3531                   ebike_app
     0000C4E2  A$ebike_app$3532                   ebike_app
     0000C4E4  A$ebike_app$3533                   ebike_app
     0000C4E7  A$ebike_app$3534                   ebike_app
     0000C4E9  A$ebike_app$3535                   ebike_app
     0000C4EC  A$ebike_app$3538                   ebike_app
     0000C4EC  C$ebike_app.c$1911$2_0$591         ebike_app
     0000C4F0  A$ebike_app$3544                   ebike_app
     0000C4F0  C$ebike_app.c$1913$1_0$588         ebike_app
     0000C4F0  XFebike_app$read_pas_cadence$0$0   ebike_app
     0000C4F1  A$ebike_app$3552                   ebike_app
     0000C4F1  C$ebike_app.c$1918$1_0$593         ebike_app
     0000C4F1  Febike_app$torque_sensor_read$0$   ebike_app
     0000C4F3  A$ebike_app$3555                   ebike_app
     0000C4F3  C$ebike_app.c$1920$1_0$593         ebike_app
     0000C4F6  A$ebike_app$3556                   ebike_app
     0000C4F7  A$ebike_app$3559                   ebike_app
     0000C4F7  C$ebike_app.c$1954$1_0$593         ebike_app
     0000C4FA  A$ebike_app$3560                   ebike_app
     0000C4FC  A$ebike_app$3561                   ebike_app
     0000C4FE  A$ebike_app$3562                   ebike_app
     0000C500  A$ebike_app$3565                   ebike_app
     0000C500  C$ebike_app.c$1953$1_0$593         ebike_app
     0000C503  A$ebike_app$3566                   ebike_app
     0000C505  A$ebike_app$3567                   ebike_app
     0000C507  A$ebike_app$3568                   ebike_app
     0000C509  A$ebike_app$3569                   ebike_app
     0000C50B  A$ebike_app$3572                   ebike_app
     0000C50B  C$ebike_app.c$1952$1_0$593         ebike_app
     0000C50C  A$ebike_app$3573                   ebike_app
     0000C50E  A$ebike_app$3574                   ebike_app
     0000C50F  A$ebike_app$3575                   ebike_app
     0000C511  A$ebike_app$3576                   ebike_app
     0000C513  A$ebike_app$3577                   ebike_app
     0000C515  A$ebike_app$3578                   ebike_app
ASxxxx Linker V03.00 + NoICE + sdld,  page 246.
Hexadecimal  [32-Bits]

Area                                    Addr        Size        Decimal Bytes (Attributes)
--------------------------------        ----        ----        ------- ----- ------------
CODE                                000082B4    0000592D =       22829. bytes (REL,CON)

      Value  Global                              Global Defined In Module
      -----  --------------------------------   ------------------------
     0000C517  A$ebike_app$3579                   ebike_app
     0000C518  A$ebike_app$3580                   ebike_app
     0000C519  A$ebike_app$3581                   ebike_app
     0000C51B  A$ebike_app$3582                   ebike_app
     0000C51C  A$ebike_app$3583                   ebike_app
     0000C51D  A$ebike_app$3584                   ebike_app
     0000C51E  A$ebike_app$3585                   ebike_app
     0000C51F  A$ebike_app$3586                   ebike_app
     0000C521  A$ebike_app$3587                   ebike_app
     0000C522  A$ebike_app$3588                   ebike_app
     0000C524  A$ebike_app$3589                   ebike_app
     0000C526  A$ebike_app$3590                   ebike_app
     0000C527  A$ebike_app$3591                   ebike_app
     0000C529  A$ebike_app$3592                   ebike_app
     0000C52A  A$ebike_app$3593                   ebike_app
     0000C52C  A$ebike_app$3594                   ebike_app
     0000C52D  A$ebike_app$3595                   ebike_app
     0000C52F  A$ebike_app$3596                   ebike_app
     0000C530  A$ebike_app$3597                   ebike_app
     0000C533  A$ebike_app$3598                   ebike_app
     0000C535  A$ebike_app$3599                   ebike_app
     0000C536  A$ebike_app$3600                   ebike_app
     0000C539  A$ebike_app$3603                   ebike_app
     0000C539  C$ebike_app.c$1961$1_0$593         ebike_app
     0000C53C  A$ebike_app$3604                   ebike_app
     0000C53E  A$ebike_app$3605                   ebike_app
     0000C540  A$ebike_app$3606                   ebike_app
     0000C542  A$ebike_app$3607                   ebike_app
     0000C544  A$ebike_app$3608                   ebike_app
     0000C546  A$ebike_app$3614                   ebike_app
     0000C546  C$ebike_app.c$1964$2_0$594         ebike_app
     0000C546  C$ebike_app.c$1965$2_0$594         ebike_app
     0000C54A  A$ebike_app$3615                   ebike_app
     0000C54C  A$ebike_app$3618                   ebike_app
     0000C54C  C$ebike_app.c$1966$2_0$594         ebike_app
     0000C54F  A$ebike_app$3619                   ebike_app
     0000C551  A$ebike_app$3622                   ebike_app
     0000C551  C$ebike_app.c$1968$3_0$595         ebike_app
     0000C555  A$ebike_app$3625                   ebike_app
     0000C555  C$ebike_app.c$1970$2_0$594         ebike_app
     0000C557  A$ebike_app$3631                   ebike_app
     0000C557  C$ebike_app.c$1973$2_0$594         ebike_app
     0000C557  C$ebike_app.c$1974$2_0$594         ebike_app
     0000C55A  A$ebike_app$3632                   ebike_app
     0000C55C  A$ebike_app$3635                   ebike_app
     0000C55C  C$ebike_app.c$1975$2_0$594         ebike_app
     0000C560  A$ebike_app$3636                   ebike_app
     0000C562  A$ebike_app$3639                   ebike_app
     0000C562  C$ebike_app.c$1977$3_0$596         ebike_app
     0000C566  A$ebike_app$3645                   ebike_app
     0000C566  C$ebike_app.c$1983$1_0$593         ebike_app
ASxxxx Linker V03.00 + NoICE + sdld,  page 247.
Hexadecimal  [32-Bits]

Area                                    Addr        Size        Decimal Bytes (Attributes)
--------------------------------        ----        ----        ------- ----- ------------
CODE                                000082B4    0000592D =       22829. bytes (REL,CON)

      Value  Global                              Global Defined In Module
      -----  --------------------------------   ------------------------
     0000C566  C$ebike_app.c$1986$1_0$593         ebike_app
     0000C569  A$ebike_app$3646                   ebike_app
     0000C56B  A$ebike_app$3647                   ebike_app
     0000C56D  A$ebike_app$3648                   ebike_app
     0000C571  A$ebike_app$3649                   ebike_app
     0000C573  A$ebike_app$3652                   ebike_app
     0000C573  C$ebike_app.c$1988$2_0$597         ebike_app
     0000C577  A$ebike_app$3653                   ebike_app
     0000C579  A$ebike_app$3657                   ebike_app
     0000C579  C$ebike_app.c$1992$2_0$598         ebike_app
     0000C57E  A$ebike_app$3661                   ebike_app
     0000C580  A$ebike_app$3664                   ebike_app
     0000C580  C$ebike_app.c$1994$1_0$593         ebike_app
     0000C580  XFebike_app$torque_sensor_read$0   ebike_app
     0000C581  A$ebike_app$3674                   ebike_app
     0000C581  C$ebike_app.c$1999$1_0$600         ebike_app
     0000C581  C$ebike_app.c$2010$1_0$600         ebike_app
     0000C581  Febike_app$throttle_read$0$0       ebike_app
     0000C585  A$ebike_app$3679                   ebike_app
     0000C585  C$ebike_app.c$2012$1_0$600         ebike_app
     0000C585  XFebike_app$throttle_read$0$0      ebike_app
     0000C586  A$ebike_app$3687                   ebike_app
     0000C586  C$ebike_app.c$2017$1_0$602         ebike_app
     0000C586  Febike_app$walk_assist_read$0$0    ebike_app
     0000C588  A$ebike_app$3690                   ebike_app
     0000C588  C$ebike_app.c$2021$1_0$602         ebike_app
     0000C58B  A$ebike_app$3691                   ebike_app
     0000C58D  A$ebike_app$3692                   ebike_app
     0000C58F  A$ebike_app$3693                   ebike_app
     0000C591  A$ebike_app$3694                   ebike_app
     0000C593  A$ebike_app$3695                   ebike_app
     0000C595  A$ebike_app$3696                   ebike_app
     0000C596  A$ebike_app$3697                   ebike_app
     0000C597  A$ebike_app$3698                   ebike_app
     0000C599  A$ebike_app$3699                   ebike_app
     0000C59A  A$ebike_app$3700                   ebike_app
     0000C59B  A$ebike_app$3701                   ebike_app
     0000C59C  A$ebike_app$3702                   ebike_app
     0000C59D  A$ebike_app$3703                   ebike_app
     0000C59F  A$ebike_app$3704                   ebike_app
     0000C5A0  A$ebike_app$3705                   ebike_app
     0000C5A1  A$ebike_app$3706                   ebike_app
     0000C5A3  A$ebike_app$3707                   ebike_app
     0000C5A4  A$ebike_app$3708                   ebike_app
     0000C5A5  A$ebike_app$3709                   ebike_app
     0000C5A6  A$ebike_app$3710                   ebike_app
     0000C5A7  A$ebike_app$3711                   ebike_app
     0000C5A9  A$ebike_app$3712                   ebike_app
     0000C5AA  A$ebike_app$3713                   ebike_app
     0000C5AC  A$ebike_app$3714                   ebike_app
     0000C5AD  A$ebike_app$3715                   ebike_app
ASxxxx Linker V03.00 + NoICE + sdld,  page 248.
Hexadecimal  [32-Bits]

Area                                    Addr        Size        Decimal Bytes (Attributes)
--------------------------------        ----        ----        ------- ----- ------------
CODE                                000082B4    0000592D =       22829. bytes (REL,CON)

      Value  Global                              Global Defined In Module
      -----  --------------------------------   ------------------------
     0000C5B0  A$ebike_app$3716                   ebike_app
     0000C5B2  A$ebike_app$3717                   ebike_app
     0000C5B3  A$ebike_app$3718                   ebike_app
     0000C5B6  A$ebike_app$3721                   ebike_app
     0000C5B8  A$ebike_app$3724                   ebike_app
     0000C5B8  C$ebike_app.c$2026$1_0$602         ebike_app
     0000C5B8  XFebike_app$walk_assist_read$0$0   ebike_app
     0000C5B9  A$ebike_app$3732                   ebike_app
     0000C5B9  C$ebike_app.c$2034$1_0$604         ebike_app
     0000C5B9  G$UART2_IRQHandler$0$0             ebike_app
     0000C5B9  _UART2_IRQHandler                  ebike_app
     0000C5BA  A$ebike_app$3733                   ebike_app
     0000C5BB  A$ebike_app$3736                   ebike_app
     0000C5BB  C$ebike_app.c$2036$1_0$604         ebike_app
     0000C5BD  A$ebike_app$3737                   ebike_app
     0000C5BF  A$ebike_app$3738                   ebike_app
     0000C5C2  A$ebike_app$3739                   ebike_app
     0000C5C4  A$ebike_app$3740                   ebike_app
     0000C5C5  A$ebike_app$3741                   ebike_app
     0000C5C7  A$ebike_app$3742                   ebike_app
     0000C5CA  A$ebike_app$3746                   ebike_app
     0000C5CA  C$ebike_app.c$2038$2_0$605         ebike_app
     0000C5CD  A$ebike_app$3747                   ebike_app
     0000C5CF  A$ebike_app$3748                   ebike_app
     0000C5D2  A$ebike_app$3751                   ebike_app
     0000C5D2  C$ebike_app.c$2040$2_0$605         ebike_app
     0000C5D5  A$ebike_app$3752                   ebike_app
     0000C5D8  A$ebike_app$3755                   ebike_app
     0000C5D8  C$ebike_app.c$2042$2_0$605         ebike_app
     0000C5DB  A$ebike_app$3756                   ebike_app
     0000C5DD  A$ebike_app$3757                   ebike_app
     0000C5DF  A$ebike_app$3758                   ebike_app
     0000C5E0  A$ebike_app$3759                   ebike_app
     0000C5E2  A$ebike_app$3760                   ebike_app
     0000C5E5  A$ebike_app$3766                   ebike_app
     0000C5E5  C$ebike_app.c$2044$3_0$606         ebike_app
     0000C5E5  C$ebike_app.c$2045$3_0$606         ebike_app
     0000C5E8  A$ebike_app$3767                   ebike_app
     0000C5EA  A$ebike_app$3768                   ebike_app
     0000C5EC  A$ebike_app$3771                   ebike_app
     0000C5EC  C$ebike_app.c$2047$4_0$607         ebike_app
     0000C5ED  A$ebike_app$3772                   ebike_app
     0000C5F0  A$ebike_app$3773                   ebike_app
     0000C5F1  A$ebike_app$3774                   ebike_app
     0000C5F4  A$ebike_app$3775                   ebike_app
     0000C5F7  A$ebike_app$3778                   ebike_app
     0000C5F7  C$ebike_app.c$2048$4_0$607         ebike_app
     0000C5FB  A$ebike_app$3781                   ebike_app
     0000C5FB  C$ebike_app.c$2049$4_0$607         ebike_app
     0000C5FF  A$ebike_app$3782                   ebike_app
     0000C601  A$ebike_app$3786                   ebike_app
ASxxxx Linker V03.00 + NoICE + sdld,  page 249.
Hexadecimal  [32-Bits]

Area                                    Addr        Size        Decimal Bytes (Attributes)
--------------------------------        ----        ----        ------- ----- ------------
CODE                                000082B4    0000592D =       22829. bytes (REL,CON)

      Value  Global                              Global Defined In Module
      -----  --------------------------------   ------------------------
     0000C601  C$ebike_app.c$2053$4_0$608         ebike_app
     0000C605  A$ebike_app$3789                   ebike_app
     0000C605  C$ebike_app.c$2054$4_0$608         ebike_app
     0000C609  A$ebike_app$3792                   ebike_app
     0000C609  C$ebike_app.c$2056$3_0$606         ebike_app
     0000C60B  A$ebike_app$3798                   ebike_app
     0000C60B  C$ebike_app.c$2058$3_0$606         ebike_app
     0000C60B  C$ebike_app.c$2059$3_0$606         ebike_app
     0000C60C  A$ebike_app$3799                   ebike_app
     0000C60F  A$ebike_app$3800                   ebike_app
     0000C610  A$ebike_app$3801                   ebike_app
     0000C613  A$ebike_app$3802                   ebike_app
     0000C616  A$ebike_app$3803                   ebike_app
     0000C617  A$ebike_app$3806                   ebike_app
     0000C617  C$ebike_app.c$2060$3_0$606         ebike_app
     0000C61B  A$ebike_app$3809                   ebike_app
     0000C61B  C$ebike_app.c$2063$3_0$606         ebike_app
     0000C61E  A$ebike_app$3810                   ebike_app
     0000C620  A$ebike_app$3811                   ebike_app
     0000C622  A$ebike_app$3814                   ebike_app
     0000C622  C$ebike_app.c$2065$4_0$609         ebike_app
     0000C626  A$ebike_app$3817                   ebike_app
     0000C626  C$ebike_app.c$2066$4_0$609         ebike_app
     0000C62A  A$ebike_app$3820                   ebike_app
     0000C62A  C$ebike_app.c$2067$4_0$609         ebike_app
     0000C62E  A$ebike_app$3823                   ebike_app
     0000C62E  C$ebike_app.c$2068$4_0$609         ebike_app
     0000C632  A$ebike_app$3831                   ebike_app
     0000C632  C$ebike_app.c$2074$1_0$604         ebike_app
     0000C632  C$ebike_app.c$2076$1_0$604         ebike_app
     0000C632  XG$UART2_IRQHandler$0$0            ebike_app
     0000C633  A$ebike_app$3841                   ebike_app
     0000C633  C$ebike_app.c$2081$1_0$611         ebike_app
     0000C633  C$ebike_app.c$2083$1_0$611         ebike_app
     0000C633  G$get_configuration_variables$0$   ebike_app
     0000C633  _get_configuration_variables       ebike_app
     0000C636  A$ebike_app$3846                   ebike_app
     0000C636  C$ebike_app.c$2084$1_0$611         ebike_app
     0000C636  XG$get_configuration_variables$0   ebike_app
     0000C637  A$ebike_app$3856                   ebike_app
     0000C637  C$ebike_app.c$2089$1_0$612         ebike_app
     0000C637  C$ebike_app.c$2095$1_0$612         ebike_app
     0000C637  Febike_app$check_system$0$0        ebike_app
     0000C63A  A$ebike_app$3857                   ebike_app
     0000C63B  A$ebike_app$3858                   ebike_app
     0000C63D  A$ebike_app$3861                   ebike_app
     0000C63D  C$ebike_app.c$2098$2_0$613         ebike_app
     0000C641  A$ebike_app$3864                   ebike_app
     0000C641  C$ebike_app.c$2101$2_0$613         ebike_app
     0000C644  A$ebike_app$3865                   ebike_app
     0000C646  A$ebike_app$3866                   ebike_app
ASxxxx Linker V03.00 + NoICE + sdld,  page 250.
Hexadecimal  [32-Bits]

Area                                    Addr        Size        Decimal Bytes (Attributes)
--------------------------------        ----        ----        ------- ----- ------------
CODE                                000082B4    0000592D =       22829. bytes (REL,CON)

      Value  Global                              Global Defined In Module
      -----  --------------------------------   ------------------------
     0000C648  A$ebike_app$3869                   ebike_app
     0000C648  C$ebike_app.c$2104$3_0$614         ebike_app
     0000C64C  A$ebike_app$3872                   ebike_app
     0000C64C  C$ebike_app.c$2107$3_0$614         ebike_app
     0000C650  A$ebike_app$3873                   ebike_app
     0000C652  A$ebike_app$3877                   ebike_app
     0000C652  C$ebike_app.c$2113$2_0$615         ebike_app
     0000C655  A$ebike_app$3878                   ebike_app
     0000C657  A$ebike_app$3879                   ebike_app
     0000C659  A$ebike_app$3882                   ebike_app
     0000C659  C$ebike_app.c$2114$2_0$615         ebike_app
     0000C65C  A$ebike_app$3883                   ebike_app
     0000C65F  A$ebike_app$3884                   ebike_app
     0000C661  A$ebike_app$3887                   ebike_app
     0000C661  C$ebike_app.c$2117$3_0$616         ebike_app
     0000C665  A$ebike_app$3890                   ebike_app
     0000C665  C$ebike_app.c$2120$3_0$616         ebike_app
     0000C668  A$ebike_app$3891                   ebike_app
     0000C66A  A$ebike_app$3892                   ebike_app
     0000C66C  A$ebike_app$3895                   ebike_app
     0000C66C  C$ebike_app.c$2123$4_0$617         ebike_app
     0000C670  A$ebike_app$3898                   ebike_app
     0000C670  C$ebike_app.c$2126$4_0$617         ebike_app
     0000C674  A$ebike_app$3899                   ebike_app
     0000C676  A$ebike_app$3903                   ebike_app
     0000C676  C$ebike_app.c$2132$3_0$618         ebike_app
     0000C67A  A$ebike_app$3909                   ebike_app
     0000C67A  C$ebike_app.c$2135$1_0$612         ebike_app
     0000C67A  XFebike_app$check_system$0$0       ebike_app
     0000C67B  A$utils$63                         utils
     0000C67B  C$utils.c$17$0_0$365               utils
     0000C67B  G$map$0$0                          utils
     0000C67B  _map                               utils
     0000C67D  A$utils$66                         utils
     0000C67D  C$utils.c$20$1_0$365               utils
     0000C67F  A$utils$67                         utils
     0000C681  A$utils$68                         utils
     0000C683  A$utils$69                         utils
     0000C685  A$utils$70                         utils
     0000C687  A$utils$71                         utils
     0000C689  A$utils$72                         utils
     0000C68B  A$utils$75                         utils
     0000C68B  C$utils.c$21$1_0$365               utils
     0000C68D  A$utils$76                         utils
     0000C68F  A$utils$77                         utils
     0000C692  A$utils$81                         utils
     0000C692  C$utils.c$22$1_0$365               utils
     0000C694  A$utils$82                         utils
     0000C696  A$utils$83                         utils
     0000C698  A$utils$84                         utils
     0000C69A  A$utils$85                         utils
ASxxxx Linker V03.00 + NoICE + sdld,  page 251.
Hexadecimal  [32-Bits]

Area                                    Addr        Size        Decimal Bytes (Attributes)
--------------------------------        ----        ----        ------- ----- ------------
CODE                                000082B4    0000592D =       22829. bytes (REL,CON)

      Value  Global                              Global Defined In Module
      -----  --------------------------------   ------------------------
     0000C69C  A$utils$86                         utils
     0000C69E  A$utils$87                         utils
     0000C6A0  A$utils$90                         utils
     0000C6A0  C$utils.c$23$1_0$365               utils
     0000C6A2  A$utils$91                         utils
     0000C6A4  A$utils$92                         utils
     0000C6A7  A$utils$96                         utils
     0000C6A7  C$utils.c$27$1_0$365               utils
     0000C6A9  A$utils$97                         utils
     0000C6AC  A$utils$98                         utils
     0000C6AE  A$utils$99                         utils
     0000C6B0  A$utils$100                        utils
     0000C6B2  A$utils$101                        utils
     0000C6B4  A$utils$102                        utils
     0000C6B6  A$utils$103                        utils
     0000C6B8  A$utils$104                        utils
     0000C6BA  A$utils$105                        utils
     0000C6BC  A$utils$106                        utils
     0000C6BF  A$utils$107                        utils
     0000C6C1  A$utils$108                        utils
     0000C6C3  A$utils$109                        utils
     0000C6C5  A$utils$110                        utils
     0000C6C7  A$utils$111                        utils
     0000C6C9  A$utils$112                        utils
     0000C6CB  A$utils$113                        utils
     0000C6CD  A$utils$114                        utils
     0000C6CF  A$utils$115                        utils
     0000C6D1  A$utils$116                        utils
     0000C6D3  A$utils$117                        utils
     0000C6D5  A$utils$118                        utils
     0000C6D7  A$utils$119                        utils
     0000C6D9  A$utils$120                        utils
     0000C6DB  A$utils$123                        utils
     0000C6DB  C$utils.c$28$1_0$365               utils
     0000C6DD  A$utils$124                        utils
     0000C6E0  A$utils$125                        utils
     0000C6E2  A$utils$126                        utils
     0000C6E4  A$utils$127                        utils
     0000C6E6  A$utils$128                        utils
     0000C6E8  A$utils$129                        utils
     0000C6EA  A$utils$130                        utils
     0000C6EC  A$utils$131                        utils
     0000C6EE  A$utils$132                        utils
     0000C6F0  A$utils$133                        utils
     0000C6F3  A$utils$134                        utils
     0000C6F5  A$utils$135                        utils
     0000C6F7  A$utils$136                        utils
     0000C6F9  A$utils$137                        utils
     0000C6FA  A$utils$139                        utils
     0000C6FC  A$utils$140                        utils
     0000C6FD  A$utils$141                        utils
ASxxxx Linker V03.00 + NoICE + sdld,  page 252.
Hexadecimal  [32-Bits]

Area                                    Addr        Size        Decimal Bytes (Attributes)
--------------------------------        ----        ----        ------- ----- ------------
CODE                                000082B4    0000592D =       22829. bytes (REL,CON)

      Value  Global                              Global Defined In Module
      -----  --------------------------------   ------------------------
     0000C6FF  A$utils$142                        utils
     0000C700  A$utils$143                        utils
     0000C701  A$utils$144                        utils
     0000C703  A$utils$145                        utils
     0000C704  A$utils$146                        utils
     0000C706  A$utils$147                        utils
     0000C707  A$utils$148                        utils
     0000C70A  A$utils$149                        utils
     0000C70C  A$utils$150                        utils
     0000C70E  A$utils$151                        utils
     0000C710  A$utils$152                        utils
     0000C712  A$utils$153                        utils
     0000C715  A$utils$154                        utils
     0000C717  A$utils$155                        utils
     0000C719  A$utils$156                        utils
     0000C71B  A$utils$158                        utils
     0000C71C  A$utils$159                        utils
     0000C71E  A$utils$160                        utils
     0000C720  A$utils$161                        utils
     0000C721  A$utils$162                        utils
     0000C723  A$utils$163                        utils
     0000C724  A$utils$164                        utils
     0000C727  A$utils$165                        utils
     0000C729  A$utils$166                        utils
     0000C72A  A$utils$167                        utils
     0000C72D  A$utils$168                        utils
     0000C72E  A$utils$169                        utils
     0000C730  A$utils$170                        utils
     0000C731  A$utils$171                        utils
     0000C733  A$utils$172                        utils
     0000C734  A$utils$173                        utils
     0000C735  A$utils$174                        utils
     0000C737  A$utils$178                        utils
     0000C737  C$utils.c$31$1_0$365               utils
     0000C739  A$utils$179                        utils
     0000C73C  A$utils$180                        utils
     0000C73E  A$utils$181                        utils
     0000C740  A$utils$182                        utils
     0000C742  A$utils$183                        utils
     0000C744  A$utils$184                        utils
     0000C746  A$utils$185                        utils
     0000C748  A$utils$186                        utils
     0000C74A  A$utils$187                        utils
     0000C74C  A$utils$188                        utils
     0000C74D  A$utils$189                        utils
     0000C74F  A$utils$190                        utils
     0000C750  A$utils$191                        utils
     0000C752  A$utils$192                        utils
     0000C753  A$utils$193                        utils
     0000C755  A$utils$194                        utils
     0000C756  A$utils$195                        utils
ASxxxx Linker V03.00 + NoICE + sdld,  page 253.
Hexadecimal  [32-Bits]

Area                                    Addr        Size        Decimal Bytes (Attributes)
--------------------------------        ----        ----        ------- ----- ------------
CODE                                000082B4    0000592D =       22829. bytes (REL,CON)

      Value  Global                              Global Defined In Module
      -----  --------------------------------   ------------------------
     0000C759  A$utils$196                        utils
     0000C75B  A$utils$197                        utils
     0000C75D  A$utils$198                        utils
     0000C75F  A$utils$199                        utils
     0000C760  A$utils$200                        utils
     0000C762  A$utils$201                        utils
     0000C763  A$utils$202                        utils
     0000C765  A$utils$203                        utils
     0000C766  A$utils$204                        utils
     0000C768  A$utils$205                        utils
     0000C76B  A$utils$206                        utils
     0000C76D  A$utils$207                        utils
     0000C76E  A$utils$208                        utils
     0000C771  A$utils$209                        utils
     0000C772  A$utils$210                        utils
     0000C774  A$utils$211                        utils
     0000C775  A$utils$212                        utils
     0000C777  A$utils$213                        utils
     0000C778  A$utils$214                        utils
     0000C779  A$utils$218                        utils
     0000C77B  A$utils$221                        utils
     0000C77B  C$utils.c$32$1_0$365               utils
     0000C77B  XG$map$0$0                         utils
     0000C77C  A$utils$229                        utils
     0000C77C  C$utils.c$37$1_0$367               utils
     0000C77C  G$map_inverse$0$0                  utils
     0000C77C  _map_inverse                       utils
     0000C77E  A$utils$232                        utils
     0000C77E  C$utils.c$40$1_0$367               utils
     0000C780  A$utils$233                        utils
     0000C782  A$utils$234                        utils
     0000C784  A$utils$235                        utils
     0000C786  A$utils$236                        utils
     0000C788  A$utils$237                        utils
     0000C78A  A$utils$238                        utils
     0000C78C  A$utils$241                        utils
     0000C78C  C$utils.c$41$1_0$367               utils
     0000C78E  A$utils$242                        utils
     0000C790  A$utils$243                        utils
     0000C793  A$utils$247                        utils
     0000C793  C$utils.c$42$1_0$367               utils
     0000C795  A$utils$248                        utils
     0000C797  A$utils$249                        utils
     0000C799  A$utils$250                        utils
     0000C79B  A$utils$251                        utils
     0000C79D  A$utils$252                        utils
     0000C79F  A$utils$253                        utils
     0000C7A1  A$utils$256                        utils
     0000C7A1  C$utils.c$43$1_0$367               utils
     0000C7A3  A$utils$257                        utils
     0000C7A5  A$utils$258                        utils
ASxxxx Linker V03.00 + NoICE + sdld,  page 254.
Hexadecimal  [32-Bits]

Area                                    Addr        Size        Decimal Bytes (Attributes)
--------------------------------        ----        ----        ------- ----- ------------
CODE                                000082B4    0000592D =       22829. bytes (REL,CON)

      Value  Global                              Global Defined In Module
      -----  --------------------------------   ------------------------
     0000C7A7  A$utils$262                        utils
     0000C7A7  C$utils.c$45$1_0$367               utils
     0000C7A9  A$utils$263                        utils
     0000C7AC  A$utils$264                        utils
     0000C7AE  A$utils$265                        utils
     0000C7B0  A$utils$266                        utils
     0000C7B2  A$utils$267                        utils
     0000C7B4  A$utils$268                        utils
     0000C7B6  A$utils$269                        utils
     0000C7B8  A$utils$270                        utils
     0000C7BA  A$utils$271                        utils
     0000C7BC  A$utils$272                        utils
     0000C7BF  A$utils$273                        utils
     0000C7C1  A$utils$274                        utils
     0000C7C3  A$utils$275                        utils
     0000C7C5  A$utils$276                        utils
     0000C7C7  A$utils$277                        utils
     0000C7C9  A$utils$278                        utils
     0000C7CB  A$utils$279                        utils
     0000C7CD  A$utils$280                        utils
     0000C7CF  A$utils$281                        utils
     0000C7D0  A$utils$282                        utils
     0000C7D2  A$utils$283                        utils
     0000C7D3  A$utils$284                        utils
     0000C7D5  A$utils$285                        utils
     0000C7D6  A$utils$286                        utils
     0000C7D8  A$utils$287                        utils
     0000C7D9  A$utils$288                        utils
     0000C7DC  A$utils$289                        utils
     0000C7DE  A$utils$290                        utils
     0000C7E0  A$utils$291                        utils
     0000C7E2  A$utils$292                        utils
     0000C7E5  A$utils$293                        utils
     0000C7E7  A$utils$294                        utils
     0000C7E9  A$utils$295                        utils
     0000C7EB  A$utils$296                        utils
     0000C7ED  A$utils$297                        utils
     0000C7EF  A$utils$298                        utils
     0000C7F1  A$utils$299                        utils
     0000C7F3  A$utils$300                        utils
     0000C7F5  A$utils$301                        utils
     0000C7F6  A$utils$302                        utils
     0000C7F8  A$utils$303                        utils
     0000C7F9  A$utils$304                        utils
     0000C7FB  A$utils$305                        utils
     0000C7FC  A$utils$306                        utils
     0000C7FE  A$utils$307                        utils
     0000C801  A$utils$308                        utils
     0000C803  A$utils$309                        utils
     0000C804  A$utils$310                        utils
     0000C807  A$utils$311                        utils
ASxxxx Linker V03.00 + NoICE + sdld,  page 255.
Hexadecimal  [32-Bits]

Area                                    Addr        Size        Decimal Bytes (Attributes)
--------------------------------        ----        ----        ------- ----- ------------
CODE                                000082B4    0000592D =       22829. bytes (REL,CON)

      Value  Global                              Global Defined In Module
      -----  --------------------------------   ------------------------
     0000C808  A$utils$312                        utils
     0000C80A  A$utils$313                        utils
     0000C80B  A$utils$314                        utils
     0000C80D  A$utils$315                        utils
     0000C80E  A$utils$316                        utils
     0000C80F  A$utils$320                        utils
     0000C811  A$utils$323                        utils
     0000C811  C$utils.c$46$1_0$367               utils
     0000C811  XG$map_inverse$0$0                 utils
     0000C812  A$utils$333                        utils
     0000C812  C$utils.c$51$1_0$369               utils
     0000C812  C$utils.c$53$1_0$369               utils
     0000C812  G$ui8_min$0$0                      utils
     0000C812  _ui8_min                           utils
     0000C814  A$utils$334                        utils
     0000C816  A$utils$335                        utils
     0000C818  A$utils$336                        utils
     0000C81A  A$utils$337                        utils
     0000C81C  A$utils$341                        utils
     0000C81C  C$utils.c$54$1_0$369               utils
     0000C81E  A$utils$347                        utils
     0000C81E  C$utils.c$55$1_0$369               utils
     0000C81E  XG$ui8_min$0$0                     utils
     0000C81F  A$utils$357                        utils
     0000C81F  C$utils.c$60$1_0$371               utils
     0000C81F  C$utils.c$62$1_0$371               utils
     0000C81F  G$ui8_max$0$0                      utils
     0000C81F  _ui8_max                           utils
     0000C821  A$utils$358                        utils
     0000C823  A$utils$359                        utils
     0000C825  A$utils$362                        utils
     0000C825  C$utils.c$63$1_0$371               utils
     0000C827  A$utils$368                        utils
     0000C827  C$utils.c$64$1_0$371               utils
     0000C827  XG$ui8_max$0$0                     utils
     0000C828  A$utils$378                        utils
     0000C828  C$utils.c$69$1_0$373               utils
     0000C828  C$utils.c$71$1_0$373               utils
     0000C828  G$ui8_limit_max$0$0                utils
     0000C828  _ui8_limit_max                     utils
     0000C82A  A$utils$379                        utils
     0000C82B  A$utils$380                        utils
     0000C82D  A$utils$381                        utils
     0000C82F  A$utils$382                        utils
     0000C831  A$utils$383                        utils
     0000C832  A$utils$389                        utils
     0000C832  C$utils.c$72$1_0$373               utils
     0000C832  XG$ui8_limit_max$0$0               utils
     0000C833  A$utils$397                        utils
     0000C833  C$utils.c$77$1_0$376               utils
     0000C833  G$pi_controller$0$0                utils
ASxxxx Linker V03.00 + NoICE + sdld,  page 256.
Hexadecimal  [32-Bits]

Area                                    Addr        Size        Decimal Bytes (Attributes)
--------------------------------        ----        ----        ------- ----- ------------
CODE                                000082B4    0000592D =       22829. bytes (REL,CON)

      Value  Global                              Global Defined In Module
      -----  --------------------------------   ------------------------
     0000C833  _pi_controller                     utils
     0000C835  A$utils$400                        utils
     0000C835  C$utils.c$83$1_0$376               utils
     0000C837  A$utils$401                        utils
     0000C839  A$utils$402                        utils
     0000C83A  A$utils$403                        utils
     0000C83C  A$utils$404                        utils
     0000C83E  A$utils$405                        utils
     0000C840  A$utils$406                        utils
     0000C842  A$utils$407                        utils
     0000C843  A$utils$408                        utils
     0000C845  A$utils$409                        utils
     0000C847  A$utils$410                        utils
     0000C849  A$utils$411                        utils
     0000C84B  A$utils$412                        utils
     0000C84E  A$utils$413                        utils
     0000C850  A$utils$416                        utils
     0000C850  C$utils.c$84$1_0$376               utils
     0000C852  A$utils$417                        utils
     0000C854  A$utils$418                        utils
     0000C855  A$utils$419                        utils
     0000C856  A$utils$420                        utils
     0000C857  A$utils$421                        utils
     0000C859  A$utils$422                        utils
     0000C85A  A$utils$423                        utils
     0000C85D  A$utils$424                        utils
     0000C85F  A$utils$425                        utils
     0000C861  A$utils$426                        utils
     0000C864  A$utils$427                        utils
     0000C866  A$utils$429                        utils
     0000C867  A$utils$430                        utils
     0000C868  A$utils$431                        utils
     0000C86A  A$utils$433                        utils
     0000C86C  A$utils$436                        utils
     0000C86C  C$utils.c$86$1_0$376               utils
     0000C86E  A$utils$437                        utils
     0000C872  A$utils$438                        utils
     0000C873  A$utils$439                        utils
     0000C874  A$utils$440                        utils
     0000C876  A$utils$441                        utils
     0000C878  A$utils$442                        utils
     0000C87A  A$utils$443                        utils
     0000C87B  A$utils$444                        utils
     0000C87C  A$utils$445                        utils
     0000C87E  A$utils$446                        utils
     0000C87F  A$utils$447                        utils
     0000C881  A$utils$448                        utils
     0000C882  A$utils$449                        utils
     0000C885  A$utils$450                        utils
     0000C887  A$utils$451                        utils
     0000C889  A$utils$452                        utils
ASxxxx Linker V03.00 + NoICE + sdld,  page 257.
Hexadecimal  [32-Bits]

Area                                    Addr        Size        Decimal Bytes (Attributes)
--------------------------------        ----        ----        ------- ----- ------------
CODE                                000082B4    0000592D =       22829. bytes (REL,CON)

      Value  Global                              Global Defined In Module
      -----  --------------------------------   ------------------------
     0000C88B  A$utils$453                        utils
     0000C88D  A$utils$454                        utils
     0000C88F  A$utils$455                        utils
     0000C891  A$utils$456                        utils
     0000C892  A$utils$457                        utils
     0000C894  A$utils$459                        utils
     0000C895  A$utils$460                        utils
     0000C896  A$utils$461                        utils
     0000C898  A$utils$463                        utils
     0000C89B  A$utils$464                        utils
     0000C89D  A$utils$467                        utils
     0000C89D  C$utils.c$87$1_0$376               utils
     0000C8A0  A$utils$468                        utils
     0000C8A2  A$utils$469                        utils
     0000C8A3  A$utils$470                        utils
     0000C8A5  A$utils$471                        utils
     0000C8A7  A$utils$472                        utils
     0000C8A8  A$utils$476                        utils
     0000C8A8  C$utils.c$88$1_0$376               utils
     0000C8A9  A$utils$477                        utils
     0000C8AA  A$utils$478                        utils
     0000C8AC  A$utils$479                        utils
     0000C8AD  A$utils$480                        utils
     0000C8AF  A$utils$481                        utils
     0000C8B0  A$utils$485                        utils
     0000C8B0  C$utils.c$90$1_0$376               utils
     0000C8B1  A$utils$486                        utils
     0000C8B2  A$utils$487                        utils
     0000C8B5  A$utils$490                        utils
     0000C8B5  C$utils.c$92$1_0$376               utils
     0000C8B8  A$utils$491                        utils
     0000C8BA  A$utils$492                        utils
     0000C8BD  A$utils$496                        utils
     0000C8BD  C$utils.c$93$1_0$376               utils
     0000C8BE  A$utils$497                        utils
     0000C8C0  A$utils$498                        utils
     0000C8C1  A$utils$502                        utils
     0000C8C1  C$utils.c$94$1_0$376               utils
     0000C8C3  A$utils$503                        utils
     0000C8C4  A$utils$504                        utils
     0000C8C7  A$utils$507                        utils
     0000C8C9  A$utils$510                        utils
     0000C8C9  C$utils.c$95$1_0$376               utils
     0000C8C9  XG$pi_controller$0$0               utils
     0000C8CA  A$utils$520                        utils
     0000C8CA  C$utils.c$100$1_0$382              utils
     0000C8CA  C$utils.c$102$1_0$382              utils
     0000C8CA  G$pi_controller_reset$0$0          utils
     0000C8CA  _pi_controller_reset               utils
     0000C8CC  A$utils$521                        utils
     0000C8CF  A$utils$522                        utils
ASxxxx Linker V03.00 + NoICE + sdld,  page 258.
Hexadecimal  [32-Bits]

Area                                    Addr        Size        Decimal Bytes (Attributes)
--------------------------------        ----        ----        ------- ----- ------------
CODE                                000082B4    0000592D =       22829. bytes (REL,CON)

      Value  Global                              Global Defined In Module
      -----  --------------------------------   ------------------------
     0000C8D1  A$utils$523                        utils
     0000C8D2  A$utils$528                        utils
     0000C8D2  C$utils.c$103$1_0$382              utils
     0000C8D2  XG$pi_controller_reset$0$0         utils
     0000C8D3  A$utils$536                        utils
     0000C8D3  C$utils.c$115$1_0$384              utils
     0000C8D3  G$crc16$0$0                        utils
     0000C8D3  _crc16                             utils
     0000C8D5  A$utils$539                        utils
     0000C8D5  C$utils.c$119$1_0$384              utils
     0000C8D7  A$utils$540                        utils
     0000C8D8  A$utils$541                        utils
     0000C8D9  A$utils$542                        utils
     0000C8DB  A$utils$543                        utils
     0000C8DD  A$utils$544                        utils
     0000C8DF  A$utils$545                        utils
     0000C8E0  A$utils$546                        utils
     0000C8E2  A$utils$547                        utils
     0000C8E3  A$utils$548                        utils
     0000C8E5  A$utils$549                        utils
     0000C8E6  A$utils$550                        utils
     0000C8E8  A$utils$553                        utils
     0000C8EB  A$utils$554                        utils
     0000C8ED  A$utils$558                        utils
     0000C8ED  C$utils.c$122$3_0$386              utils
     0000C8EE  A$utils$559                        utils
     0000C8EF  A$utils$560                        utils
     0000C8F0  A$utils$561                        utils
     0000C8F2  A$utils$564                        utils
     0000C8F2  C$utils.c$123$3_0$386              utils
     0000C8F3  A$utils$565                        utils
     0000C8F4  A$utils$566                        utils
     0000C8F5  A$utils$567                        utils
     0000C8F6  A$utils$568                        utils
     0000C8F8  A$utils$569                        utils
     0000C8F9  A$utils$570                        utils
     0000C8FB  A$utils$571                        utils
     0000C8FC  A$utils$572                        utils
     0000C8FE  A$utils$573                        utils
     0000C900  A$utils$577                        utils
     0000C900  C$utils.c$125$3_0$386              utils
     0000C901  A$utils$578                        utils
     0000C902  A$utils$579                        utils
     0000C903  A$utils$580                        utils
     0000C905  A$utils$581                        utils
     0000C906  A$utils$582                        utils
     0000C908  A$utils$583                        utils
     0000C90A  A$utils$584                        utils
     0000C90C  A$utils$585                        utils
     0000C90D  A$utils$589                        utils
     0000C90D  C$utils.c$120$2_0$385              utils
ASxxxx Linker V03.00 + NoICE + sdld,  page 259.
Hexadecimal  [32-Bits]

Area                                    Addr        Size        Decimal Bytes (Attributes)
--------------------------------        ----        ----        ------- ----- ------------
CODE                                000082B4    0000592D =       22829. bytes (REL,CON)

      Value  Global                              Global Defined In Module
      -----  --------------------------------   ------------------------
     0000C90F  A$utils$590                        utils
     0000C910  A$utils$591                        utils
     0000C912  A$utils$592                        utils
     0000C913  A$utils$593                        utils
     0000C915  A$utils$596                        utils
     0000C917  A$utils$599                        utils
     0000C917  C$utils.c$127$2_0$384              utils
     0000C917  XG$crc16$0$0                       utils
     0000C918  A$eeprom$76                        eeprom
     0000C918  C$eeprom.c$74$0_0$354              eeprom
     0000C918  C$eeprom.c$81$1_0$354              eeprom
     0000C918  G$eeprom_init$0$0                  eeprom
     0000C918  _eeprom_init                       eeprom
     0000C91A  A$eeprom$77                        eeprom
     0000C91C  A$eeprom$78                        eeprom
     0000C91D  A$eeprom$79                        eeprom
     0000C91E  A$eeprom$80                        eeprom
     0000C921  A$eeprom$81                        eeprom
     0000C923  A$eeprom$84                        eeprom
     0000C923  C$eeprom.c$82$1_0$354              eeprom
     0000C924  A$eeprom$85                        eeprom
     0000C926  A$eeprom$86                        eeprom
     0000C928  A$eeprom$87                        eeprom
     0000C929  A$eeprom$88                        eeprom
     0000C92A  A$eeprom$89                        eeprom
     0000C92D  A$eeprom$90                        eeprom
     0000C92F  A$eeprom$91                        eeprom
     0000C930  A$eeprom$92                        eeprom
     0000C931  A$eeprom$95                        eeprom
     0000C931  C$eeprom.c$83$1_0$354              eeprom
     0000C933  A$eeprom$96                        eeprom
     0000C935  A$eeprom$97                        eeprom
     0000C936  A$eeprom$98                        eeprom
     0000C938  A$eeprom$99                        eeprom
     0000C93A  A$eeprom$103                       eeprom
     0000C93A  C$eeprom.c$85$2_0$355              eeprom
     0000C93C  A$eeprom$104                       eeprom
     0000C93E  A$eeprom$105                       eeprom
     0000C941  A$eeprom$106                       eeprom
     0000C943  A$eeprom$112                       eeprom
     0000C943  C$eeprom.c$87$1_0$354              eeprom
     0000C943  XG$eeprom_init$0$0                 eeprom
     0000C944  A$eeprom$122                       eeprom
     0000C944  C$eeprom.c$92$1_0$357              eeprom
     0000C944  C$eeprom.c$95$1_0$357              eeprom
     0000C944  G$eeprom_init_variables$0$0        eeprom
     0000C944  _eeprom_init_variables             eeprom
     0000C947  A$eeprom$123                       eeprom
     0000C948  A$eeprom$126                       eeprom
     0000C948  C$eeprom.c$97$1_0$357              eeprom
     0000C94A  A$eeprom$127                       eeprom
ASxxxx Linker V03.00 + NoICE + sdld,  page 260.
Hexadecimal  [32-Bits]

Area                                    Addr        Size        Decimal Bytes (Attributes)
--------------------------------        ----        ----        ------- ----- ------------
CODE                                000082B4    0000592D =       22829. bytes (REL,CON)

      Value  Global                              Global Defined In Module
      -----  --------------------------------   ------------------------
     0000C94D  A$eeprom$128                       eeprom
     0000C94F  A$eeprom$131                       eeprom
     0000C94F  C$eeprom.c$101$1_0$357             eeprom
     0000C950  A$eeprom$132                       eeprom
     0000C952  A$eeprom$133                       eeprom
     0000C954  A$eeprom$134                       eeprom
     0000C956  A$eeprom$135                       eeprom
     0000C959  A$eeprom$139                       eeprom
     0000C959  C$eeprom.c$102$1_0$357             eeprom
     0000C95A  A$eeprom$140                       eeprom
     0000C95C  A$eeprom$141                       eeprom
     0000C95E  A$eeprom$142                       eeprom
     0000C960  A$eeprom$143                       eeprom
     0000C963  A$eeprom$147                       eeprom
     0000C963  C$eeprom.c$103$1_0$357             eeprom
     0000C964  A$eeprom$148                       eeprom
     0000C966  A$eeprom$149                       eeprom
     0000C969  A$eeprom$150                       eeprom
     0000C96B  A$eeprom$151                       eeprom
     0000C96E  A$eeprom$155                       eeprom
     0000C96E  C$eeprom.c$104$1_0$357             eeprom
     0000C971  A$eeprom$156                       eeprom
     0000C973  A$eeprom$159                       eeprom
     0000C973  C$eeprom.c$105$1_0$357             eeprom
     0000C974  A$eeprom$160                       eeprom
     0000C976  A$eeprom$161                       eeprom
     0000C979  A$eeprom$162                       eeprom
     0000C97B  A$eeprom$165                       eeprom
     0000C97B  C$eeprom.c$106$1_0$357             eeprom
     0000C97E  A$eeprom$166                       eeprom
     0000C980  A$eeprom$169                       eeprom
     0000C980  C$eeprom.c$107$1_0$357             eeprom
     0000C981  A$eeprom$170                       eeprom
     0000C983  A$eeprom$171                       eeprom
     0000C985  A$eeprom$172                       eeprom
     0000C987  A$eeprom$175                       eeprom
     0000C987  C$eeprom.c$108$1_0$357             eeprom
     0000C989  A$eeprom$176                       eeprom
     0000C98B  A$eeprom$179                       eeprom
     0000C98B  C$eeprom.c$109$1_0$357             eeprom
     0000C98D  A$eeprom$180                       eeprom
     0000C98F  A$eeprom$181                       eeprom
     0000C991  A$eeprom$184                       eeprom
     0000C991  C$eeprom.c$110$1_0$357             eeprom
     0000C992  A$eeprom$185                       eeprom
     0000C994  A$eeprom$186                       eeprom
     0000C996  A$eeprom$187                       eeprom
     0000C998  A$eeprom$190                       eeprom
     0000C998  C$eeprom.c$111$1_0$357             eeprom
     0000C999  A$eeprom$191                       eeprom
     0000C99B  A$eeprom$192                       eeprom
ASxxxx Linker V03.00 + NoICE + sdld,  page 261.
Hexadecimal  [32-Bits]

Area                                    Addr        Size        Decimal Bytes (Attributes)
--------------------------------        ----        ----        ------- ----- ------------
CODE                                000082B4    0000592D =       22829. bytes (REL,CON)

      Value  Global                              Global Defined In Module
      -----  --------------------------------   ------------------------
     0000C99D  A$eeprom$193                       eeprom
     0000C99F  A$eeprom$196                       eeprom
     0000C99F  C$eeprom.c$112$1_0$357             eeprom
     0000C9A0  A$eeprom$197                       eeprom
     0000C9A2  A$eeprom$198                       eeprom
     0000C9A4  A$eeprom$199                       eeprom
     0000C9A6  A$eeprom$202                       eeprom
     0000C9A6  C$eeprom.c$113$1_0$357             eeprom
     0000C9A7  A$eeprom$203                       eeprom
     0000C9A9  A$eeprom$204                       eeprom
     0000C9AB  A$eeprom$205                       eeprom
     0000C9AD  A$eeprom$208                       eeprom
     0000C9AD  C$eeprom.c$114$1_0$357             eeprom
     0000C9B0  A$eeprom$209                       eeprom
     0000C9B2  A$eeprom$210                       eeprom
     0000C9B4  A$eeprom$214                       eeprom
     0000C9B4  C$eeprom.c$116$2_0$358             eeprom
     0000C9B6  A$eeprom$215                       eeprom
     0000C9B8  A$eeprom$216                       eeprom
     0000C9BB  A$eeprom$217                       eeprom
     0000C9BD  A$eeprom$220                       eeprom
     0000C9BD  C$eeprom.c$117$2_0$358             eeprom
     0000C9C0  A$eeprom$226                       eeprom
     0000C9C0  C$eeprom.c$119$1_0$357             eeprom
     0000C9C0  XG$eeprom_init_variables$0$0       eeprom
     0000C9C1  A$eeprom$234                       eeprom
     0000C9C1  C$eeprom.c$124$1_0$360             eeprom
     0000C9C1  Feeprom$eeprom_read_values_to_va   eeprom
     0000C9C3  A$eeprom$237                       eeprom
     0000C9C3  C$eeprom.c$130$1_0$360             eeprom
     0000C9C6  A$eeprom$238                       eeprom
     0000C9C8  A$eeprom$241                       eeprom
     0000C9C8  C$eeprom.c$132$1_0$360             eeprom
     0000C9CA  A$eeprom$242                       eeprom
     0000C9CC  A$eeprom$243                       eeprom
     0000C9CD  A$eeprom$244                       eeprom
     0000C9CE  A$eeprom$245                       eeprom
     0000C9D1  A$eeprom$246                       eeprom
     0000C9D3  A$eeprom$247                       eeprom
     0000C9D5  A$eeprom$248                       eeprom
     0000C9D6  A$eeprom$251                       eeprom
     0000C9D6  C$eeprom.c$134$1_0$360             eeprom
     0000C9D8  A$eeprom$252                       eeprom
     0000C9DA  A$eeprom$253                       eeprom
     0000C9DB  A$eeprom$254                       eeprom
     0000C9DC  A$eeprom$255                       eeprom
     0000C9DF  A$eeprom$256                       eeprom
     0000C9E1  A$eeprom$257                       eeprom
     0000C9E4  A$eeprom$260                       eeprom
     0000C9E4  C$eeprom.c$135$1_0$360             eeprom
     0000C9E6  A$eeprom$261                       eeprom
ASxxxx Linker V03.00 + NoICE + sdld,  page 262.
Hexadecimal  [32-Bits]

Area                                    Addr        Size        Decimal Bytes (Attributes)
--------------------------------        ----        ----        ------- ----- ------------
CODE                                000082B4    0000592D =       22829. bytes (REL,CON)

      Value  Global                              Global Defined In Module
      -----  --------------------------------   ------------------------
     0000C9EA  A$eeprom$262                       eeprom
     0000C9ED  A$eeprom$263                       eeprom
     0000C9EE  A$eeprom$264                       eeprom
     0000C9F0  A$eeprom$265                       eeprom
     0000C9F1  A$eeprom$266                       eeprom
     0000C9F3  A$eeprom$269                       eeprom
     0000C9F4  A$eeprom$271                       eeprom
     0000C9F5  A$eeprom$272                       eeprom
     0000C9F7  A$eeprom$275                       eeprom
     0000C9F7  C$eeprom.c$136$1_0$360             eeprom
     0000C9F9  A$eeprom$276                       eeprom
     0000C9FD  A$eeprom$277                       eeprom
     0000CA02  A$eeprom$278                       eeprom
     0000CA04  A$eeprom$280                       eeprom
     0000CA05  A$eeprom$281                       eeprom
     0000CA07  A$eeprom$284                       eeprom
     0000CA08  A$eeprom$286                       eeprom
     0000CA09  A$eeprom$287                       eeprom
     0000CA0B  A$eeprom$290                       eeprom
     0000CA0B  C$eeprom.c$137$1_0$360             eeprom
     0000CA0D  A$eeprom$291                       eeprom
     0000CA11  A$eeprom$292                       eeprom
     0000CA16  A$eeprom$293                       eeprom
     0000CA18  A$eeprom$295                       eeprom
     0000CA19  A$eeprom$296                       eeprom
     0000CA1B  A$eeprom$299                       eeprom
     0000CA1C  A$eeprom$301                       eeprom
     0000CA1D  A$eeprom$302                       eeprom
     0000CA1F  A$eeprom$305                       eeprom
     0000CA1F  C$eeprom.c$138$1_0$360             eeprom
     0000CA21  A$eeprom$306                       eeprom
     0000CA25  A$eeprom$307                       eeprom
     0000CA2A  A$eeprom$308                       eeprom
     0000CA2C  A$eeprom$310                       eeprom
     0000CA2D  A$eeprom$311                       eeprom
     0000CA2F  A$eeprom$314                       eeprom
     0000CA30  A$eeprom$316                       eeprom
     0000CA31  A$eeprom$317                       eeprom
     0000CA33  A$eeprom$320                       eeprom
     0000CA33  C$eeprom.c$139$1_0$360             eeprom
     0000CA35  A$eeprom$321                       eeprom
     0000CA39  A$eeprom$322                       eeprom
     0000CA3E  A$eeprom$323                       eeprom
     0000CA40  A$eeprom$325                       eeprom
     0000CA41  A$eeprom$326                       eeprom
     0000CA43  A$eeprom$329                       eeprom
     0000CA44  A$eeprom$331                       eeprom
     0000CA45  A$eeprom$332                       eeprom
     0000CA47  A$eeprom$335                       eeprom
     0000CA47  C$eeprom.c$141$1_0$360             eeprom
     0000CA49  A$eeprom$336                       eeprom
ASxxxx Linker V03.00 + NoICE + sdld,  page 263.
Hexadecimal  [32-Bits]

Area                                    Addr        Size        Decimal Bytes (Attributes)
--------------------------------        ----        ----        ------- ----- ------------
CODE                                000082B4    0000592D =       22829. bytes (REL,CON)

      Value  Global                              Global Defined In Module
      -----  --------------------------------   ------------------------
     0000CA4A  A$eeprom$337                       eeprom
     0000CA4C  A$eeprom$338                       eeprom
     0000CA4E  A$eeprom$339                       eeprom
     0000CA50  A$eeprom$340                       eeprom
     0000CA51  A$eeprom$341                       eeprom
     0000CA52  A$eeprom$342                       eeprom
     0000CA55  A$eeprom$343                       eeprom
     0000CA57  A$eeprom$344                       eeprom
     0000CA59  A$eeprom$345                       eeprom
     0000CA5A  A$eeprom$348                       eeprom
     0000CA5A  C$eeprom.c$142$1_0$360             eeprom
     0000CA5C  A$eeprom$349                       eeprom
     0000CA5D  A$eeprom$350                       eeprom
     0000CA5E  A$eeprom$351                       eeprom
     0000CA60  A$eeprom$352                       eeprom
     0000CA62  A$eeprom$353                       eeprom
     0000CA63  A$eeprom$354                       eeprom
     0000CA64  A$eeprom$355                       eeprom
     0000CA66  A$eeprom$356                       eeprom
     0000CA69  A$eeprom$357                       eeprom
     0000CA6B  A$eeprom$358                       eeprom
     0000CA6D  A$eeprom$359                       eeprom
     0000CA6E  A$eeprom$362                       eeprom
     0000CA6E  C$eeprom.c$144$1_0$360             eeprom
     0000CA70  A$eeprom$363                       eeprom
     0000CA72  A$eeprom$364                       eeprom
     0000CA73  A$eeprom$365                       eeprom
     0000CA74  A$eeprom$366                       eeprom
     0000CA77  A$eeprom$367                       eeprom
     0000CA79  A$eeprom$368                       eeprom
     0000CA7A  A$eeprom$369                       eeprom
     0000CA7B  A$eeprom$370                       eeprom
     0000CA7E  A$eeprom$373                       eeprom
     0000CA7E  C$eeprom.c$145$1_0$360             eeprom
     0000CA80  A$eeprom$374                       eeprom
     0000CA82  A$eeprom$375                       eeprom
     0000CA83  A$eeprom$376                       eeprom
     0000CA84  A$eeprom$377                       eeprom
     0000CA87  A$eeprom$378                       eeprom
     0000CA89  A$eeprom$379                       eeprom
     0000CA8C  A$eeprom$382                       eeprom
     0000CA8C  C$eeprom.c$146$1_0$360             eeprom
     0000CA8F  A$eeprom$383                       eeprom
     0000CA90  A$eeprom$384                       eeprom
     0000CA91  A$eeprom$385                       eeprom
     0000CA92  A$eeprom$386                       eeprom
     0000CA96  A$eeprom$387                       eeprom
     0000CA99  A$eeprom$390                       eeprom
     0000CA99  C$eeprom.c$147$1_0$360             eeprom
     0000CA9B  A$eeprom$391                       eeprom
     0000CA9F  A$eeprom$392                       eeprom
ASxxxx Linker V03.00 + NoICE + sdld,  page 264.
Hexadecimal  [32-Bits]

Area                                    Addr        Size        Decimal Bytes (Attributes)
--------------------------------        ----        ----        ------- ----- ------------
CODE                                000082B4    0000592D =       22829. bytes (REL,CON)

      Value  Global                              Global Defined In Module
      -----  --------------------------------   ------------------------
     0000CAA1  A$eeprom$395                       eeprom
     0000CAA1  C$eeprom.c$149$1_0$360             eeprom
     0000CAA3  A$eeprom$396                       eeprom
     0000CAA5  A$eeprom$397                       eeprom
     0000CAA6  A$eeprom$398                       eeprom
     0000CAA7  A$eeprom$399                       eeprom
     0000CAAA  A$eeprom$400                       eeprom
     0000CAAC  A$eeprom$401                       eeprom
     0000CAAD  A$eeprom$402                       eeprom
     0000CAAE  A$eeprom$403                       eeprom
     0000CAB1  A$eeprom$406                       eeprom
     0000CAB1  C$eeprom.c$150$1_0$360             eeprom
     0000CAB3  A$eeprom$407                       eeprom
     0000CAB5  A$eeprom$408                       eeprom
     0000CAB6  A$eeprom$409                       eeprom
     0000CAB7  A$eeprom$410                       eeprom
     0000CABA  A$eeprom$411                       eeprom
     0000CABC  A$eeprom$412                       eeprom
     0000CABF  A$eeprom$415                       eeprom
     0000CABF  C$eeprom.c$151$1_0$360             eeprom
     0000CAC2  A$eeprom$416                       eeprom
     0000CAC3  A$eeprom$417                       eeprom
     0000CAC4  A$eeprom$418                       eeprom
     0000CAC5  A$eeprom$419                       eeprom
     0000CAC9  A$eeprom$420                       eeprom
     0000CACC  A$eeprom$423                       eeprom
     0000CACC  C$eeprom.c$152$1_0$360             eeprom
     0000CACE  A$eeprom$424                       eeprom
     0000CAD2  A$eeprom$425                       eeprom
     0000CAD4  A$eeprom$428                       eeprom
     0000CAD4  C$eeprom.c$154$1_0$360             eeprom
     0000CAD6  A$eeprom$429                       eeprom
     0000CAD9  A$eeprom$430                       eeprom
     0000CADA  A$eeprom$431                       eeprom
     0000CADC  A$eeprom$432                       eeprom
     0000CADE  A$eeprom$433                       eeprom
     0000CAE0  A$eeprom$434                       eeprom
     0000CAE2  A$eeprom$435                       eeprom
     0000CAE5  A$eeprom$436                       eeprom
     0000CAE7  A$eeprom$437                       eeprom
     0000CAE8  A$eeprom$438                       eeprom
     0000CAE9  A$eeprom$441                       eeprom
     0000CAE9  C$eeprom.c$156$1_0$360             eeprom
     0000CAEB  A$eeprom$442                       eeprom
     0000CAED  A$eeprom$443                       eeprom
     0000CAEE  A$eeprom$444                       eeprom
     0000CAEF  A$eeprom$445                       eeprom
     0000CAF2  A$eeprom$446                       eeprom
     0000CAF4  A$eeprom$447                       eeprom
     0000CAF7  A$eeprom$450                       eeprom
     0000CAF7  C$eeprom.c$157$1_0$360             eeprom
ASxxxx Linker V03.00 + NoICE + sdld,  page 265.
Hexadecimal  [32-Bits]

Area                                    Addr        Size        Decimal Bytes (Attributes)
--------------------------------        ----        ----        ------- ----- ------------
CODE                                000082B4    0000592D =       22829. bytes (REL,CON)

      Value  Global                              Global Defined In Module
      -----  --------------------------------   ------------------------
     0000CAF9  A$eeprom$451                       eeprom
     0000CAFC  A$eeprom$452                       eeprom
     0000CAFF  A$eeprom$453                       eeprom
     0000CB01  A$eeprom$454                       eeprom
     0000CB02  A$eeprom$457                       eeprom
     0000CB02  C$eeprom.c$158$1_0$360             eeprom
     0000CB04  A$eeprom$458                       eeprom
     0000CB08  A$eeprom$459                       eeprom
     0000CB0B  A$eeprom$460                       eeprom
     0000CB0D  A$eeprom$461                       eeprom
     0000CB0F  A$eeprom$462                       eeprom
     0000CB11  A$eeprom$463                       eeprom
     0000CB13  A$eeprom$464                       eeprom
     0000CB14  A$eeprom$465                       eeprom
     0000CB15  A$eeprom$466                       eeprom
     0000CB16  A$eeprom$467                       eeprom
     0000CB17  A$eeprom$468                       eeprom
     0000CB18  A$eeprom$469                       eeprom
     0000CB19  A$eeprom$470                       eeprom
     0000CB1B  A$eeprom$473                       eeprom
     0000CB1B  C$eeprom.c$160$1_0$360             eeprom
     0000CB1D  A$eeprom$474                       eeprom
     0000CB1F  A$eeprom$475                       eeprom
     0000CB20  A$eeprom$476                       eeprom
     0000CB21  A$eeprom$477                       eeprom
     0000CB24  A$eeprom$478                       eeprom
     0000CB26  A$eeprom$479                       eeprom
     0000CB29  A$eeprom$482                       eeprom
     0000CB29  C$eeprom.c$161$1_0$360             eeprom
     0000CB2B  A$eeprom$483                       eeprom
     0000CB2E  A$eeprom$484                       eeprom
     0000CB31  A$eeprom$485                       eeprom
     0000CB33  A$eeprom$486                       eeprom
     0000CB34  A$eeprom$489                       eeprom
     0000CB34  C$eeprom.c$162$1_0$360             eeprom
     0000CB36  A$eeprom$490                       eeprom
     0000CB39  A$eeprom$491                       eeprom
     0000CB3C  A$eeprom$492                       eeprom
     0000CB3E  A$eeprom$493                       eeprom
     0000CB3F  A$eeprom$496                       eeprom
     0000CB3F  C$eeprom.c$163$1_0$360             eeprom
     0000CB41  A$eeprom$497                       eeprom
     0000CB44  A$eeprom$498                       eeprom
     0000CB47  A$eeprom$499                       eeprom
     0000CB49  A$eeprom$500                       eeprom
     0000CB4A  A$eeprom$503                       eeprom
     0000CB4A  C$eeprom.c$165$1_0$360             eeprom
     0000CB4C  A$eeprom$504                       eeprom
     0000CB4F  A$eeprom$505                       eeprom
     0000CB50  A$eeprom$506                       eeprom
     0000CB52  A$eeprom$507                       eeprom
ASxxxx Linker V03.00 + NoICE + sdld,  page 266.
Hexadecimal  [32-Bits]

Area                                    Addr        Size        Decimal Bytes (Attributes)
--------------------------------        ----        ----        ------- ----- ------------
CODE                                000082B4    0000592D =       22829. bytes (REL,CON)

      Value  Global                              Global Defined In Module
      -----  --------------------------------   ------------------------
     0000CB54  A$eeprom$508                       eeprom
     0000CB56  A$eeprom$509                       eeprom
     0000CB58  A$eeprom$510                       eeprom
     0000CB5B  A$eeprom$511                       eeprom
     0000CB5D  A$eeprom$512                       eeprom
     0000CB5E  A$eeprom$513                       eeprom
     0000CB5F  A$eeprom$516                       eeprom
     0000CB5F  C$eeprom.c$166$1_0$360             eeprom
     0000CB61  A$eeprom$517                       eeprom
     0000CB64  A$eeprom$518                       eeprom
     0000CB65  A$eeprom$519                       eeprom
     0000CB67  A$eeprom$520                       eeprom
     0000CB69  A$eeprom$521                       eeprom
     0000CB6B  A$eeprom$522                       eeprom
     0000CB6D  A$eeprom$523                       eeprom
     0000CB70  A$eeprom$524                       eeprom
     0000CB72  A$eeprom$525                       eeprom
     0000CB73  A$eeprom$526                       eeprom
     0000CB74  A$eeprom$529                       eeprom
     0000CB74  C$eeprom.c$168$1_0$360             eeprom
     0000CB76  A$eeprom$530                       eeprom
     0000CB79  A$eeprom$531                       eeprom
     0000CB7A  A$eeprom$532                       eeprom
     0000CB7C  A$eeprom$533                       eeprom
     0000CB7E  A$eeprom$534                       eeprom
     0000CB80  A$eeprom$535                       eeprom
     0000CB82  A$eeprom$536                       eeprom
     0000CB85  A$eeprom$537                       eeprom
     0000CB87  A$eeprom$538                       eeprom
     0000CB88  A$eeprom$539                       eeprom
     0000CB89  A$eeprom$542                       eeprom
     0000CB89  C$eeprom.c$170$1_0$360             eeprom
     0000CB8B  A$eeprom$543                       eeprom
     0000CB8D  A$eeprom$544                       eeprom
     0000CB8E  A$eeprom$545                       eeprom
     0000CB8F  A$eeprom$546                       eeprom
     0000CB92  A$eeprom$547                       eeprom
     0000CB94  A$eeprom$548                       eeprom
     0000CB95  A$eeprom$549                       eeprom
     0000CB96  A$eeprom$550                       eeprom
     0000CB99  A$eeprom$553                       eeprom
     0000CB99  C$eeprom.c$171$1_0$360             eeprom
     0000CB9B  A$eeprom$554                       eeprom
     0000CB9D  A$eeprom$555                       eeprom
     0000CB9E  A$eeprom$556                       eeprom
     0000CB9F  A$eeprom$557                       eeprom
     0000CBA2  A$eeprom$558                       eeprom
     0000CBA4  A$eeprom$559                       eeprom
     0000CBA7  A$eeprom$562                       eeprom
     0000CBA7  C$eeprom.c$172$1_0$360             eeprom
     0000CBAA  A$eeprom$563                       eeprom
ASxxxx Linker V03.00 + NoICE + sdld,  page 267.
Hexadecimal  [32-Bits]

Area                                    Addr        Size        Decimal Bytes (Attributes)
--------------------------------        ----        ----        ------- ----- ------------
CODE                                000082B4    0000592D =       22829. bytes (REL,CON)

      Value  Global                              Global Defined In Module
      -----  --------------------------------   ------------------------
     0000CBAB  A$eeprom$564                       eeprom
     0000CBAC  A$eeprom$565                       eeprom
     0000CBAD  A$eeprom$566                       eeprom
     0000CBB1  A$eeprom$567                       eeprom
     0000CBB4  A$eeprom$570                       eeprom
     0000CBB4  C$eeprom.c$173$1_0$360             eeprom
     0000CBB6  A$eeprom$571                       eeprom
     0000CBBA  A$eeprom$572                       eeprom
     0000CBBC  A$eeprom$575                       eeprom
     0000CBBC  C$eeprom.c$175$1_0$360             eeprom
     0000CBBE  A$eeprom$576                       eeprom
     0000CBC0  A$eeprom$577                       eeprom
     0000CBC1  A$eeprom$578                       eeprom
     0000CBC2  A$eeprom$579                       eeprom
     0000CBC5  A$eeprom$580                       eeprom
     0000CBC7  A$eeprom$581                       eeprom
     0000CBC8  A$eeprom$582                       eeprom
     0000CBC9  A$eeprom$583                       eeprom
     0000CBCC  A$eeprom$586                       eeprom
     0000CBCC  C$eeprom.c$176$1_0$360             eeprom
     0000CBCE  A$eeprom$587                       eeprom
     0000CBD0  A$eeprom$588                       eeprom
     0000CBD1  A$eeprom$589                       eeprom
     0000CBD2  A$eeprom$590                       eeprom
     0000CBD5  A$eeprom$591                       eeprom
     0000CBD7  A$eeprom$592                       eeprom
     0000CBDA  A$eeprom$595                       eeprom
     0000CBDA  C$eeprom.c$177$1_0$360             eeprom
     0000CBDD  A$eeprom$596                       eeprom
     0000CBDE  A$eeprom$597                       eeprom
     0000CBDF  A$eeprom$598                       eeprom
     0000CBE0  A$eeprom$599                       eeprom
     0000CBE4  A$eeprom$600                       eeprom
     0000CBE7  A$eeprom$603                       eeprom
     0000CBE7  C$eeprom.c$178$1_0$360             eeprom
     0000CBE9  A$eeprom$604                       eeprom
     0000CBED  A$eeprom$605                       eeprom
     0000CBEF  A$eeprom$608                       eeprom
     0000CBEF  C$eeprom.c$180$1_0$360             eeprom
     0000CBF1  A$eeprom$609                       eeprom
     0000CBF4  A$eeprom$610                       eeprom
     0000CBF5  A$eeprom$611                       eeprom
     0000CBF7  A$eeprom$612                       eeprom
     0000CBF9  A$eeprom$613                       eeprom
     0000CBFB  A$eeprom$614                       eeprom
     0000CBFD  A$eeprom$615                       eeprom
     0000CC00  A$eeprom$616                       eeprom
     0000CC02  A$eeprom$617                       eeprom
     0000CC03  A$eeprom$618                       eeprom
     0000CC04  A$eeprom$621                       eeprom
     0000CC04  C$eeprom.c$181$1_0$360             eeprom
ASxxxx Linker V03.00 + NoICE + sdld,  page 268.
Hexadecimal  [32-Bits]

Area                                    Addr        Size        Decimal Bytes (Attributes)
--------------------------------        ----        ----        ------- ----- ------------
CODE                                000082B4    0000592D =       22829. bytes (REL,CON)

      Value  Global                              Global Defined In Module
      -----  --------------------------------   ------------------------
     0000CC06  A$eeprom$622                       eeprom
     0000CC09  A$eeprom$623                       eeprom
     0000CC0B  A$eeprom$624                       eeprom
     0000CC0C  A$eeprom$625                       eeprom
     0000CC0E  A$eeprom$626                       eeprom
     0000CC10  A$eeprom$627                       eeprom
     0000CC12  A$eeprom$628                       eeprom
     0000CC13  A$eeprom$629                       eeprom
     0000CC14  A$eeprom$630                       eeprom
     0000CC17  A$eeprom$631                       eeprom
     0000CC19  A$eeprom$632                       eeprom
     0000CC1B  A$eeprom$633                       eeprom
     0000CC1C  A$eeprom$636                       eeprom
     0000CC1C  C$eeprom.c$182$1_0$360             eeprom
     0000CC1E  A$eeprom$637                       eeprom
     0000CC1F  A$eeprom$638                       eeprom
     0000CC20  A$eeprom$639                       eeprom
     0000CC22  A$eeprom$640                       eeprom
     0000CC24  A$eeprom$641                       eeprom
     0000CC26  A$eeprom$642                       eeprom
     0000CC27  A$eeprom$643                       eeprom
     0000CC28  A$eeprom$644                       eeprom
     0000CC2B  A$eeprom$645                       eeprom
     0000CC2D  A$eeprom$646                       eeprom
     0000CC2F  A$eeprom$647                       eeprom
     0000CC30  A$eeprom$650                       eeprom
     0000CC30  C$eeprom.c$183$1_0$360             eeprom
     0000CC32  A$eeprom$651                       eeprom
     0000CC35  A$eeprom$652                       eeprom
     0000CC36  A$eeprom$653                       eeprom
     0000CC38  A$eeprom$654                       eeprom
     0000CC3A  A$eeprom$655                       eeprom
     0000CC3C  A$eeprom$656                       eeprom
     0000CC3E  A$eeprom$657                       eeprom
     0000CC41  A$eeprom$658                       eeprom
     0000CC43  A$eeprom$659                       eeprom
     0000CC44  A$eeprom$660                       eeprom
     0000CC45  A$eeprom$663                       eeprom
     0000CC45  C$eeprom.c$185$1_0$360             eeprom
     0000CC47  A$eeprom$664                       eeprom
     0000CC4A  A$eeprom$665                       eeprom
     0000CC4B  A$eeprom$666                       eeprom
     0000CC4D  A$eeprom$667                       eeprom
     0000CC4F  A$eeprom$668                       eeprom
     0000CC51  A$eeprom$669                       eeprom
     0000CC53  A$eeprom$670                       eeprom
     0000CC56  A$eeprom$671                       eeprom
     0000CC58  A$eeprom$672                       eeprom
     0000CC59  A$eeprom$673                       eeprom
     0000CC5A  A$eeprom$676                       eeprom
     0000CC5A  C$eeprom.c$186$1_0$360             eeprom
ASxxxx Linker V03.00 + NoICE + sdld,  page 269.
Hexadecimal  [32-Bits]

Area                                    Addr        Size        Decimal Bytes (Attributes)
--------------------------------        ----        ----        ------- ----- ------------
CODE                                000082B4    0000592D =       22829. bytes (REL,CON)

      Value  Global                              Global Defined In Module
      -----  --------------------------------   ------------------------
     0000CC5C  A$eeprom$677                       eeprom
     0000CC5F  A$eeprom$678                       eeprom
     0000CC60  A$eeprom$679                       eeprom
     0000CC62  A$eeprom$680                       eeprom
     0000CC64  A$eeprom$681                       eeprom
     0000CC66  A$eeprom$682                       eeprom
     0000CC68  A$eeprom$683                       eeprom
     0000CC6B  A$eeprom$684                       eeprom
     0000CC6D  A$eeprom$685                       eeprom
     0000CC6E  A$eeprom$686                       eeprom
     0000CC6F  A$eeprom$689                       eeprom
     0000CC6F  C$eeprom.c$187$1_0$360             eeprom
     0000CC71  A$eeprom$690                       eeprom
     0000CC74  A$eeprom$691                       eeprom
     0000CC75  A$eeprom$692                       eeprom
     0000CC77  A$eeprom$693                       eeprom
     0000CC79  A$eeprom$694                       eeprom
     0000CC7B  A$eeprom$695                       eeprom
     0000CC7D  A$eeprom$696                       eeprom
     0000CC80  A$eeprom$697                       eeprom
     0000CC82  A$eeprom$698                       eeprom
     0000CC83  A$eeprom$699                       eeprom
     0000CC84  A$eeprom$702                       eeprom
     0000CC84  C$eeprom.c$188$1_0$360             eeprom
     0000CC86  A$eeprom$703                       eeprom
     0000CC89  A$eeprom$704                       eeprom
     0000CC8B  A$eeprom$705                       eeprom
     0000CC8C  A$eeprom$706                       eeprom
     0000CC8E  A$eeprom$707                       eeprom
     0000CC90  A$eeprom$708                       eeprom
     0000CC92  A$eeprom$709                       eeprom
     0000CC93  A$eeprom$710                       eeprom
     0000CC94  A$eeprom$711                       eeprom
     0000CC97  A$eeprom$712                       eeprom
     0000CC99  A$eeprom$713                       eeprom
     0000CC9B  A$eeprom$714                       eeprom
     0000CC9C  A$eeprom$717                       eeprom
     0000CC9C  C$eeprom.c$189$1_0$360             eeprom
     0000CC9E  A$eeprom$718                       eeprom
     0000CC9F  A$eeprom$719                       eeprom
     0000CCA0  A$eeprom$720                       eeprom
     0000CCA2  A$eeprom$721                       eeprom
     0000CCA4  A$eeprom$722                       eeprom
     0000CCA6  A$eeprom$723                       eeprom
     0000CCA7  A$eeprom$724                       eeprom
     0000CCA8  A$eeprom$725                       eeprom
     0000CCAB  A$eeprom$726                       eeprom
     0000CCAD  A$eeprom$727                       eeprom
     0000CCAF  A$eeprom$728                       eeprom
     0000CCB0  A$eeprom$731                       eeprom
     0000CCB0  C$eeprom.c$190$1_0$360             eeprom
ASxxxx Linker V03.00 + NoICE + sdld,  page 270.
Hexadecimal  [32-Bits]

Area                                    Addr        Size        Decimal Bytes (Attributes)
--------------------------------        ----        ----        ------- ----- ------------
CODE                                000082B4    0000592D =       22829. bytes (REL,CON)

      Value  Global                              Global Defined In Module
      -----  --------------------------------   ------------------------
     0000CCB2  A$eeprom$732                       eeprom
     0000CCB5  A$eeprom$733                       eeprom
     0000CCB6  A$eeprom$734                       eeprom
     0000CCB8  A$eeprom$735                       eeprom
     0000CCBA  A$eeprom$736                       eeprom
     0000CCBC  A$eeprom$737                       eeprom
     0000CCBE  A$eeprom$738                       eeprom
     0000CCC1  A$eeprom$739                       eeprom
     0000CCC3  A$eeprom$740                       eeprom
     0000CCC4  A$eeprom$741                       eeprom
     0000CCC5  A$eeprom$744                       eeprom
     0000CCC5  C$eeprom.c$191$1_0$360             eeprom
     0000CCC7  A$eeprom$745                       eeprom
     0000CCCA  A$eeprom$746                       eeprom
     0000CCCB  A$eeprom$747                       eeprom
     0000CCCD  A$eeprom$748                       eeprom
     0000CCCF  A$eeprom$749                       eeprom
     0000CCD1  A$eeprom$750                       eeprom
     0000CCD3  A$eeprom$751                       eeprom
     0000CCD6  A$eeprom$752                       eeprom
     0000CCD8  A$eeprom$753                       eeprom
     0000CCD9  A$eeprom$754                       eeprom
     0000CCDA  A$eeprom$757                       eeprom
     0000CCDA  C$eeprom.c$192$1_0$360             eeprom
     0000CCDC  A$eeprom$758                       eeprom
     0000CCDF  A$eeprom$759                       eeprom
     0000CCE0  A$eeprom$760                       eeprom
     0000CCE2  A$eeprom$761                       eeprom
     0000CCE4  A$eeprom$762                       eeprom
     0000CCE6  A$eeprom$763                       eeprom
     0000CCE8  A$eeprom$764                       eeprom
     0000CCEB  A$eeprom$765                       eeprom
     0000CCED  A$eeprom$766                       eeprom
     0000CCEE  A$eeprom$767                       eeprom
     0000CCEF  A$eeprom$770                       eeprom
     0000CCEF  C$eeprom.c$193$1_0$360             eeprom
     0000CCF1  A$eeprom$771                       eeprom
     0000CCF4  A$eeprom$772                       eeprom
     0000CCF5  A$eeprom$773                       eeprom
     0000CCF7  A$eeprom$774                       eeprom
     0000CCF9  A$eeprom$775                       eeprom
     0000CCFB  A$eeprom$776                       eeprom
     0000CCFD  A$eeprom$777                       eeprom
     0000CD00  A$eeprom$778                       eeprom
     0000CD02  A$eeprom$779                       eeprom
     0000CD03  A$eeprom$780                       eeprom
     0000CD04  A$eeprom$783                       eeprom
     0000CD04  C$eeprom.c$195$1_0$360             eeprom
     0000CD06  A$eeprom$784                       eeprom
     0000CD09  A$eeprom$785                       eeprom
     0000CD0A  A$eeprom$786                       eeprom
ASxxxx Linker V03.00 + NoICE + sdld,  page 271.
Hexadecimal  [32-Bits]

Area                                    Addr        Size        Decimal Bytes (Attributes)
--------------------------------        ----        ----        ------- ----- ------------
CODE                                000082B4    0000592D =       22829. bytes (REL,CON)

      Value  Global                              Global Defined In Module
      -----  --------------------------------   ------------------------
     0000CD0C  A$eeprom$787                       eeprom
     0000CD0E  A$eeprom$788                       eeprom
     0000CD10  A$eeprom$789                       eeprom
     0000CD12  A$eeprom$790                       eeprom
     0000CD15  A$eeprom$791                       eeprom
     0000CD17  A$eeprom$792                       eeprom
     0000CD18  A$eeprom$793                       eeprom
     0000CD19  A$eeprom$796                       eeprom
     0000CD19  C$eeprom.c$197$1_0$360             eeprom
     0000CD1B  A$eeprom$797                       eeprom
     0000CD1E  A$eeprom$798                       eeprom
     0000CD1F  A$eeprom$799                       eeprom
     0000CD21  A$eeprom$800                       eeprom
     0000CD23  A$eeprom$801                       eeprom
     0000CD25  A$eeprom$802                       eeprom
     0000CD27  A$eeprom$803                       eeprom
     0000CD2A  A$eeprom$804                       eeprom
     0000CD2C  A$eeprom$805                       eeprom
     0000CD2D  A$eeprom$806                       eeprom
     0000CD2E  A$eeprom$809                       eeprom
     0000CD2E  C$eeprom.c$198$1_0$360             eeprom
     0000CD30  A$eeprom$810                       eeprom
     0000CD33  A$eeprom$811                       eeprom
     0000CD34  A$eeprom$812                       eeprom
     0000CD36  A$eeprom$813                       eeprom
     0000CD38  A$eeprom$814                       eeprom
     0000CD3A  A$eeprom$815                       eeprom
     0000CD3C  A$eeprom$816                       eeprom
     0000CD3F  A$eeprom$817                       eeprom
     0000CD41  A$eeprom$818                       eeprom
     0000CD42  A$eeprom$819                       eeprom
     0000CD43  A$eeprom$822                       eeprom
     0000CD43  C$eeprom.c$199$1_0$360             eeprom
     0000CD45  A$eeprom$823                       eeprom
     0000CD48  A$eeprom$824                       eeprom
     0000CD49  A$eeprom$825                       eeprom
     0000CD4B  A$eeprom$826                       eeprom
     0000CD4D  A$eeprom$827                       eeprom
     0000CD4F  A$eeprom$828                       eeprom
     0000CD51  A$eeprom$829                       eeprom
     0000CD54  A$eeprom$830                       eeprom
     0000CD56  A$eeprom$831                       eeprom
     0000CD57  A$eeprom$832                       eeprom
     0000CD58  A$eeprom$835                       eeprom
     0000CD58  C$eeprom.c$201$1_0$360             eeprom
     0000CD5A  A$eeprom$836                       eeprom
     0000CD5D  A$eeprom$837                       eeprom
     0000CD5E  A$eeprom$838                       eeprom
     0000CD60  A$eeprom$839                       eeprom
     0000CD62  A$eeprom$840                       eeprom
     0000CD64  A$eeprom$841                       eeprom
ASxxxx Linker V03.00 + NoICE + sdld,  page 272.
Hexadecimal  [32-Bits]

Area                                    Addr        Size        Decimal Bytes (Attributes)
--------------------------------        ----        ----        ------- ----- ------------
CODE                                000082B4    0000592D =       22829. bytes (REL,CON)

      Value  Global                              Global Defined In Module
      -----  --------------------------------   ------------------------
     0000CD66  A$eeprom$842                       eeprom
     0000CD69  A$eeprom$843                       eeprom
     0000CD6B  A$eeprom$844                       eeprom
     0000CD6C  A$eeprom$845                       eeprom
     0000CD6D  A$eeprom$848                       eeprom
     0000CD6D  C$eeprom.c$202$1_0$360             eeprom
     0000CD6F  A$eeprom$849                       eeprom
     0000CD72  A$eeprom$850                       eeprom
     0000CD74  A$eeprom$851                       eeprom
     0000CD76  A$eeprom$852                       eeprom
     0000CD78  A$eeprom$853                       eeprom
     0000CD79  A$eeprom$854                       eeprom
     0000CD7A  A$eeprom$855                       eeprom
     0000CD7D  A$eeprom$856                       eeprom
     0000CD7F  A$eeprom$857                       eeprom
     0000CD81  A$eeprom$858                       eeprom
     0000CD82  A$eeprom$861                       eeprom
     0000CD82  C$eeprom.c$203$1_0$360             eeprom
     0000CD84  A$eeprom$862                       eeprom
     0000CD85  A$eeprom$863                       eeprom
     0000CD87  A$eeprom$864                       eeprom
     0000CD89  A$eeprom$865                       eeprom
     0000CD8B  A$eeprom$866                       eeprom
     0000CD8C  A$eeprom$867                       eeprom
     0000CD8D  A$eeprom$868                       eeprom
     0000CD90  A$eeprom$869                       eeprom
     0000CD92  A$eeprom$870                       eeprom
     0000CD94  A$eeprom$871                       eeprom
     0000CD95  A$eeprom$874                       eeprom
     0000CD95  C$eeprom.c$204$1_0$360             eeprom
     0000CD97  A$eeprom$875                       eeprom
     0000CD98  A$eeprom$876                       eeprom
     0000CD99  A$eeprom$877                       eeprom
     0000CD9B  A$eeprom$878                       eeprom
     0000CD9D  A$eeprom$879                       eeprom
     0000CD9F  A$eeprom$880                       eeprom
     0000CDA0  A$eeprom$881                       eeprom
     0000CDA1  A$eeprom$882                       eeprom
     0000CDA4  A$eeprom$883                       eeprom
     0000CDA6  A$eeprom$884                       eeprom
     0000CDA8  A$eeprom$885                       eeprom
     0000CDA9  A$eeprom$888                       eeprom
     0000CDA9  C$eeprom.c$205$1_0$360             eeprom
     0000CDAB  A$eeprom$889                       eeprom
     0000CDAE  A$eeprom$890                       eeprom
     0000CDAF  A$eeprom$891                       eeprom
     0000CDB1  A$eeprom$892                       eeprom
     0000CDB3  A$eeprom$893                       eeprom
     0000CDB5  A$eeprom$894                       eeprom
     0000CDB7  A$eeprom$895                       eeprom
     0000CDBA  A$eeprom$896                       eeprom
ASxxxx Linker V03.00 + NoICE + sdld,  page 273.
Hexadecimal  [32-Bits]

Area                                    Addr        Size        Decimal Bytes (Attributes)
--------------------------------        ----        ----        ------- ----- ------------
CODE                                000082B4    0000592D =       22829. bytes (REL,CON)

      Value  Global                              Global Defined In Module
      -----  --------------------------------   ------------------------
     0000CDBC  A$eeprom$897                       eeprom
     0000CDBD  A$eeprom$898                       eeprom
     0000CDBE  A$eeprom$901                       eeprom
     0000CDBE  C$eeprom.c$206$1_0$360             eeprom
     0000CDC0  A$eeprom$902                       eeprom
     0000CDC3  A$eeprom$903                       eeprom
     0000CDC4  A$eeprom$904                       eeprom
     0000CDC6  A$eeprom$905                       eeprom
     0000CDC8  A$eeprom$906                       eeprom
     0000CDCA  A$eeprom$907                       eeprom
     0000CDCC  A$eeprom$908                       eeprom
     0000CDCF  A$eeprom$909                       eeprom
     0000CDD1  A$eeprom$910                       eeprom
     0000CDD2  A$eeprom$911                       eeprom
     0000CDD3  A$eeprom$914                       eeprom
     0000CDD3  C$eeprom.c$207$1_0$360             eeprom
     0000CDD5  A$eeprom$915                       eeprom
     0000CDD8  A$eeprom$916                       eeprom
     0000CDD9  A$eeprom$917                       eeprom
     0000CDDB  A$eeprom$918                       eeprom
     0000CDDD  A$eeprom$919                       eeprom
     0000CDDF  A$eeprom$920                       eeprom
     0000CDE1  A$eeprom$921                       eeprom
     0000CDE4  A$eeprom$922                       eeprom
     0000CDE6  A$eeprom$923                       eeprom
     0000CDE7  A$eeprom$924                       eeprom
     0000CDE8  A$eeprom$927                       eeprom
     0000CDE8  C$eeprom.c$208$1_0$360             eeprom
     0000CDEA  A$eeprom$928                       eeprom
     0000CDED  A$eeprom$929                       eeprom
     0000CDEE  A$eeprom$930                       eeprom
     0000CDF0  A$eeprom$931                       eeprom
     0000CDF2  A$eeprom$932                       eeprom
     0000CDF4  A$eeprom$933                       eeprom
     0000CDF6  A$eeprom$934                       eeprom
     0000CDF9  A$eeprom$935                       eeprom
     0000CDFB  A$eeprom$936                       eeprom
     0000CDFC  A$eeprom$937                       eeprom
     0000CDFD  A$eeprom$940                       eeprom
     0000CDFD  C$eeprom.c$209$1_0$360             eeprom
     0000CDFF  A$eeprom$941                       eeprom
     0000CE01  A$eeprom$942                       eeprom
     0000CE02  A$eeprom$943                       eeprom
     0000CE03  A$eeprom$944                       eeprom
     0000CE06  A$eeprom$945                       eeprom
     0000CE08  A$eeprom$946                       eeprom
     0000CE09  A$eeprom$947                       eeprom
     0000CE0A  A$eeprom$948                       eeprom
     0000CE0D  A$eeprom$951                       eeprom
     0000CE0D  C$eeprom.c$210$1_0$360             eeprom
     0000CE0F  A$eeprom$952                       eeprom
ASxxxx Linker V03.00 + NoICE + sdld,  page 274.
Hexadecimal  [32-Bits]

Area                                    Addr        Size        Decimal Bytes (Attributes)
--------------------------------        ----        ----        ------- ----- ------------
CODE                                000082B4    0000592D =       22829. bytes (REL,CON)

      Value  Global                              Global Defined In Module
      -----  --------------------------------   ------------------------
     0000CE11  A$eeprom$953                       eeprom
     0000CE12  A$eeprom$954                       eeprom
     0000CE13  A$eeprom$955                       eeprom
     0000CE16  A$eeprom$956                       eeprom
     0000CE18  A$eeprom$957                       eeprom
     0000CE1B  A$eeprom$960                       eeprom
     0000CE1B  C$eeprom.c$211$1_0$360             eeprom
     0000CE1E  A$eeprom$961                       eeprom
     0000CE1F  A$eeprom$962                       eeprom
     0000CE20  A$eeprom$963                       eeprom
     0000CE21  A$eeprom$964                       eeprom
     0000CE25  A$eeprom$965                       eeprom
     0000CE28  A$eeprom$968                       eeprom
     0000CE28  C$eeprom.c$212$1_0$360             eeprom
     0000CE2A  A$eeprom$969                       eeprom
     0000CE2E  A$eeprom$970                       eeprom
     0000CE30  A$eeprom$973                       eeprom
     0000CE30  C$eeprom.c$213$1_0$360             eeprom
     0000CE32  A$eeprom$974                       eeprom
     0000CE35  A$eeprom$975                       eeprom
     0000CE37  A$eeprom$976                       eeprom
     0000CE39  A$eeprom$977                       eeprom
     0000CE3A  A$eeprom$980                       eeprom
     0000CE3C  A$eeprom$983                       eeprom
     0000CE3C  C$eeprom.c$214$1_0$360             eeprom
     0000CE3C  XFeeprom$eeprom_read_values_to_v   eeprom
     0000CE3D  A$eeprom$991                       eeprom
     0000CE3D  C$eeprom.c$219$1_0$362             eeprom
     0000CE3D  G$eeprom_write_variables$0$0       eeprom
     0000CE3D  _eeprom_write_variables            eeprom
     0000CE3F  A$eeprom$994                       eeprom
     0000CE3F  C$eeprom.c$222$1_0$362             eeprom
     0000CE40  A$eeprom$995                       eeprom
     0000CE41  A$eeprom$996                       eeprom
     0000CE43  A$eeprom$997                       eeprom
     0000CE44  A$eeprom$998                       eeprom
     0000CE46  A$eeprom$999                       eeprom
     0000CE49  A$eeprom$1000                      eeprom
     0000CE4B  A$eeprom$1001                      eeprom
     0000CE4C  A$eeprom$1004                      eeprom
     0000CE4C  C$eeprom.c$223$1_0$362             eeprom
     0000CE4D  A$eeprom$1005                      eeprom
     0000CE50  A$eeprom$1006                      eeprom
     0000CE52  A$eeprom$1009                      eeprom
     0000CE54  A$eeprom$1012                      eeprom
     0000CE54  C$eeprom.c$224$1_0$362             eeprom
     0000CE54  XG$eeprom_write_variables$0$0      eeprom
     0000CE55  A$eeprom$1020                      eeprom
     0000CE55  C$eeprom.c$229$1_0$364             eeprom
     0000CE55  Feeprom$variables_to_array$0$0     eeprom
     0000CE57  A$eeprom$1023                      eeprom
ASxxxx Linker V03.00 + NoICE + sdld,  page 275.
Hexadecimal  [32-Bits]

Area                                    Addr        Size        Decimal Bytes (Attributes)
--------------------------------        ----        ----        ------- ----- ------------
CODE                                000082B4    0000592D =       22829. bytes (REL,CON)

      Value  Global                              Global Defined In Module
      -----  --------------------------------   ------------------------
     0000CE57  C$eeprom.c$232$1_0$364             eeprom
     0000CE5A  A$eeprom$1024                      eeprom
     0000CE5C  A$eeprom$1027                      eeprom
     0000CE5C  C$eeprom.c$234$1_0$364             eeprom
     0000CE5E  A$eeprom$1028                      eeprom
     0000CE60  A$eeprom$1029                      eeprom
     0000CE61  A$eeprom$1030                      eeprom
     0000CE63  A$eeprom$1031                      eeprom
     0000CE64  A$eeprom$1034                      eeprom
     0000CE64  C$eeprom.c$235$1_0$364             eeprom
     0000CE66  A$eeprom$1035                      eeprom
     0000CE67  A$eeprom$1036                      eeprom
     0000CE69  A$eeprom$1037                      eeprom
     0000CE6B  A$eeprom$1038                      eeprom
     0000CE6C  A$eeprom$1041                      eeprom
     0000CE6C  C$eeprom.c$236$1_0$364             eeprom
     0000CE6E  A$eeprom$1042                      eeprom
     0000CE72  A$eeprom$1043                      eeprom
     0000CE74  A$eeprom$1044                      eeprom
     0000CE76  A$eeprom$1045                      eeprom
     0000CE78  A$eeprom$1046                      eeprom
     0000CE7A  A$eeprom$1049                      eeprom
     0000CE7A  C$eeprom.c$237$1_0$364             eeprom
     0000CE7C  A$eeprom$1050                      eeprom
     0000CE7E  A$eeprom$1051                      eeprom
     0000CE80  A$eeprom$1052                      eeprom
     0000CE81  A$eeprom$1053                      eeprom
     0000CE83  A$eeprom$1054                      eeprom
     0000CE85  A$eeprom$1057                      eeprom
     0000CE85  C$eeprom.c$238$1_0$364             eeprom
     0000CE87  A$eeprom$1058                      eeprom
     0000CE89  A$eeprom$1059                      eeprom
     0000CE8B  A$eeprom$1060                      eeprom
     0000CE8C  A$eeprom$1061                      eeprom
     0000CE8D  A$eeprom$1062                      eeprom
     0000CE8F  A$eeprom$1063                      eeprom
     0000CE91  A$eeprom$1066                      eeprom
     0000CE91  C$eeprom.c$239$1_0$364             eeprom
     0000CE93  A$eeprom$1067                      eeprom
     0000CE95  A$eeprom$1068                      eeprom
     0000CE97  A$eeprom$1069                      eeprom
     0000CE98  A$eeprom$1070                      eeprom
     0000CE99  A$eeprom$1071                      eeprom
     0000CE9A  A$eeprom$1072                      eeprom
     0000CE9C  A$eeprom$1073                      eeprom
     0000CE9E  A$eeprom$1076                      eeprom
     0000CE9E  C$eeprom.c$240$1_0$364             eeprom
     0000CEA0  A$eeprom$1077                      eeprom
     0000CEA2  A$eeprom$1078                      eeprom
     0000CEA3  A$eeprom$1079                      eeprom
     0000CEA5  A$eeprom$1080                      eeprom
ASxxxx Linker V03.00 + NoICE + sdld,  page 276.
Hexadecimal  [32-Bits]

Area                                    Addr        Size        Decimal Bytes (Attributes)
--------------------------------        ----        ----        ------- ----- ------------
CODE                                000082B4    0000592D =       22829. bytes (REL,CON)

      Value  Global                              Global Defined In Module
      -----  --------------------------------   ------------------------
     0000CEA7  A$eeprom$1081                      eeprom
     0000CEA9  A$eeprom$1084                      eeprom
     0000CEA9  C$eeprom.c$241$1_0$364             eeprom
     0000CEAB  A$eeprom$1085                      eeprom
     0000CEAE  A$eeprom$1086                      eeprom
     0000CEB0  A$eeprom$1087                      eeprom
     0000CEB3  A$eeprom$1088                      eeprom
     0000CEB4  A$eeprom$1091                      eeprom
     0000CEB4  C$eeprom.c$242$1_0$364             eeprom
     0000CEB6  A$eeprom$1092                      eeprom
     0000CEB9  A$eeprom$1093                      eeprom
     0000CEBB  A$eeprom$1094                      eeprom
     0000CEBE  A$eeprom$1095                      eeprom
     0000CEBF  A$eeprom$1098                      eeprom
     0000CEBF  C$eeprom.c$243$1_0$364             eeprom
     0000CEC1  A$eeprom$1099                      eeprom
     0000CEC4  A$eeprom$1100                      eeprom
     0000CEC6  A$eeprom$1101                      eeprom
     0000CECA  A$eeprom$1102                      eeprom
     0000CECD  A$eeprom$1103                      eeprom
     0000CECE  A$eeprom$1106                      eeprom
     0000CECE  C$eeprom.c$244$1_0$364             eeprom
     0000CED0  A$eeprom$1107                      eeprom
     0000CED3  A$eeprom$1108                      eeprom
     0000CED5  A$eeprom$1109                      eeprom
     0000CED7  A$eeprom$1110                      eeprom
     0000CED8  A$eeprom$1113                      eeprom
     0000CED8  C$eeprom.c$245$1_0$364             eeprom
     0000CEDA  A$eeprom$1114                      eeprom
     0000CEDD  A$eeprom$1115                      eeprom
     0000CEDF  A$eeprom$1116                      eeprom
     0000CEE3  A$eeprom$1117                      eeprom
     0000CEE6  A$eeprom$1118                      eeprom
     0000CEE7  A$eeprom$1121                      eeprom
     0000CEE7  C$eeprom.c$246$1_0$364             eeprom
     0000CEE9  A$eeprom$1122                      eeprom
     0000CEEC  A$eeprom$1123                      eeprom
     0000CEEE  A$eeprom$1124                      eeprom
     0000CEF0  A$eeprom$1125                      eeprom
     0000CEF1  A$eeprom$1128                      eeprom
     0000CEF1  C$eeprom.c$247$1_0$364             eeprom
     0000CEF3  A$eeprom$1129                      eeprom
     0000CEF6  A$eeprom$1130                      eeprom
     0000CEF8  A$eeprom$1131                      eeprom
     0000CEFB  A$eeprom$1132                      eeprom
     0000CEFC  A$eeprom$1135                      eeprom
     0000CEFC  C$eeprom.c$248$1_0$364             eeprom
     0000CEFE  A$eeprom$1136                      eeprom
     0000CF01  A$eeprom$1137                      eeprom
     0000CF03  A$eeprom$1138                      eeprom
     0000CF06  A$eeprom$1139                      eeprom
ASxxxx Linker V03.00 + NoICE + sdld,  page 277.
Hexadecimal  [32-Bits]

Area                                    Addr        Size        Decimal Bytes (Attributes)
--------------------------------        ----        ----        ------- ----- ------------
CODE                                000082B4    0000592D =       22829. bytes (REL,CON)

      Value  Global                              Global Defined In Module
      -----  --------------------------------   ------------------------
     0000CF08  A$eeprom$1140                      eeprom
     0000CF0A  A$eeprom$1143                      eeprom
     0000CF0A  C$eeprom.c$249$1_0$364             eeprom
     0000CF0C  A$eeprom$1144                      eeprom
     0000CF0F  A$eeprom$1145                      eeprom
     0000CF11  A$eeprom$1146                      eeprom
     0000CF12  A$eeprom$1147                      eeprom
     0000CF13  A$eeprom$1148                      eeprom
     0000CF15  A$eeprom$1149                      eeprom
     0000CF16  A$eeprom$1152                      eeprom
     0000CF16  C$eeprom.c$250$1_0$364             eeprom
     0000CF18  A$eeprom$1153                      eeprom
     0000CF1C  A$eeprom$1154                      eeprom
     0000CF1E  A$eeprom$1155                      eeprom
     0000CF20  A$eeprom$1156                      eeprom
     0000CF22  A$eeprom$1157                      eeprom
     0000CF24  A$eeprom$1160                      eeprom
     0000CF24  C$eeprom.c$251$1_0$364             eeprom
     0000CF26  A$eeprom$1161                      eeprom
     0000CF28  A$eeprom$1162                      eeprom
     0000CF2A  A$eeprom$1163                      eeprom
     0000CF2B  A$eeprom$1164                      eeprom
     0000CF2D  A$eeprom$1165                      eeprom
     0000CF2F  A$eeprom$1168                      eeprom
     0000CF2F  C$eeprom.c$252$1_0$364             eeprom
     0000CF31  A$eeprom$1169                      eeprom
     0000CF33  A$eeprom$1170                      eeprom
     0000CF35  A$eeprom$1171                      eeprom
     0000CF36  A$eeprom$1172                      eeprom
     0000CF37  A$eeprom$1173                      eeprom
     0000CF39  A$eeprom$1174                      eeprom
     0000CF3B  A$eeprom$1177                      eeprom
     0000CF3B  C$eeprom.c$253$1_0$364             eeprom
     0000CF3D  A$eeprom$1178                      eeprom
     0000CF40  A$eeprom$1179                      eeprom
     0000CF42  A$eeprom$1180                      eeprom
     0000CF45  A$eeprom$1181                      eeprom
     0000CF46  A$eeprom$1184                      eeprom
     0000CF46  C$eeprom.c$254$1_0$364             eeprom
     0000CF48  A$eeprom$1185                      eeprom
     0000CF4B  A$eeprom$1186                      eeprom
     0000CF4D  A$eeprom$1187                      eeprom
     0000CF50  A$eeprom$1188                      eeprom
     0000CF51  A$eeprom$1191                      eeprom
     0000CF51  C$eeprom.c$255$1_0$364             eeprom
     0000CF53  A$eeprom$1192                      eeprom
     0000CF56  A$eeprom$1193                      eeprom
     0000CF58  A$eeprom$1194                      eeprom
     0000CF5B  A$eeprom$1195                      eeprom
     0000CF5C  A$eeprom$1198                      eeprom
     0000CF5C  C$eeprom.c$256$1_0$364             eeprom
ASxxxx Linker V03.00 + NoICE + sdld,  page 278.
Hexadecimal  [32-Bits]

Area                                    Addr        Size        Decimal Bytes (Attributes)
--------------------------------        ----        ----        ------- ----- ------------
CODE                                000082B4    0000592D =       22829. bytes (REL,CON)

      Value  Global                              Global Defined In Module
      -----  --------------------------------   ------------------------
     0000CF5E  A$eeprom$1199                      eeprom
     0000CF61  A$eeprom$1200                      eeprom
     0000CF63  A$eeprom$1201                      eeprom
     0000CF67  A$eeprom$1202                      eeprom
     0000CF6A  A$eeprom$1203                      eeprom
     0000CF6B  A$eeprom$1206                      eeprom
     0000CF6B  C$eeprom.c$257$1_0$364             eeprom
     0000CF6D  A$eeprom$1207                      eeprom
     0000CF70  A$eeprom$1208                      eeprom
     0000CF72  A$eeprom$1209                      eeprom
     0000CF74  A$eeprom$1210                      eeprom
     0000CF75  A$eeprom$1213                      eeprom
     0000CF75  C$eeprom.c$258$1_0$364             eeprom
     0000CF77  A$eeprom$1214                      eeprom
     0000CF7A  A$eeprom$1215                      eeprom
     0000CF7C  A$eeprom$1216                      eeprom
     0000CF80  A$eeprom$1217                      eeprom
     0000CF83  A$eeprom$1218                      eeprom
     0000CF84  A$eeprom$1221                      eeprom
     0000CF84  C$eeprom.c$259$1_0$364             eeprom
     0000CF86  A$eeprom$1222                      eeprom
     0000CF89  A$eeprom$1223                      eeprom
     0000CF8B  A$eeprom$1224                      eeprom
     0000CF8D  A$eeprom$1225                      eeprom
     0000CF8E  A$eeprom$1228                      eeprom
     0000CF8E  C$eeprom.c$261$1_0$364             eeprom
     0000CF90  A$eeprom$1229                      eeprom
     0000CF93  A$eeprom$1230                      eeprom
     0000CF95  A$eeprom$1231                      eeprom
     0000CF98  A$eeprom$1232                      eeprom
     0000CF99  A$eeprom$1235                      eeprom
     0000CF99  C$eeprom.c$262$1_0$364             eeprom
     0000CF9B  A$eeprom$1236                      eeprom
     0000CF9E  A$eeprom$1237                      eeprom
     0000CFA0  A$eeprom$1238                      eeprom
     0000CFA3  A$eeprom$1239                      eeprom
     0000CFA4  A$eeprom$1242                      eeprom
     0000CFA4  C$eeprom.c$263$1_0$364             eeprom
     0000CFA6  A$eeprom$1243                      eeprom
     0000CFA9  A$eeprom$1244                      eeprom
     0000CFAB  A$eeprom$1245                      eeprom
     0000CFAE  A$eeprom$1246                      eeprom
     0000CFAF  A$eeprom$1249                      eeprom
     0000CFAF  C$eeprom.c$264$1_0$364             eeprom
     0000CFB1  A$eeprom$1250                      eeprom
     0000CFB4  A$eeprom$1251                      eeprom
     0000CFB6  A$eeprom$1252                      eeprom
     0000CFB9  A$eeprom$1253                      eeprom
     0000CFBA  A$eeprom$1256                      eeprom
     0000CFBA  C$eeprom.c$266$1_0$364             eeprom
     0000CFBC  A$eeprom$1257                      eeprom
ASxxxx Linker V03.00 + NoICE + sdld,  page 279.
Hexadecimal  [32-Bits]

Area                                    Addr        Size        Decimal Bytes (Attributes)
--------------------------------        ----        ----        ------- ----- ------------
CODE                                000082B4    0000592D =       22829. bytes (REL,CON)

      Value  Global                              Global Defined In Module
      -----  --------------------------------   ------------------------
     0000CFBF  A$eeprom$1258                      eeprom
     0000CFC1  A$eeprom$1259                      eeprom
     0000CFC4  A$eeprom$1260                      eeprom
     0000CFC5  A$eeprom$1263                      eeprom
     0000CFC5  C$eeprom.c$267$1_0$364             eeprom
     0000CFC7  A$eeprom$1264                      eeprom
     0000CFCA  A$eeprom$1265                      eeprom
     0000CFCC  A$eeprom$1266                      eeprom
     0000CFCF  A$eeprom$1267                      eeprom
     0000CFD0  A$eeprom$1270                      eeprom
     0000CFD0  C$eeprom.c$268$1_0$364             eeprom
     0000CFD2  A$eeprom$1271                      eeprom
     0000CFD5  A$eeprom$1272                      eeprom
     0000CFD7  A$eeprom$1273                      eeprom
     0000CFDA  A$eeprom$1274                      eeprom
     0000CFDB  A$eeprom$1277                      eeprom
     0000CFDB  C$eeprom.c$269$1_0$364             eeprom
     0000CFDD  A$eeprom$1278                      eeprom
     0000CFE0  A$eeprom$1279                      eeprom
     0000CFE2  A$eeprom$1280                      eeprom
     0000CFE5  A$eeprom$1281                      eeprom
     0000CFE6  A$eeprom$1284                      eeprom
     0000CFE6  C$eeprom.c$270$1_0$364             eeprom
     0000CFE8  A$eeprom$1285                      eeprom
     0000CFEB  A$eeprom$1286                      eeprom
     0000CFED  A$eeprom$1287                      eeprom
     0000CFF0  A$eeprom$1288                      eeprom
     0000CFF1  A$eeprom$1291                      eeprom
     0000CFF1  C$eeprom.c$271$1_0$364             eeprom
     0000CFF3  A$eeprom$1292                      eeprom
     0000CFF6  A$eeprom$1293                      eeprom
     0000CFF8  A$eeprom$1294                      eeprom
     0000CFFB  A$eeprom$1295                      eeprom
     0000CFFC  A$eeprom$1298                      eeprom
     0000CFFC  C$eeprom.c$272$1_0$364             eeprom
     0000CFFE  A$eeprom$1299                      eeprom
     0000D001  A$eeprom$1300                      eeprom
     0000D003  A$eeprom$1301                      eeprom
     0000D006  A$eeprom$1302                      eeprom
     0000D007  A$eeprom$1305                      eeprom
     0000D007  C$eeprom.c$273$1_0$364             eeprom
     0000D009  A$eeprom$1306                      eeprom
     0000D00C  A$eeprom$1307                      eeprom
     0000D00E  A$eeprom$1308                      eeprom
     0000D011  A$eeprom$1309                      eeprom
     0000D012  A$eeprom$1312                      eeprom
     0000D012  C$eeprom.c$274$1_0$364             eeprom
     0000D014  A$eeprom$1313                      eeprom
     0000D017  A$eeprom$1314                      eeprom
     0000D019  A$eeprom$1315                      eeprom
     0000D01C  A$eeprom$1316                      eeprom
ASxxxx Linker V03.00 + NoICE + sdld,  page 280.
Hexadecimal  [32-Bits]

Area                                    Addr        Size        Decimal Bytes (Attributes)
--------------------------------        ----        ----        ------- ----- ------------
CODE                                000082B4    0000592D =       22829. bytes (REL,CON)

      Value  Global                              Global Defined In Module
      -----  --------------------------------   ------------------------
     0000D01D  A$eeprom$1319                      eeprom
     0000D01D  C$eeprom.c$276$1_0$364             eeprom
     0000D01F  A$eeprom$1320                      eeprom
     0000D022  A$eeprom$1321                      eeprom
     0000D024  A$eeprom$1322                      eeprom
     0000D027  A$eeprom$1323                      eeprom
     0000D028  A$eeprom$1326                      eeprom
     0000D028  C$eeprom.c$278$1_0$364             eeprom
     0000D02A  A$eeprom$1327                      eeprom
     0000D02D  A$eeprom$1328                      eeprom
     0000D02F  A$eeprom$1329                      eeprom
     0000D032  A$eeprom$1330                      eeprom
     0000D033  A$eeprom$1333                      eeprom
     0000D033  C$eeprom.c$279$1_0$364             eeprom
     0000D035  A$eeprom$1334                      eeprom
     0000D038  A$eeprom$1335                      eeprom
     0000D03A  A$eeprom$1336                      eeprom
     0000D03D  A$eeprom$1337                      eeprom
     0000D03E  A$eeprom$1340                      eeprom
     0000D03E  C$eeprom.c$280$1_0$364             eeprom
     0000D040  A$eeprom$1341                      eeprom
     0000D043  A$eeprom$1342                      eeprom
     0000D045  A$eeprom$1343                      eeprom
     0000D048  A$eeprom$1344                      eeprom
     0000D049  A$eeprom$1347                      eeprom
     0000D049  C$eeprom.c$282$1_0$364             eeprom
     0000D04B  A$eeprom$1348                      eeprom
     0000D04E  A$eeprom$1349                      eeprom
     0000D050  A$eeprom$1350                      eeprom
     0000D053  A$eeprom$1351                      eeprom
     0000D054  A$eeprom$1354                      eeprom
     0000D054  C$eeprom.c$283$1_0$364             eeprom
     0000D056  A$eeprom$1355                      eeprom
     0000D059  A$eeprom$1356                      eeprom
     0000D05B  A$eeprom$1357                      eeprom
     0000D05E  A$eeprom$1358                      eeprom
     0000D05F  A$eeprom$1361                      eeprom
     0000D05F  C$eeprom.c$284$1_0$364             eeprom
     0000D061  A$eeprom$1362                      eeprom
     0000D064  A$eeprom$1363                      eeprom
     0000D066  A$eeprom$1364                      eeprom
     0000D069  A$eeprom$1365                      eeprom
     0000D06A  A$eeprom$1368                      eeprom
     0000D06A  C$eeprom.c$285$1_0$364             eeprom
     0000D06C  A$eeprom$1369                      eeprom
     0000D06F  A$eeprom$1370                      eeprom
     0000D071  A$eeprom$1371                      eeprom
     0000D074  A$eeprom$1372                      eeprom
     0000D075  A$eeprom$1375                      eeprom
     0000D075  C$eeprom.c$286$1_0$364             eeprom
     0000D077  A$eeprom$1376                      eeprom
ASxxxx Linker V03.00 + NoICE + sdld,  page 281.
Hexadecimal  [32-Bits]

Area                                    Addr        Size        Decimal Bytes (Attributes)
--------------------------------        ----        ----        ------- ----- ------------
CODE                                000082B4    0000592D =       22829. bytes (REL,CON)

      Value  Global                              Global Defined In Module
      -----  --------------------------------   ------------------------
     0000D07A  A$eeprom$1377                      eeprom
     0000D07C  A$eeprom$1378                      eeprom
     0000D07F  A$eeprom$1379                      eeprom
     0000D080  A$eeprom$1382                      eeprom
     0000D080  C$eeprom.c$287$1_0$364             eeprom
     0000D082  A$eeprom$1383                      eeprom
     0000D085  A$eeprom$1384                      eeprom
     0000D087  A$eeprom$1385                      eeprom
     0000D08A  A$eeprom$1386                      eeprom
     0000D08B  A$eeprom$1389                      eeprom
     0000D08B  C$eeprom.c$288$1_0$364             eeprom
     0000D08D  A$eeprom$1390                      eeprom
     0000D090  A$eeprom$1391                      eeprom
     0000D092  A$eeprom$1392                      eeprom
     0000D095  A$eeprom$1393                      eeprom
     0000D096  A$eeprom$1396                      eeprom
     0000D096  C$eeprom.c$289$1_0$364             eeprom
     0000D098  A$eeprom$1397                      eeprom
     0000D09B  A$eeprom$1398                      eeprom
     0000D09D  A$eeprom$1399                      eeprom
     0000D0A0  A$eeprom$1400                      eeprom
     0000D0A1  A$eeprom$1403                      eeprom
     0000D0A1  C$eeprom.c$290$1_0$364             eeprom
     0000D0A3  A$eeprom$1404                      eeprom
     0000D0A6  A$eeprom$1405                      eeprom
     0000D0A8  A$eeprom$1406                      eeprom
     0000D0AC  A$eeprom$1407                      eeprom
     0000D0AF  A$eeprom$1408                      eeprom
     0000D0B0  A$eeprom$1411                      eeprom
     0000D0B0  C$eeprom.c$291$1_0$364             eeprom
     0000D0B2  A$eeprom$1412                      eeprom
     0000D0B5  A$eeprom$1413                      eeprom
     0000D0B7  A$eeprom$1414                      eeprom
     0000D0B9  A$eeprom$1415                      eeprom
     0000D0BA  A$eeprom$1418                      eeprom
     0000D0BA  C$eeprom.c$292$1_0$364             eeprom
     0000D0BC  A$eeprom$1419                      eeprom
     0000D0BE  A$eeprom$1420                      eeprom
     0000D0C0  A$eeprom$1423                      eeprom
     0000D0C2  A$eeprom$1426                      eeprom
     0000D0C2  C$eeprom.c$293$1_0$364             eeprom
     0000D0C2  XFeeprom$variables_to_array$0$0    eeprom
     0000D0C3  A$eeprom$1434                      eeprom
     0000D0C3  C$eeprom.c$298$1_0$366             eeprom
     0000D0C3  Feeprom$eeprom_write_array$0$0     eeprom
     0000D0C5  A$eeprom$1437                      eeprom
     0000D0C5  C$eeprom.c$302$1_0$366             eeprom
     0000D0C7  A$eeprom$1438                      eeprom
     0000D0CA  A$eeprom$1439                      eeprom
     0000D0CB  A$eeprom$1442                      eeprom
     0000D0CB  C$eeprom.c$304$1_0$366             eeprom
ASxxxx Linker V03.00 + NoICE + sdld,  page 282.
Hexadecimal  [32-Bits]

Area                                    Addr        Size        Decimal Bytes (Attributes)
--------------------------------        ----        ----        ------- ----- ------------
CODE                                000082B4    0000592D =       22829. bytes (REL,CON)

      Value  Global                              Global Defined In Module
      -----  --------------------------------   ------------------------
     0000D0CD  A$eeprom$1443                      eeprom
     0000D0D0  A$eeprom$1444                      eeprom
     0000D0D1  A$eeprom$1448                      eeprom
     0000D0D1  C$eeprom.c$305$1_0$366             eeprom
     0000D0D3  A$eeprom$1449                      eeprom
     0000D0D6  A$eeprom$1450                      eeprom
     0000D0D8  A$eeprom$1451                      eeprom
     0000D0D9  A$eeprom$1452                      eeprom
     0000D0DB  A$eeprom$1455                      eeprom
     0000D0DB  C$eeprom.c$307$1_0$366             eeprom
     0000D0DD  A$eeprom$1456                      eeprom
     0000D0DF  A$eeprom$1460                      eeprom
     0000D0DF  C$eeprom.c$309$3_0$369             eeprom
     0000D0E0  A$eeprom$1461                      eeprom
     0000D0E1  A$eeprom$1462                      eeprom
     0000D0E3  A$eeprom$1463                      eeprom
     0000D0E4  A$eeprom$1464                      eeprom
     0000D0E6  A$eeprom$1465                      eeprom
     0000D0E7  A$eeprom$1466                      eeprom
     0000D0EB  A$eeprom$1467                      eeprom
     0000D0ED  A$eeprom$1468                      eeprom
     0000D0EF  A$eeprom$1469                      eeprom
     0000D0F1  A$eeprom$1470                      eeprom
     0000D0F3  A$eeprom$1471                      eeprom
     0000D0F5  A$eeprom$1473                      eeprom
     0000D0F6  A$eeprom$1474                      eeprom
     0000D0F7  A$eeprom$1475                      eeprom
     0000D0F9  A$eeprom$1476                      eeprom
     0000D0FA  A$eeprom$1477                      eeprom
     0000D0FC  A$eeprom$1478                      eeprom
     0000D0FD  A$eeprom$1479                      eeprom
     0000D0FF  A$eeprom$1480                      eeprom
     0000D102  A$eeprom$1481                      eeprom
     0000D104  A$eeprom$1482                      eeprom
     0000D105  A$eeprom$1485                      eeprom
     0000D105  C$eeprom.c$307$2_0$368             eeprom
     0000D107  A$eeprom$1486                      eeprom
     0000D109  A$eeprom$1487                      eeprom
     0000D10B  A$eeprom$1488                      eeprom
     0000D10D  A$eeprom$1491                      eeprom
     0000D10D  C$eeprom.c$312$1_0$366             eeprom
     0000D10F  A$eeprom$1492                      eeprom
     0000D112  A$eeprom$1493                      eeprom
     0000D113  A$eeprom$1496                      eeprom
     0000D115  A$eeprom$1499                      eeprom
     0000D115  C$eeprom.c$313$1_0$366             eeprom
     0000D115  XFeeprom$eeprom_write_array$0$0    eeprom
     0000D116  A$lights$62                        lights
     0000D116  C$lights.c$17$0_0$346              lights
     0000D116  C$lights.c$19$1_0$346              lights
     0000D116  G$lights_init$0$0                  lights
ASxxxx Linker V03.00 + NoICE + sdld,  page 283.
Hexadecimal  [32-Bits]

Area                                    Addr        Size        Decimal Bytes (Attributes)
--------------------------------        ----        ----        ------- ----- ------------
CODE                                000082B4    0000592D =       22829. bytes (REL,CON)

      Value  Global                              Global Defined In Module
      -----  --------------------------------   ------------------------
     0000D116  _lights_init                       lights
     0000D118  A$lights$63                        lights
     0000D11A  A$lights$64                        lights
     0000D11C  A$lights$65                        lights
     0000D11E  A$lights$66                        lights
     0000D121  A$lights$67                        lights
     0000D123  A$lights$72                        lights
     0000D123  C$lights.c$22$1_0$346              lights
     0000D123  XG$lights_init$0$0                 lights
     0000D124  A$lights$82                        lights
     0000D124  C$lights.c$27$1_0$348              lights
     0000D124  C$lights.c$29$1_0$348              lights
     0000D124  G$lights_set_state$0$0             lights
     0000D124  _lights_set_state                  lights
     0000D126  A$lights$83                        lights
     0000D128  A$lights$86                        lights
     0000D128  C$lights.c$31$2_0$349              lights
     0000D12A  A$lights$87                        lights
     0000D12C  A$lights$88                        lights
     0000D12E  A$lights$89                        lights
     0000D131  A$lights$90                        lights
     0000D133  A$lights$91                        lights
     0000D135  A$lights$95                        lights
     0000D135  C$lights.c$35$2_0$350              lights
     0000D137  A$lights$96                        lights
     0000D139  A$lights$97                        lights
     0000D13B  A$lights$98                        lights
     0000D13E  A$lights$99                        lights
     0000D140  A$lights$105                       lights
     0000D140  C$lights.c$37$1_0$348              lights
     0000D140  XG$lights_set_state$0$0            lights
     0000D141  ___muluint2ulong                   
     0000D146  ___mulsint2slong                   
     0000D199  ___fsmul                           _fsmul
     0000D39F  ___fs2ulong                        _fs2ulong
     0000D3FE  ___fslt                            _fslt
     0000D4A9  __mulint                           
     0000D4C2  ___fsadd                           _fsadd
     0000D73E  __divslong                         
     0000D765  ___sint2fs                         _sint2fs
     0000D776  __divulong                         
     0000D7D0  ___uint2fs                         _uint2fs
     0000D7DC  ___fs2uint                         _fs2uint
     0000D9E0  ___fsdiv                           _fsdiv
     0000DA71  ___uchar2fs                        _uchar2fs
     0000DA80  ___fs2uchar                        _fs2uchar
     0000DA9D  __mullong                          
     0000DB19  __divsint                          
     0000DB2D  ___slong2fs                        _slong2fs
     0000DB55  ___ulong2fs                        _ulong2fs
     0000DBD6  __fast_long_neg                    

ASxxxx Linker V03.00 + NoICE + sdld,  page 284.

Files Linked                              [ module(s) ]

main.rel                                  [ main ]
../common/STM8S_StdPeriph_Lib/src/stm8s_iwdg.rel
                                          [ stm8s_iwdg ]
../common/STM8S_StdPeriph_Lib/src/stm8s_itc.rel
                                          [ stm8s_itc ]
../common/STM8S_StdPeriph_Lib/src/stm8s_clk.rel
                                          [ stm8s_clk ]
../common/STM8S_StdPeriph_Lib/src/stm8s_gpio.rel
                                          [ stm8s_gpio ]
../common/STM8S_StdPeriph_Lib/src/stm8s_uart2.rel
                                          [ stm8s_uart2 ]
../common/STM8S_StdPeriph_Lib/src/stm8s_tim1.rel
                                          [ stm8s_tim1 ]
../common/STM8S_StdPeriph_Lib/src/stm8s_tim2.rel
                                          [ stm8s_tim2 ]
../common/STM8S_StdPeriph_Lib/src/stm8s_tim3.rel
                                          [ stm8s_tim3 ]
../common/STM8S_StdPeriph_Lib/src/stm8s_exti.rel
                                          [ stm8s_exti ]
../common/STM8S_StdPeriph_Lib/src/stm8s_adc1.rel
                                          [ stm8s_adc1 ]
../common/STM8S_StdPeriph_Lib/src/stm8s_flash.rel
                                          [ stm8s_flash ]
watchdog.rel                              [ watchdog ]
torque_sensor.rel                         [ torque_sensor ]
uart.rel                                  [ uart ]
pwm.rel                                   [ pwm ]
motor.rel                                 [ motor ]
wheel_speed_sensor.rel                    [ wheel_speed_sensor ]
brake.rel                                 [ brake ]
pas.rel                                   [ pas ]
adc.rel                                   [ adc ]
timers.rel                                [ timers ]
ebike_app.rel                             [ ebike_app ]
utils.rel                                 [ utils ]
eeprom.rel                                [ eeprom ]
lights.rel                                [ lights ]


Libraries Linked                          [ object file ]

C:\Program Files\SDCC\bin\..\lib\stm8/stm8.lib
                                          [ __mulsint2slong.rel ]
C:\Program Files\SDCC\bin\..\lib\stm8/stm8.lib
                                          [ _fsmul.rel ]
C:\Program Files\SDCC\bin\..\lib\stm8/stm8.lib
                                          [ _fs2ulong.rel ]
C:\Program Files\SDCC\bin\..\lib\stm8/stm8.lib
                                          [ _fslt.rel ]
C:\Program Files\SDCC\bin\..\lib\stm8/stm8.lib
                                          [ _mulint.rel ]
C:\Program Files\SDCC\bin\..\lib\stm8/stm8.lib
                                          [ _fsadd.rel ]
C:\Program Files\SDCC\bin\..\lib\stm8/stm8.lib
                                          [ _divslong.rel ]
C:\Program Files\SDCC\bin\..\lib\stm8/stm8.lib
                                          [ _sint2fs.rel ]
C:\Program Files\SDCC\bin\..\lib\stm8/stm8.lib
                                          [ _divulong.rel ]
C:\Program Files\SDCC\bin\..\lib\stm8/stm8.lib
                                          [ _uint2fs.rel ]
C:\Program Files\SDCC\bin\..\lib\stm8/stm8.lib
                                          [ _fs2uint.rel ]
C:\Program Files\SDCC\bin\..\lib\stm8/stm8.lib
                                          [ _fsdiv.rel ]
C:\Program Files\SDCC\bin\..\lib\stm8/stm8.lib
                                          [ _uchar2fs.rel ]
C:\Program Files\SDCC\bin\..\lib\stm8/stm8.lib
                                          [ _fs2uchar.rel ]
C:\Program Files\SDCC\bin\..\lib\stm8/stm8.lib
                                          [ _mullong.rel ]
C:\Program Files\SDCC\bin\..\lib\stm8/stm8.lib
                                          [ _divsint.rel ]
C:\Program Files\SDCC\bin\..\lib\stm8/stm8.lib
                                          [ _slong2fs.rel ]
C:\Program Files\SDCC\bin\..\lib\stm8/stm8.lib
                                          [ _ulong2fs.rel ]
C:\Program Files\SDCC\bin\..\lib\stm8/stm8.lib
                                          [ _fast_long_neg.rel ]

ASxxxx Linker V03.00 + NoICE + sdld,  page 285.

User Base Address Definitions

HOME = 0x8000
DATA = 0x0001
SSEG = 0xffffffff

