                                      1 ;--------------------------------------------------------
                                      2 ; File Created by SDCC : free open source ANSI-C Compiler
                                      3 ; Version 3.8.0 #10562 (MINGW64)
                                      4 ;--------------------------------------------------------
                                      5 	.module stm8s_uart2
                                      6 	.optsdcc -mstm8
                                      7 	
                                      8 ;--------------------------------------------------------
                                      9 ; Public variables in this module
                                     10 ;--------------------------------------------------------
                                     11 	.globl _CLK_GetClockFreq
                                     12 	.globl _UART2_DeInit
                                     13 	.globl _UART2_Init
                                     14 	.globl _UART2_Cmd
                                     15 	.globl _UART2_ITConfig
                                     16 	.globl _UART2_IrDAConfig
                                     17 	.globl _UART2_IrDACmd
                                     18 	.globl _UART2_LINBreakDetectionConfig
                                     19 	.globl _UART2_LINConfig
                                     20 	.globl _UART2_LINCmd
                                     21 	.globl _UART2_SmartCardCmd
                                     22 	.globl _UART2_SmartCardNACKCmd
                                     23 	.globl _UART2_WakeUpConfig
                                     24 	.globl _UART2_ReceiverWakeUpCmd
                                     25 	.globl _UART2_ReceiveData8
                                     26 	.globl _UART2_ReceiveData9
                                     27 	.globl _UART2_SendData8
                                     28 	.globl _UART2_SendData9
                                     29 	.globl _UART2_SendBreak
                                     30 	.globl _UART2_SetAddress
                                     31 	.globl _UART2_SetGuardTime
                                     32 	.globl _UART2_SetPrescaler
                                     33 	.globl _UART2_GetFlagStatus
                                     34 	.globl _UART2_ClearFlag
                                     35 	.globl _UART2_GetITStatus
                                     36 	.globl _UART2_ClearITPendingBit
                                     37 ;--------------------------------------------------------
                                     38 ; ram data
                                     39 ;--------------------------------------------------------
                                     40 	.area DATA
                                     41 ;--------------------------------------------------------
                                     42 ; ram data
                                     43 ;--------------------------------------------------------
                                     44 	.area INITIALIZED
                                     45 ;--------------------------------------------------------
                                     46 ; absolute external ram data
                                     47 ;--------------------------------------------------------
                                     48 	.area DABS (ABS)
                                     49 
                                     50 ; default segment ordering for linker
                                     51 	.area HOME
                                     52 	.area GSINIT
                                     53 	.area GSFINAL
                                     54 	.area CONST
                                     55 	.area INITIALIZER
                                     56 	.area CODE
                                     57 
                                     58 ;--------------------------------------------------------
                                     59 ; global & static initialisations
                                     60 ;--------------------------------------------------------
                                     61 	.area HOME
                                     62 	.area GSINIT
                                     63 	.area GSFINAL
                                     64 	.area GSINIT
                                     65 ;--------------------------------------------------------
                                     66 ; Home
                                     67 ;--------------------------------------------------------
                                     68 	.area HOME
                                     69 	.area HOME
                                     70 ;--------------------------------------------------------
                                     71 ; code
                                     72 ;--------------------------------------------------------
                                     73 	.area CODE
                           000000    74 	G$UART2_DeInit$0$0 ==.
                           000000    75 	C$stm8s_uart2.c$53$0_0$346 ==.
                                     76 ;	../common/STM8S_StdPeriph_Lib/src/stm8s_uart2.c: 53: void UART2_DeInit(void)
                                     77 ;	-----------------------------------------
                                     78 ;	 function UART2_DeInit
                                     79 ;	-----------------------------------------
      000000                         80 _UART2_DeInit:
                           000000    81 	C$stm8s_uart2.c$57$1_0$346 ==.
                                     82 ;	../common/STM8S_StdPeriph_Lib/src/stm8s_uart2.c: 57: (void) UART2->SR;
      000000 C6 52 40         [ 1]   83 	ld	a, 0x5240
                           000003    84 	C$stm8s_uart2.c$58$1_0$346 ==.
                                     85 ;	../common/STM8S_StdPeriph_Lib/src/stm8s_uart2.c: 58: (void)UART2->DR;
      000003 C6 52 41         [ 1]   86 	ld	a, 0x5241
                           000006    87 	C$stm8s_uart2.c$60$1_0$346 ==.
                                     88 ;	../common/STM8S_StdPeriph_Lib/src/stm8s_uart2.c: 60: UART2->BRR2 = UART2_BRR2_RESET_VALUE;  /*  Set UART2_BRR2 to reset value 0x00 */
      000006 35 00 52 43      [ 1]   89 	mov	0x5243+0, #0x00
                           00000A    90 	C$stm8s_uart2.c$61$1_0$346 ==.
                                     91 ;	../common/STM8S_StdPeriph_Lib/src/stm8s_uart2.c: 61: UART2->BRR1 = UART2_BRR1_RESET_VALUE;  /*  Set UART2_BRR1 to reset value 0x00 */
      00000A 35 00 52 42      [ 1]   92 	mov	0x5242+0, #0x00
                           00000E    93 	C$stm8s_uart2.c$63$1_0$346 ==.
                                     94 ;	../common/STM8S_StdPeriph_Lib/src/stm8s_uart2.c: 63: UART2->CR1 = UART2_CR1_RESET_VALUE; /*  Set UART2_CR1 to reset value 0x00  */
      00000E 35 00 52 44      [ 1]   95 	mov	0x5244+0, #0x00
                           000012    96 	C$stm8s_uart2.c$64$1_0$346 ==.
                                     97 ;	../common/STM8S_StdPeriph_Lib/src/stm8s_uart2.c: 64: UART2->CR2 = UART2_CR2_RESET_VALUE; /*  Set UART2_CR2 to reset value 0x00  */
      000012 35 00 52 45      [ 1]   98 	mov	0x5245+0, #0x00
                           000016    99 	C$stm8s_uart2.c$65$1_0$346 ==.
                                    100 ;	../common/STM8S_StdPeriph_Lib/src/stm8s_uart2.c: 65: UART2->CR3 = UART2_CR3_RESET_VALUE; /*  Set UART2_CR3 to reset value 0x00  */
      000016 35 00 52 46      [ 1]  101 	mov	0x5246+0, #0x00
                           00001A   102 	C$stm8s_uart2.c$66$1_0$346 ==.
                                    103 ;	../common/STM8S_StdPeriph_Lib/src/stm8s_uart2.c: 66: UART2->CR4 = UART2_CR4_RESET_VALUE; /*  Set UART2_CR4 to reset value 0x00  */
      00001A 35 00 52 47      [ 1]  104 	mov	0x5247+0, #0x00
                           00001E   105 	C$stm8s_uart2.c$67$1_0$346 ==.
                                    106 ;	../common/STM8S_StdPeriph_Lib/src/stm8s_uart2.c: 67: UART2->CR5 = UART2_CR5_RESET_VALUE; /*  Set UART2_CR5 to reset value 0x00  */
      00001E 35 00 52 48      [ 1]  107 	mov	0x5248+0, #0x00
                           000022   108 	C$stm8s_uart2.c$68$1_0$346 ==.
                                    109 ;	../common/STM8S_StdPeriph_Lib/src/stm8s_uart2.c: 68: UART2->CR6 = UART2_CR6_RESET_VALUE; /*  Set UART2_CR6 to reset value 0x00  */
      000022 35 00 52 49      [ 1]  110 	mov	0x5249+0, #0x00
                           000026   111 	C$stm8s_uart2.c$69$1_0$346 ==.
                                    112 ;	../common/STM8S_StdPeriph_Lib/src/stm8s_uart2.c: 69: }
                           000026   113 	C$stm8s_uart2.c$69$1_0$346 ==.
                           000026   114 	XG$UART2_DeInit$0$0 ==.
      000026 81               [ 4]  115 	ret
                           000027   116 	G$UART2_Init$0$0 ==.
                           000027   117 	C$stm8s_uart2.c$85$1_0$348 ==.
                                    118 ;	../common/STM8S_StdPeriph_Lib/src/stm8s_uart2.c: 85: void UART2_Init(uint32_t BaudRate, UART2_WordLength_TypeDef WordLength, UART2_StopBits_TypeDef StopBits, UART2_Parity_TypeDef Parity, UART2_SyncMode_TypeDef SyncMode, UART2_Mode_TypeDef Mode)
                                    119 ;	-----------------------------------------
                                    120 ;	 function UART2_Init
                                    121 ;	-----------------------------------------
      000027                        122 _UART2_Init:
      000027 52 23            [ 2]  123 	sub	sp, #35
                           000029   124 	C$stm8s_uart2.c$99$1_0$348 ==.
                                    125 ;	../common/STM8S_StdPeriph_Lib/src/stm8s_uart2.c: 99: UART2->CR1 &= (uint8_t)(~UART2_CR1_M);
      000029 72 19 52 44      [ 1]  126 	bres	21060, #4
                           00002D   127 	C$stm8s_uart2.c$101$1_0$348 ==.
                                    128 ;	../common/STM8S_StdPeriph_Lib/src/stm8s_uart2.c: 101: UART2->CR1 |= (uint8_t)WordLength; 
      00002D C6 52 44         [ 1]  129 	ld	a, 0x5244
      000030 1A 2A            [ 1]  130 	or	a, (0x2a, sp)
      000032 C7 52 44         [ 1]  131 	ld	0x5244, a
                           000035   132 	C$stm8s_uart2.c$104$1_0$348 ==.
                                    133 ;	../common/STM8S_StdPeriph_Lib/src/stm8s_uart2.c: 104: UART2->CR3 &= (uint8_t)(~UART2_CR3_STOP);
      000035 C6 52 46         [ 1]  134 	ld	a, 0x5246
      000038 A4 CF            [ 1]  135 	and	a, #0xcf
      00003A C7 52 46         [ 1]  136 	ld	0x5246, a
                           00003D   137 	C$stm8s_uart2.c$106$1_0$348 ==.
                                    138 ;	../common/STM8S_StdPeriph_Lib/src/stm8s_uart2.c: 106: UART2->CR3 |= (uint8_t)StopBits; 
      00003D C6 52 46         [ 1]  139 	ld	a, 0x5246
      000040 1A 2B            [ 1]  140 	or	a, (0x2b, sp)
      000042 C7 52 46         [ 1]  141 	ld	0x5246, a
                           000045   142 	C$stm8s_uart2.c$109$1_0$348 ==.
                                    143 ;	../common/STM8S_StdPeriph_Lib/src/stm8s_uart2.c: 109: UART2->CR1 &= (uint8_t)(~(UART2_CR1_PCEN | UART2_CR1_PS  ));
      000045 C6 52 44         [ 1]  144 	ld	a, 0x5244
      000048 A4 F9            [ 1]  145 	and	a, #0xf9
      00004A C7 52 44         [ 1]  146 	ld	0x5244, a
                           00004D   147 	C$stm8s_uart2.c$111$1_0$348 ==.
                                    148 ;	../common/STM8S_StdPeriph_Lib/src/stm8s_uart2.c: 111: UART2->CR1 |= (uint8_t)Parity;
      00004D C6 52 44         [ 1]  149 	ld	a, 0x5244
      000050 1A 2C            [ 1]  150 	or	a, (0x2c, sp)
      000052 C7 52 44         [ 1]  151 	ld	0x5244, a
                           000055   152 	C$stm8s_uart2.c$114$1_0$348 ==.
                                    153 ;	../common/STM8S_StdPeriph_Lib/src/stm8s_uart2.c: 114: UART2->BRR1 &= (uint8_t)(~UART2_BRR1_DIVM);
      000055 C6 52 42         [ 1]  154 	ld	a, 0x5242
      000058 35 00 52 42      [ 1]  155 	mov	0x5242+0, #0x00
                           00005C   156 	C$stm8s_uart2.c$116$1_0$348 ==.
                                    157 ;	../common/STM8S_StdPeriph_Lib/src/stm8s_uart2.c: 116: UART2->BRR2 &= (uint8_t)(~UART2_BRR2_DIVM);
      00005C C6 52 43         [ 1]  158 	ld	a, 0x5243
      00005F A4 0F            [ 1]  159 	and	a, #0x0f
      000061 C7 52 43         [ 1]  160 	ld	0x5243, a
                           000064   161 	C$stm8s_uart2.c$118$1_0$348 ==.
                                    162 ;	../common/STM8S_StdPeriph_Lib/src/stm8s_uart2.c: 118: UART2->BRR2 &= (uint8_t)(~UART2_BRR2_DIVF);
      000064 C6 52 43         [ 1]  163 	ld	a, 0x5243
      000067 A4 F0            [ 1]  164 	and	a, #0xf0
      000069 C7 52 43         [ 1]  165 	ld	0x5243, a
                           00006C   166 	C$stm8s_uart2.c$121$1_0$348 ==.
                                    167 ;	../common/STM8S_StdPeriph_Lib/src/stm8s_uart2.c: 121: BaudRate_Mantissa    = ((uint32_t)CLK_GetClockFreq() / (BaudRate << 4));
      00006C CDr00r00         [ 4]  168 	call	_CLK_GetClockFreq
      00006F 1F 07            [ 2]  169 	ldw	(0x07, sp), x
      000071 1E 26            [ 2]  170 	ldw	x, (0x26, sp)
      000073 1F 01            [ 2]  171 	ldw	(0x01, sp), x
      000075 1E 28            [ 2]  172 	ldw	x, (0x28, sp)
      000077 A6 04            [ 1]  173 	ld	a, #0x04
      000079                        174 00124$:
      000079 58               [ 2]  175 	sllw	x
      00007A 09 02            [ 1]  176 	rlc	(0x02, sp)
      00007C 09 01            [ 1]  177 	rlc	(0x01, sp)
      00007E 4A               [ 1]  178 	dec	a
      00007F 26 F8            [ 1]  179 	jrne	00124$
      000081 1F 03            [ 2]  180 	ldw	(0x03, sp), x
      000083 89               [ 2]  181 	pushw	x
      000084 1E 03            [ 2]  182 	ldw	x, (0x03, sp)
      000086 89               [ 2]  183 	pushw	x
      000087 1E 0B            [ 2]  184 	ldw	x, (0x0b, sp)
      000089 89               [ 2]  185 	pushw	x
      00008A 90 89            [ 2]  186 	pushw	y
      00008C CDr00r00         [ 4]  187 	call	__divulong
      00008F 5B 08            [ 2]  188 	addw	sp, #8
      000091 1F 1E            [ 2]  189 	ldw	(0x1e, sp), x
      000093 17 1C            [ 2]  190 	ldw	(0x1c, sp), y
      000095 16 1D            [ 2]  191 	ldw	y, (0x1d, sp)
      000097 17 1D            [ 2]  192 	ldw	(0x1d, sp), y
                           000099   193 	C$stm8s_uart2.c$122$1_0$348 ==.
                                    194 ;	../common/STM8S_StdPeriph_Lib/src/stm8s_uart2.c: 122: BaudRate_Mantissa100 = (((uint32_t)CLK_GetClockFreq() * 100) / (BaudRate << 4));
      000099 CDr00r00         [ 4]  195 	call	_CLK_GetClockFreq
      00009C 1F 14            [ 2]  196 	ldw	(0x14, sp), x
      00009E 17 12            [ 2]  197 	ldw	(0x12, sp), y
      0000A0 1E 14            [ 2]  198 	ldw	x, (0x14, sp)
      0000A2 89               [ 2]  199 	pushw	x
      0000A3 1E 14            [ 2]  200 	ldw	x, (0x14, sp)
      0000A5 89               [ 2]  201 	pushw	x
      0000A6 4B 64            [ 1]  202 	push	#0x64
      0000A8 5F               [ 1]  203 	clrw	x
      0000A9 89               [ 2]  204 	pushw	x
      0000AA 4B 00            [ 1]  205 	push	#0x00
      0000AC CDr00r00         [ 4]  206 	call	__mullong
      0000AF 5B 08            [ 2]  207 	addw	sp, #8
      0000B1 1F 0C            [ 2]  208 	ldw	(0x0c, sp), x
      0000B3 1E 03            [ 2]  209 	ldw	x, (0x03, sp)
      0000B5 89               [ 2]  210 	pushw	x
      0000B6 1E 03            [ 2]  211 	ldw	x, (0x03, sp)
      0000B8 89               [ 2]  212 	pushw	x
      0000B9 1E 10            [ 2]  213 	ldw	x, (0x10, sp)
      0000BB 89               [ 2]  214 	pushw	x
      0000BC 90 89            [ 2]  215 	pushw	y
      0000BE CDr00r00         [ 4]  216 	call	__divulong
      0000C1 5B 08            [ 2]  217 	addw	sp, #8
      0000C3 1F 22            [ 2]  218 	ldw	(0x22, sp), x
      0000C5 17 20            [ 2]  219 	ldw	(0x20, sp), y
                           0000C7   220 	C$stm8s_uart2.c$126$1_0$348 ==.
                                    221 ;	../common/STM8S_StdPeriph_Lib/src/stm8s_uart2.c: 126: BRR2_1 = (uint8_t)((uint8_t)(((BaudRate_Mantissa100 - (BaudRate_Mantissa * 100))
      0000C7 1E 1E            [ 2]  222 	ldw	x, (0x1e, sp)
      0000C9 89               [ 2]  223 	pushw	x
      0000CA 1E 1E            [ 2]  224 	ldw	x, (0x1e, sp)
      0000CC 89               [ 2]  225 	pushw	x
      0000CD 4B 64            [ 1]  226 	push	#0x64
      0000CF 5F               [ 1]  227 	clrw	x
      0000D0 89               [ 2]  228 	pushw	x
      0000D1 4B 00            [ 1]  229 	push	#0x00
      0000D3 CDr00r00         [ 4]  230 	call	__mullong
      0000D6 5B 08            [ 2]  231 	addw	sp, #8
      0000D8 1F 18            [ 2]  232 	ldw	(0x18, sp), x
      0000DA 17 16            [ 2]  233 	ldw	(0x16, sp), y
      0000DC 1E 22            [ 2]  234 	ldw	x, (0x22, sp)
      0000DE 72 F0 18         [ 2]  235 	subw	x, (0x18, sp)
      0000E1 1F 10            [ 2]  236 	ldw	(0x10, sp), x
      0000E3 7B 21            [ 1]  237 	ld	a, (0x21, sp)
      0000E5 12 17            [ 1]  238 	sbc	a, (0x17, sp)
      0000E7 6B 0F            [ 1]  239 	ld	(0x0f, sp), a
      0000E9 7B 20            [ 1]  240 	ld	a, (0x20, sp)
      0000EB 12 16            [ 1]  241 	sbc	a, (0x16, sp)
      0000ED 6B 0E            [ 1]  242 	ld	(0x0e, sp), a
      0000EF 1E 10            [ 2]  243 	ldw	x, (0x10, sp)
      0000F1 16 0E            [ 2]  244 	ldw	y, (0x0e, sp)
      0000F3 A6 04            [ 1]  245 	ld	a, #0x04
      0000F5                        246 00126$:
      0000F5 58               [ 2]  247 	sllw	x
      0000F6 90 59            [ 2]  248 	rlcw	y
      0000F8 4A               [ 1]  249 	dec	a
      0000F9 26 FA            [ 1]  250 	jrne	00126$
      0000FB 4B 64            [ 1]  251 	push	#0x64
      0000FD 4B 00            [ 1]  252 	push	#0x00
      0000FF 4B 00            [ 1]  253 	push	#0x00
      000101 4B 00            [ 1]  254 	push	#0x00
      000103 89               [ 2]  255 	pushw	x
      000104 90 89            [ 2]  256 	pushw	y
      000106 CDr00r00         [ 4]  257 	call	__divulong
      000109 5B 08            [ 2]  258 	addw	sp, #8
      00010B 9F               [ 1]  259 	ld	a, xl
      00010C A4 0F            [ 1]  260 	and	a, #0x0f
      00010E 6B 1B            [ 1]  261 	ld	(0x1b, sp), a
                           000110   262 	C$stm8s_uart2.c$128$1_0$348 ==.
                                    263 ;	../common/STM8S_StdPeriph_Lib/src/stm8s_uart2.c: 128: BRR2_2 = (uint8_t)((BaudRate_Mantissa >> 4) & (uint8_t)0xF0);
      000110 1E 1E            [ 2]  264 	ldw	x, (0x1e, sp)
      000112 A6 10            [ 1]  265 	ld	a, #0x10
      000114 62               [ 2]  266 	div	x, a
      000115 9F               [ 1]  267 	ld	a, xl
      000116 A4 F0            [ 1]  268 	and	a, #0xf0
                           000118   269 	C$stm8s_uart2.c$130$1_0$348 ==.
                                    270 ;	../common/STM8S_StdPeriph_Lib/src/stm8s_uart2.c: 130: UART2->BRR2 = (uint8_t)(BRR2_1 | BRR2_2);
      000118 1A 1B            [ 1]  271 	or	a, (0x1b, sp)
      00011A C7 52 43         [ 1]  272 	ld	0x5243, a
                           00011D   273 	C$stm8s_uart2.c$132$1_0$348 ==.
                                    274 ;	../common/STM8S_StdPeriph_Lib/src/stm8s_uart2.c: 132: UART2->BRR1 = (uint8_t)BaudRate_Mantissa;           
      00011D 7B 1F            [ 1]  275 	ld	a, (0x1f, sp)
      00011F C7 52 42         [ 1]  276 	ld	0x5242, a
                           000122   277 	C$stm8s_uart2.c$135$1_0$348 ==.
                                    278 ;	../common/STM8S_StdPeriph_Lib/src/stm8s_uart2.c: 135: UART2->CR2 &= (uint8_t)~(UART2_CR2_TEN | UART2_CR2_REN);
      000122 C6 52 45         [ 1]  279 	ld	a, 0x5245
      000125 A4 F3            [ 1]  280 	and	a, #0xf3
      000127 C7 52 45         [ 1]  281 	ld	0x5245, a
                           00012A   282 	C$stm8s_uart2.c$137$1_0$348 ==.
                                    283 ;	../common/STM8S_StdPeriph_Lib/src/stm8s_uart2.c: 137: UART2->CR3 &= (uint8_t)~(UART2_CR3_CPOL | UART2_CR3_CPHA | UART2_CR3_LBCL);
      00012A C6 52 46         [ 1]  284 	ld	a, 0x5246
      00012D A4 F8            [ 1]  285 	and	a, #0xf8
      00012F C7 52 46         [ 1]  286 	ld	0x5246, a
                           000132   287 	C$stm8s_uart2.c$139$1_0$348 ==.
                                    288 ;	../common/STM8S_StdPeriph_Lib/src/stm8s_uart2.c: 139: UART2->CR3 |= (uint8_t)((uint8_t)SyncMode & (uint8_t)(UART2_CR3_CPOL | \
      000132 C6 52 46         [ 1]  289 	ld	a, 0x5246
      000135 6B 1A            [ 1]  290 	ld	(0x1a, sp), a
      000137 7B 2D            [ 1]  291 	ld	a, (0x2d, sp)
      000139 A4 07            [ 1]  292 	and	a, #0x07
      00013B 1A 1A            [ 1]  293 	or	a, (0x1a, sp)
      00013D C7 52 46         [ 1]  294 	ld	0x5246, a
                           000140   295 	C$stm8s_uart2.c$142$1_0$348 ==.
                                    296 ;	../common/STM8S_StdPeriph_Lib/src/stm8s_uart2.c: 142: if ((uint8_t)(Mode & UART2_MODE_TX_ENABLE))
      000140 7B 2E            [ 1]  297 	ld	a, (0x2e, sp)
      000142 A5 04            [ 1]  298 	bcp	a, #0x04
      000144 27 06            [ 1]  299 	jreq	00102$
                           000146   300 	C$stm8s_uart2.c$145$2_0$349 ==.
                                    301 ;	../common/STM8S_StdPeriph_Lib/src/stm8s_uart2.c: 145: UART2->CR2 |= (uint8_t)UART2_CR2_TEN;
      000146 72 16 52 45      [ 1]  302 	bset	21061, #3
      00014A 20 04            [ 2]  303 	jra	00103$
      00014C                        304 00102$:
                           00014C   305 	C$stm8s_uart2.c$150$2_0$350 ==.
                                    306 ;	../common/STM8S_StdPeriph_Lib/src/stm8s_uart2.c: 150: UART2->CR2 &= (uint8_t)(~UART2_CR2_TEN);
      00014C 72 17 52 45      [ 1]  307 	bres	21061, #3
      000150                        308 00103$:
                           000150   309 	C$stm8s_uart2.c$152$1_0$348 ==.
                                    310 ;	../common/STM8S_StdPeriph_Lib/src/stm8s_uart2.c: 152: if ((uint8_t)(Mode & UART2_MODE_RX_ENABLE))
      000150 7B 2E            [ 1]  311 	ld	a, (0x2e, sp)
      000152 A5 08            [ 1]  312 	bcp	a, #0x08
      000154 27 06            [ 1]  313 	jreq	00105$
                           000156   314 	C$stm8s_uart2.c$155$2_0$351 ==.
                                    315 ;	../common/STM8S_StdPeriph_Lib/src/stm8s_uart2.c: 155: UART2->CR2 |= (uint8_t)UART2_CR2_REN;
      000156 72 14 52 45      [ 1]  316 	bset	21061, #2
      00015A 20 04            [ 2]  317 	jra	00106$
      00015C                        318 00105$:
                           00015C   319 	C$stm8s_uart2.c$160$2_0$352 ==.
                                    320 ;	../common/STM8S_StdPeriph_Lib/src/stm8s_uart2.c: 160: UART2->CR2 &= (uint8_t)(~UART2_CR2_REN);
      00015C 72 15 52 45      [ 1]  321 	bres	21061, #2
      000160                        322 00106$:
                           000160   323 	C$stm8s_uart2.c$164$1_0$348 ==.
                                    324 ;	../common/STM8S_StdPeriph_Lib/src/stm8s_uart2.c: 164: if ((uint8_t)(SyncMode & UART2_SYNCMODE_CLOCK_DISABLE))
      000160 0D 2D            [ 1]  325 	tnz	(0x2d, sp)
      000162 2A 06            [ 1]  326 	jrpl	00108$
                           000164   327 	C$stm8s_uart2.c$167$2_0$353 ==.
                                    328 ;	../common/STM8S_StdPeriph_Lib/src/stm8s_uart2.c: 167: UART2->CR3 &= (uint8_t)(~UART2_CR3_CKEN); 
      000164 72 17 52 46      [ 1]  329 	bres	21062, #3
      000168 20 0E            [ 2]  330 	jra	00110$
      00016A                        331 00108$:
                           00016A   332 	C$stm8s_uart2.c$171$2_0$354 ==.
                                    333 ;	../common/STM8S_StdPeriph_Lib/src/stm8s_uart2.c: 171: UART2->CR3 |= (uint8_t)((uint8_t)SyncMode & UART2_CR3_CKEN);
      00016A C6 52 46         [ 1]  334 	ld	a, 0x5246
      00016D 6B 09            [ 1]  335 	ld	(0x09, sp), a
      00016F 7B 2D            [ 1]  336 	ld	a, (0x2d, sp)
      000171 A4 08            [ 1]  337 	and	a, #0x08
      000173 1A 09            [ 1]  338 	or	a, (0x09, sp)
      000175 C7 52 46         [ 1]  339 	ld	0x5246, a
      000178                        340 00110$:
                           000178   341 	C$stm8s_uart2.c$173$1_0$348 ==.
                                    342 ;	../common/STM8S_StdPeriph_Lib/src/stm8s_uart2.c: 173: }
      000178 5B 23            [ 2]  343 	addw	sp, #35
                           00017A   344 	C$stm8s_uart2.c$173$1_0$348 ==.
                           00017A   345 	XG$UART2_Init$0$0 ==.
      00017A 81               [ 4]  346 	ret
                           00017B   347 	G$UART2_Cmd$0$0 ==.
                           00017B   348 	C$stm8s_uart2.c$181$1_0$356 ==.
                                    349 ;	../common/STM8S_StdPeriph_Lib/src/stm8s_uart2.c: 181: void UART2_Cmd(FunctionalState NewState)
                                    350 ;	-----------------------------------------
                                    351 ;	 function UART2_Cmd
                                    352 ;	-----------------------------------------
      00017B                        353 _UART2_Cmd:
                           00017B   354 	C$stm8s_uart2.c$183$1_0$356 ==.
                                    355 ;	../common/STM8S_StdPeriph_Lib/src/stm8s_uart2.c: 183: if (NewState != DISABLE)
      00017B 0D 03            [ 1]  356 	tnz	(0x03, sp)
      00017D 27 06            [ 1]  357 	jreq	00102$
                           00017F   358 	C$stm8s_uart2.c$186$2_0$357 ==.
                                    359 ;	../common/STM8S_StdPeriph_Lib/src/stm8s_uart2.c: 186: UART2->CR1 &= (uint8_t)(~UART2_CR1_UARTD);
      00017F 72 1B 52 44      [ 1]  360 	bres	21060, #5
      000183 20 04            [ 2]  361 	jra	00104$
      000185                        362 00102$:
                           000185   363 	C$stm8s_uart2.c$191$2_0$358 ==.
                                    364 ;	../common/STM8S_StdPeriph_Lib/src/stm8s_uart2.c: 191: UART2->CR1 |= UART2_CR1_UARTD; 
      000185 72 1A 52 44      [ 1]  365 	bset	21060, #5
      000189                        366 00104$:
                           000189   367 	C$stm8s_uart2.c$193$1_0$356 ==.
                                    368 ;	../common/STM8S_StdPeriph_Lib/src/stm8s_uart2.c: 193: }
                           000189   369 	C$stm8s_uart2.c$193$1_0$356 ==.
                           000189   370 	XG$UART2_Cmd$0$0 ==.
      000189 81               [ 4]  371 	ret
                           00018A   372 	G$UART2_ITConfig$0$0 ==.
                           00018A   373 	C$stm8s_uart2.c$210$1_0$360 ==.
                                    374 ;	../common/STM8S_StdPeriph_Lib/src/stm8s_uart2.c: 210: void UART2_ITConfig(UART2_IT_TypeDef UART2_IT, FunctionalState NewState)
                                    375 ;	-----------------------------------------
                                    376 ;	 function UART2_ITConfig
                                    377 ;	-----------------------------------------
      00018A                        378 _UART2_ITConfig:
      00018A 52 05            [ 2]  379 	sub	sp, #5
                           00018C   380 	C$stm8s_uart2.c$219$1_0$360 ==.
                                    381 ;	../common/STM8S_StdPeriph_Lib/src/stm8s_uart2.c: 219: uartreg = (uint8_t)((uint16_t)UART2_IT >> 0x08);
      00018C 7B 08            [ 1]  382 	ld	a, (0x08, sp)
      00018E 97               [ 1]  383 	ld	xl, a
                           00018F   384 	C$stm8s_uart2.c$222$1_0$360 ==.
                                    385 ;	../common/STM8S_StdPeriph_Lib/src/stm8s_uart2.c: 222: itpos = (uint8_t)((uint8_t)1 << (uint8_t)((uint8_t)UART2_IT & (uint8_t)0x0F));
      00018F 7B 09            [ 1]  386 	ld	a, (0x09, sp)
      000191 A4 0F            [ 1]  387 	and	a, #0x0f
      000193 88               [ 1]  388 	push	a
      000194 A6 01            [ 1]  389 	ld	a, #0x01
      000196 6B 06            [ 1]  390 	ld	(0x06, sp), a
      000198 84               [ 1]  391 	pop	a
      000199 4D               [ 1]  392 	tnz	a
      00019A 27 05            [ 1]  393 	jreq	00153$
      00019C                        394 00152$:
      00019C 08 05            [ 1]  395 	sll	(0x05, sp)
      00019E 4A               [ 1]  396 	dec	a
      00019F 26 FB            [ 1]  397 	jrne	00152$
      0001A1                        398 00153$:
                           0001A1   399 	C$stm8s_uart2.c$224$1_0$360 ==.
                                    400 ;	../common/STM8S_StdPeriph_Lib/src/stm8s_uart2.c: 224: if (NewState != DISABLE)
      0001A1 0D 0A            [ 1]  401 	tnz	(0x0a, sp)
      0001A3 27 38            [ 1]  402 	jreq	00120$
                           0001A5   403 	C$stm8s_uart2.c$227$2_0$361 ==.
                                    404 ;	../common/STM8S_StdPeriph_Lib/src/stm8s_uart2.c: 227: if (uartreg == 0x01)
      0001A5 9F               [ 1]  405 	ld	a, xl
      0001A6 4A               [ 1]  406 	dec	a
      0001A7 26 0B            [ 1]  407 	jrne	00108$
                           0001A9   408 	C$stm8s_uart2.c$229$3_0$362 ==.
                                    409 ;	../common/STM8S_StdPeriph_Lib/src/stm8s_uart2.c: 229: UART2->CR1 |= itpos;
      0001A9 C6 52 44         [ 1]  410 	ld	a, 0x5244
      0001AC 1A 05            [ 1]  411 	or	a, (0x05, sp)
      0001AE C7 52 44         [ 1]  412 	ld	0x5244, a
      0001B1 CCr02r25         [ 2]  413 	jp	00122$
      0001B4                        414 00108$:
                           0001B4   415 	C$stm8s_uart2.c$231$2_0$361 ==.
                                    416 ;	../common/STM8S_StdPeriph_Lib/src/stm8s_uart2.c: 231: else if (uartreg == 0x02)
      0001B4 9F               [ 1]  417 	ld	a, xl
      0001B5 A1 02            [ 1]  418 	cp	a, #0x02
      0001B7 26 0B            [ 1]  419 	jrne	00105$
                           0001B9   420 	C$stm8s_uart2.c$233$3_0$363 ==.
                                    421 ;	../common/STM8S_StdPeriph_Lib/src/stm8s_uart2.c: 233: UART2->CR2 |= itpos;
      0001B9 C6 52 45         [ 1]  422 	ld	a, 0x5245
      0001BC 1A 05            [ 1]  423 	or	a, (0x05, sp)
      0001BE C7 52 45         [ 1]  424 	ld	0x5245, a
      0001C1 CCr02r25         [ 2]  425 	jp	00122$
      0001C4                        426 00105$:
                           0001C4   427 	C$stm8s_uart2.c$235$2_0$361 ==.
                                    428 ;	../common/STM8S_StdPeriph_Lib/src/stm8s_uart2.c: 235: else if (uartreg == 0x03)
      0001C4 9F               [ 1]  429 	ld	a, xl
      0001C5 A1 03            [ 1]  430 	cp	a, #0x03
      0001C7 26 0A            [ 1]  431 	jrne	00102$
                           0001C9   432 	C$stm8s_uart2.c$237$3_0$364 ==.
                                    433 ;	../common/STM8S_StdPeriph_Lib/src/stm8s_uart2.c: 237: UART2->CR4 |= itpos;
      0001C9 C6 52 47         [ 1]  434 	ld	a, 0x5247
      0001CC 1A 05            [ 1]  435 	or	a, (0x05, sp)
      0001CE C7 52 47         [ 1]  436 	ld	0x5247, a
      0001D1 20 52            [ 2]  437 	jra	00122$
      0001D3                        438 00102$:
                           0001D3   439 	C$stm8s_uart2.c$241$3_0$365 ==.
                                    440 ;	../common/STM8S_StdPeriph_Lib/src/stm8s_uart2.c: 241: UART2->CR6 |= itpos;
      0001D3 C6 52 49         [ 1]  441 	ld	a, 0x5249
      0001D6 1A 05            [ 1]  442 	or	a, (0x05, sp)
      0001D8 C7 52 49         [ 1]  443 	ld	0x5249, a
      0001DB 20 48            [ 2]  444 	jra	00122$
      0001DD                        445 00120$:
                           0001DD   446 	C$stm8s_uart2.c$247$2_0$366 ==.
                                    447 ;	../common/STM8S_StdPeriph_Lib/src/stm8s_uart2.c: 247: if (uartreg == 0x01)
      0001DD 9F               [ 1]  448 	ld	a, xl
      0001DE 4A               [ 1]  449 	dec	a
      0001DF 26 0F            [ 1]  450 	jrne	00117$
                           0001E1   451 	C$stm8s_uart2.c$249$3_0$367 ==.
                                    452 ;	../common/STM8S_StdPeriph_Lib/src/stm8s_uart2.c: 249: UART2->CR1 &= (uint8_t)(~itpos);
      0001E1 C6 52 44         [ 1]  453 	ld	a, 0x5244
      0001E4 6B 04            [ 1]  454 	ld	(0x04, sp), a
      0001E6 7B 05            [ 1]  455 	ld	a, (0x05, sp)
      0001E8 43               [ 1]  456 	cpl	a
      0001E9 14 04            [ 1]  457 	and	a, (0x04, sp)
      0001EB C7 52 44         [ 1]  458 	ld	0x5244, a
      0001EE 20 35            [ 2]  459 	jra	00122$
      0001F0                        460 00117$:
                           0001F0   461 	C$stm8s_uart2.c$251$2_0$366 ==.
                                    462 ;	../common/STM8S_StdPeriph_Lib/src/stm8s_uart2.c: 251: else if (uartreg == 0x02)
      0001F0 9F               [ 1]  463 	ld	a, xl
      0001F1 A1 02            [ 1]  464 	cp	a, #0x02
      0001F3 26 0F            [ 1]  465 	jrne	00114$
                           0001F5   466 	C$stm8s_uart2.c$253$3_0$368 ==.
                                    467 ;	../common/STM8S_StdPeriph_Lib/src/stm8s_uart2.c: 253: UART2->CR2 &= (uint8_t)(~itpos);
      0001F5 C6 52 45         [ 1]  468 	ld	a, 0x5245
      0001F8 6B 03            [ 1]  469 	ld	(0x03, sp), a
      0001FA 7B 05            [ 1]  470 	ld	a, (0x05, sp)
      0001FC 43               [ 1]  471 	cpl	a
      0001FD 14 03            [ 1]  472 	and	a, (0x03, sp)
      0001FF C7 52 45         [ 1]  473 	ld	0x5245, a
      000202 20 21            [ 2]  474 	jra	00122$
      000204                        475 00114$:
                           000204   476 	C$stm8s_uart2.c$255$2_0$366 ==.
                                    477 ;	../common/STM8S_StdPeriph_Lib/src/stm8s_uart2.c: 255: else if (uartreg == 0x03)
      000204 9F               [ 1]  478 	ld	a, xl
      000205 A1 03            [ 1]  479 	cp	a, #0x03
      000207 26 0F            [ 1]  480 	jrne	00111$
                           000209   481 	C$stm8s_uart2.c$257$3_0$369 ==.
                                    482 ;	../common/STM8S_StdPeriph_Lib/src/stm8s_uart2.c: 257: UART2->CR4 &= (uint8_t)(~itpos);
      000209 C6 52 47         [ 1]  483 	ld	a, 0x5247
      00020C 6B 01            [ 1]  484 	ld	(0x01, sp), a
      00020E 7B 05            [ 1]  485 	ld	a, (0x05, sp)
      000210 43               [ 1]  486 	cpl	a
      000211 14 01            [ 1]  487 	and	a, (0x01, sp)
      000213 C7 52 47         [ 1]  488 	ld	0x5247, a
      000216 20 0D            [ 2]  489 	jra	00122$
      000218                        490 00111$:
                           000218   491 	C$stm8s_uart2.c$261$3_0$370 ==.
                                    492 ;	../common/STM8S_StdPeriph_Lib/src/stm8s_uart2.c: 261: UART2->CR6 &= (uint8_t)(~itpos);
      000218 C6 52 49         [ 1]  493 	ld	a, 0x5249
      00021B 6B 02            [ 1]  494 	ld	(0x02, sp), a
      00021D 7B 05            [ 1]  495 	ld	a, (0x05, sp)
      00021F 43               [ 1]  496 	cpl	a
      000220 14 02            [ 1]  497 	and	a, (0x02, sp)
      000222 C7 52 49         [ 1]  498 	ld	0x5249, a
      000225                        499 00122$:
                           000225   500 	C$stm8s_uart2.c$264$1_0$360 ==.
                                    501 ;	../common/STM8S_StdPeriph_Lib/src/stm8s_uart2.c: 264: }
      000225 5B 05            [ 2]  502 	addw	sp, #5
                           000227   503 	C$stm8s_uart2.c$264$1_0$360 ==.
                           000227   504 	XG$UART2_ITConfig$0$0 ==.
      000227 81               [ 4]  505 	ret
                           000228   506 	G$UART2_IrDAConfig$0$0 ==.
                           000228   507 	C$stm8s_uart2.c$272$1_0$372 ==.
                                    508 ;	../common/STM8S_StdPeriph_Lib/src/stm8s_uart2.c: 272: void UART2_IrDAConfig(UART2_IrDAMode_TypeDef UART2_IrDAMode)
                                    509 ;	-----------------------------------------
                                    510 ;	 function UART2_IrDAConfig
                                    511 ;	-----------------------------------------
      000228                        512 _UART2_IrDAConfig:
                           000228   513 	C$stm8s_uart2.c$276$1_0$372 ==.
                                    514 ;	../common/STM8S_StdPeriph_Lib/src/stm8s_uart2.c: 276: if (UART2_IrDAMode != UART2_IRDAMODE_NORMAL)
      000228 0D 03            [ 1]  515 	tnz	(0x03, sp)
      00022A 27 06            [ 1]  516 	jreq	00102$
                           00022C   517 	C$stm8s_uart2.c$278$2_0$373 ==.
                                    518 ;	../common/STM8S_StdPeriph_Lib/src/stm8s_uart2.c: 278: UART2->CR5 |= UART2_CR5_IRLP;
      00022C 72 14 52 48      [ 1]  519 	bset	21064, #2
      000230 20 04            [ 2]  520 	jra	00104$
      000232                        521 00102$:
                           000232   522 	C$stm8s_uart2.c$282$2_0$374 ==.
                                    523 ;	../common/STM8S_StdPeriph_Lib/src/stm8s_uart2.c: 282: UART2->CR5 &= ((uint8_t)~UART2_CR5_IRLP);
      000232 72 15 52 48      [ 1]  524 	bres	21064, #2
      000236                        525 00104$:
                           000236   526 	C$stm8s_uart2.c$284$1_0$372 ==.
                                    527 ;	../common/STM8S_StdPeriph_Lib/src/stm8s_uart2.c: 284: }
                           000236   528 	C$stm8s_uart2.c$284$1_0$372 ==.
                           000236   529 	XG$UART2_IrDAConfig$0$0 ==.
      000236 81               [ 4]  530 	ret
                           000237   531 	G$UART2_IrDACmd$0$0 ==.
                           000237   532 	C$stm8s_uart2.c$292$1_0$376 ==.
                                    533 ;	../common/STM8S_StdPeriph_Lib/src/stm8s_uart2.c: 292: void UART2_IrDACmd(FunctionalState NewState)
                                    534 ;	-----------------------------------------
                                    535 ;	 function UART2_IrDACmd
                                    536 ;	-----------------------------------------
      000237                        537 _UART2_IrDACmd:
                           000237   538 	C$stm8s_uart2.c$297$1_0$376 ==.
                                    539 ;	../common/STM8S_StdPeriph_Lib/src/stm8s_uart2.c: 297: if (NewState != DISABLE)
      000237 0D 03            [ 1]  540 	tnz	(0x03, sp)
      000239 27 06            [ 1]  541 	jreq	00102$
                           00023B   542 	C$stm8s_uart2.c$300$2_0$377 ==.
                                    543 ;	../common/STM8S_StdPeriph_Lib/src/stm8s_uart2.c: 300: UART2->CR5 |= UART2_CR5_IREN;
      00023B 72 12 52 48      [ 1]  544 	bset	21064, #1
      00023F 20 04            [ 2]  545 	jra	00104$
      000241                        546 00102$:
                           000241   547 	C$stm8s_uart2.c$305$2_0$378 ==.
                                    548 ;	../common/STM8S_StdPeriph_Lib/src/stm8s_uart2.c: 305: UART2->CR5 &= ((uint8_t)~UART2_CR5_IREN);
      000241 72 13 52 48      [ 1]  549 	bres	21064, #1
      000245                        550 00104$:
                           000245   551 	C$stm8s_uart2.c$307$1_0$376 ==.
                                    552 ;	../common/STM8S_StdPeriph_Lib/src/stm8s_uart2.c: 307: }
                           000245   553 	C$stm8s_uart2.c$307$1_0$376 ==.
                           000245   554 	XG$UART2_IrDACmd$0$0 ==.
      000245 81               [ 4]  555 	ret
                           000246   556 	G$UART2_LINBreakDetectionConfig$0$0 ==.
                           000246   557 	C$stm8s_uart2.c$316$1_0$380 ==.
                                    558 ;	../common/STM8S_StdPeriph_Lib/src/stm8s_uart2.c: 316: void UART2_LINBreakDetectionConfig(UART2_LINBreakDetectionLength_TypeDef UART2_LINBreakDetectionLength)
                                    559 ;	-----------------------------------------
                                    560 ;	 function UART2_LINBreakDetectionConfig
                                    561 ;	-----------------------------------------
      000246                        562 _UART2_LINBreakDetectionConfig:
                           000246   563 	C$stm8s_uart2.c$321$1_0$380 ==.
                                    564 ;	../common/STM8S_StdPeriph_Lib/src/stm8s_uart2.c: 321: if (UART2_LINBreakDetectionLength != UART2_LINBREAKDETECTIONLENGTH_10BITS)
      000246 0D 03            [ 1]  565 	tnz	(0x03, sp)
      000248 27 06            [ 1]  566 	jreq	00102$
                           00024A   567 	C$stm8s_uart2.c$323$2_0$381 ==.
                                    568 ;	../common/STM8S_StdPeriph_Lib/src/stm8s_uart2.c: 323: UART2->CR4 |= UART2_CR4_LBDL;
      00024A 72 1A 52 47      [ 1]  569 	bset	21063, #5
      00024E 20 04            [ 2]  570 	jra	00104$
      000250                        571 00102$:
                           000250   572 	C$stm8s_uart2.c$327$2_0$382 ==.
                                    573 ;	../common/STM8S_StdPeriph_Lib/src/stm8s_uart2.c: 327: UART2->CR4 &= ((uint8_t)~UART2_CR4_LBDL);
      000250 72 1B 52 47      [ 1]  574 	bres	21063, #5
      000254                        575 00104$:
                           000254   576 	C$stm8s_uart2.c$329$1_0$380 ==.
                                    577 ;	../common/STM8S_StdPeriph_Lib/src/stm8s_uart2.c: 329: }
                           000254   578 	C$stm8s_uart2.c$329$1_0$380 ==.
                           000254   579 	XG$UART2_LINBreakDetectionConfig$0$0 ==.
      000254 81               [ 4]  580 	ret
                           000255   581 	G$UART2_LINConfig$0$0 ==.
                           000255   582 	C$stm8s_uart2.c$341$1_0$384 ==.
                                    583 ;	../common/STM8S_StdPeriph_Lib/src/stm8s_uart2.c: 341: void UART2_LINConfig(UART2_LinMode_TypeDef UART2_Mode, 
                                    584 ;	-----------------------------------------
                                    585 ;	 function UART2_LINConfig
                                    586 ;	-----------------------------------------
      000255                        587 _UART2_LINConfig:
                           000255   588 	C$stm8s_uart2.c$350$1_0$384 ==.
                                    589 ;	../common/STM8S_StdPeriph_Lib/src/stm8s_uart2.c: 350: if (UART2_Mode != UART2_LIN_MODE_MASTER)
      000255 0D 03            [ 1]  590 	tnz	(0x03, sp)
      000257 27 06            [ 1]  591 	jreq	00102$
                           000259   592 	C$stm8s_uart2.c$352$2_0$385 ==.
                                    593 ;	../common/STM8S_StdPeriph_Lib/src/stm8s_uart2.c: 352: UART2->CR6 |=  UART2_CR6_LSLV;
      000259 72 1A 52 49      [ 1]  594 	bset	21065, #5
      00025D 20 04            [ 2]  595 	jra	00103$
      00025F                        596 00102$:
                           00025F   597 	C$stm8s_uart2.c$356$2_0$386 ==.
                                    598 ;	../common/STM8S_StdPeriph_Lib/src/stm8s_uart2.c: 356: UART2->CR6 &= ((uint8_t)~UART2_CR6_LSLV);
      00025F 72 1B 52 49      [ 1]  599 	bres	21065, #5
      000263                        600 00103$:
                           000263   601 	C$stm8s_uart2.c$359$1_0$384 ==.
                                    602 ;	../common/STM8S_StdPeriph_Lib/src/stm8s_uart2.c: 359: if (UART2_Autosync != UART2_LIN_AUTOSYNC_DISABLE)
      000263 0D 04            [ 1]  603 	tnz	(0x04, sp)
      000265 27 06            [ 1]  604 	jreq	00105$
                           000267   605 	C$stm8s_uart2.c$361$2_0$387 ==.
                                    606 ;	../common/STM8S_StdPeriph_Lib/src/stm8s_uart2.c: 361: UART2->CR6 |=  UART2_CR6_LASE ;
      000267 72 18 52 49      [ 1]  607 	bset	21065, #4
      00026B 20 04            [ 2]  608 	jra	00106$
      00026D                        609 00105$:
                           00026D   610 	C$stm8s_uart2.c$365$2_0$388 ==.
                                    611 ;	../common/STM8S_StdPeriph_Lib/src/stm8s_uart2.c: 365: UART2->CR6 &= ((uint8_t)~ UART2_CR6_LASE );
      00026D 72 19 52 49      [ 1]  612 	bres	21065, #4
      000271                        613 00106$:
                           000271   614 	C$stm8s_uart2.c$368$1_0$384 ==.
                                    615 ;	../common/STM8S_StdPeriph_Lib/src/stm8s_uart2.c: 368: if (UART2_DivUp != UART2_LIN_DIVUP_LBRR1)
      000271 0D 05            [ 1]  616 	tnz	(0x05, sp)
      000273 27 06            [ 1]  617 	jreq	00108$
                           000275   618 	C$stm8s_uart2.c$370$2_0$389 ==.
                                    619 ;	../common/STM8S_StdPeriph_Lib/src/stm8s_uart2.c: 370: UART2->CR6 |=  UART2_CR6_LDUM;
      000275 72 1E 52 49      [ 1]  620 	bset	21065, #7
      000279 20 04            [ 2]  621 	jra	00110$
      00027B                        622 00108$:
                           00027B   623 	C$stm8s_uart2.c$374$2_0$390 ==.
                                    624 ;	../common/STM8S_StdPeriph_Lib/src/stm8s_uart2.c: 374: UART2->CR6 &= ((uint8_t)~ UART2_CR6_LDUM);
      00027B 72 1F 52 49      [ 1]  625 	bres	21065, #7
      00027F                        626 00110$:
                           00027F   627 	C$stm8s_uart2.c$376$1_0$384 ==.
                                    628 ;	../common/STM8S_StdPeriph_Lib/src/stm8s_uart2.c: 376: }
                           00027F   629 	C$stm8s_uart2.c$376$1_0$384 ==.
                           00027F   630 	XG$UART2_LINConfig$0$0 ==.
      00027F 81               [ 4]  631 	ret
                           000280   632 	G$UART2_LINCmd$0$0 ==.
                           000280   633 	C$stm8s_uart2.c$384$1_0$392 ==.
                                    634 ;	../common/STM8S_StdPeriph_Lib/src/stm8s_uart2.c: 384: void UART2_LINCmd(FunctionalState NewState)
                                    635 ;	-----------------------------------------
                                    636 ;	 function UART2_LINCmd
                                    637 ;	-----------------------------------------
      000280                        638 _UART2_LINCmd:
                           000280   639 	C$stm8s_uart2.c$388$1_0$392 ==.
                                    640 ;	../common/STM8S_StdPeriph_Lib/src/stm8s_uart2.c: 388: if (NewState != DISABLE)
      000280 0D 03            [ 1]  641 	tnz	(0x03, sp)
      000282 27 06            [ 1]  642 	jreq	00102$
                           000284   643 	C$stm8s_uart2.c$391$2_0$393 ==.
                                    644 ;	../common/STM8S_StdPeriph_Lib/src/stm8s_uart2.c: 391: UART2->CR3 |= UART2_CR3_LINEN;
      000284 72 1C 52 46      [ 1]  645 	bset	21062, #6
      000288 20 04            [ 2]  646 	jra	00104$
      00028A                        647 00102$:
                           00028A   648 	C$stm8s_uart2.c$396$2_0$394 ==.
                                    649 ;	../common/STM8S_StdPeriph_Lib/src/stm8s_uart2.c: 396: UART2->CR3 &= ((uint8_t)~UART2_CR3_LINEN);
      00028A 72 1D 52 46      [ 1]  650 	bres	21062, #6
      00028E                        651 00104$:
                           00028E   652 	C$stm8s_uart2.c$398$1_0$392 ==.
                                    653 ;	../common/STM8S_StdPeriph_Lib/src/stm8s_uart2.c: 398: }
                           00028E   654 	C$stm8s_uart2.c$398$1_0$392 ==.
                           00028E   655 	XG$UART2_LINCmd$0$0 ==.
      00028E 81               [ 4]  656 	ret
                           00028F   657 	G$UART2_SmartCardCmd$0$0 ==.
                           00028F   658 	C$stm8s_uart2.c$406$1_0$396 ==.
                                    659 ;	../common/STM8S_StdPeriph_Lib/src/stm8s_uart2.c: 406: void UART2_SmartCardCmd(FunctionalState NewState)
                                    660 ;	-----------------------------------------
                                    661 ;	 function UART2_SmartCardCmd
                                    662 ;	-----------------------------------------
      00028F                        663 _UART2_SmartCardCmd:
                           00028F   664 	C$stm8s_uart2.c$411$1_0$396 ==.
                                    665 ;	../common/STM8S_StdPeriph_Lib/src/stm8s_uart2.c: 411: if (NewState != DISABLE)
      00028F 0D 03            [ 1]  666 	tnz	(0x03, sp)
      000291 27 06            [ 1]  667 	jreq	00102$
                           000293   668 	C$stm8s_uart2.c$414$2_0$397 ==.
                                    669 ;	../common/STM8S_StdPeriph_Lib/src/stm8s_uart2.c: 414: UART2->CR5 |= UART2_CR5_SCEN;
      000293 72 1A 52 48      [ 1]  670 	bset	21064, #5
      000297 20 04            [ 2]  671 	jra	00104$
      000299                        672 00102$:
                           000299   673 	C$stm8s_uart2.c$419$2_0$398 ==.
                                    674 ;	../common/STM8S_StdPeriph_Lib/src/stm8s_uart2.c: 419: UART2->CR5 &= ((uint8_t)(~UART2_CR5_SCEN));
      000299 72 1B 52 48      [ 1]  675 	bres	21064, #5
      00029D                        676 00104$:
                           00029D   677 	C$stm8s_uart2.c$421$1_0$396 ==.
                                    678 ;	../common/STM8S_StdPeriph_Lib/src/stm8s_uart2.c: 421: }
                           00029D   679 	C$stm8s_uart2.c$421$1_0$396 ==.
                           00029D   680 	XG$UART2_SmartCardCmd$0$0 ==.
      00029D 81               [ 4]  681 	ret
                           00029E   682 	G$UART2_SmartCardNACKCmd$0$0 ==.
                           00029E   683 	C$stm8s_uart2.c$429$1_0$400 ==.
                                    684 ;	../common/STM8S_StdPeriph_Lib/src/stm8s_uart2.c: 429: void UART2_SmartCardNACKCmd(FunctionalState NewState)
                                    685 ;	-----------------------------------------
                                    686 ;	 function UART2_SmartCardNACKCmd
                                    687 ;	-----------------------------------------
      00029E                        688 _UART2_SmartCardNACKCmd:
                           00029E   689 	C$stm8s_uart2.c$434$1_0$400 ==.
                                    690 ;	../common/STM8S_StdPeriph_Lib/src/stm8s_uart2.c: 434: if (NewState != DISABLE)
      00029E 0D 03            [ 1]  691 	tnz	(0x03, sp)
      0002A0 27 06            [ 1]  692 	jreq	00102$
                           0002A2   693 	C$stm8s_uart2.c$437$2_0$401 ==.
                                    694 ;	../common/STM8S_StdPeriph_Lib/src/stm8s_uart2.c: 437: UART2->CR5 |= UART2_CR5_NACK;
      0002A2 72 18 52 48      [ 1]  695 	bset	21064, #4
      0002A6 20 04            [ 2]  696 	jra	00104$
      0002A8                        697 00102$:
                           0002A8   698 	C$stm8s_uart2.c$442$2_0$402 ==.
                                    699 ;	../common/STM8S_StdPeriph_Lib/src/stm8s_uart2.c: 442: UART2->CR5 &= ((uint8_t)~(UART2_CR5_NACK));
      0002A8 72 19 52 48      [ 1]  700 	bres	21064, #4
      0002AC                        701 00104$:
                           0002AC   702 	C$stm8s_uart2.c$444$1_0$400 ==.
                                    703 ;	../common/STM8S_StdPeriph_Lib/src/stm8s_uart2.c: 444: }
                           0002AC   704 	C$stm8s_uart2.c$444$1_0$400 ==.
                           0002AC   705 	XG$UART2_SmartCardNACKCmd$0$0 ==.
      0002AC 81               [ 4]  706 	ret
                           0002AD   707 	G$UART2_WakeUpConfig$0$0 ==.
                           0002AD   708 	C$stm8s_uart2.c$452$1_0$404 ==.
                                    709 ;	../common/STM8S_StdPeriph_Lib/src/stm8s_uart2.c: 452: void UART2_WakeUpConfig(UART2_WakeUp_TypeDef UART2_WakeUp)
                                    710 ;	-----------------------------------------
                                    711 ;	 function UART2_WakeUpConfig
                                    712 ;	-----------------------------------------
      0002AD                        713 _UART2_WakeUpConfig:
                           0002AD   714 	C$stm8s_uart2.c$456$1_0$404 ==.
                                    715 ;	../common/STM8S_StdPeriph_Lib/src/stm8s_uart2.c: 456: UART2->CR1 &= ((uint8_t)~UART2_CR1_WAKE);
      0002AD 72 17 52 44      [ 1]  716 	bres	21060, #3
                           0002B1   717 	C$stm8s_uart2.c$457$1_0$404 ==.
                                    718 ;	../common/STM8S_StdPeriph_Lib/src/stm8s_uart2.c: 457: UART2->CR1 |= (uint8_t)UART2_WakeUp;
      0002B1 C6 52 44         [ 1]  719 	ld	a, 0x5244
      0002B4 1A 03            [ 1]  720 	or	a, (0x03, sp)
      0002B6 C7 52 44         [ 1]  721 	ld	0x5244, a
                           0002B9   722 	C$stm8s_uart2.c$458$1_0$404 ==.
                                    723 ;	../common/STM8S_StdPeriph_Lib/src/stm8s_uart2.c: 458: }
                           0002B9   724 	C$stm8s_uart2.c$458$1_0$404 ==.
                           0002B9   725 	XG$UART2_WakeUpConfig$0$0 ==.
      0002B9 81               [ 4]  726 	ret
                           0002BA   727 	G$UART2_ReceiverWakeUpCmd$0$0 ==.
                           0002BA   728 	C$stm8s_uart2.c$466$1_0$406 ==.
                                    729 ;	../common/STM8S_StdPeriph_Lib/src/stm8s_uart2.c: 466: void UART2_ReceiverWakeUpCmd(FunctionalState NewState)
                                    730 ;	-----------------------------------------
                                    731 ;	 function UART2_ReceiverWakeUpCmd
                                    732 ;	-----------------------------------------
      0002BA                        733 _UART2_ReceiverWakeUpCmd:
                           0002BA   734 	C$stm8s_uart2.c$470$1_0$406 ==.
                                    735 ;	../common/STM8S_StdPeriph_Lib/src/stm8s_uart2.c: 470: if (NewState != DISABLE)
      0002BA 0D 03            [ 1]  736 	tnz	(0x03, sp)
      0002BC 27 06            [ 1]  737 	jreq	00102$
                           0002BE   738 	C$stm8s_uart2.c$473$2_0$407 ==.
                                    739 ;	../common/STM8S_StdPeriph_Lib/src/stm8s_uart2.c: 473: UART2->CR2 |= UART2_CR2_RWU;
      0002BE 72 12 52 45      [ 1]  740 	bset	21061, #1
      0002C2 20 04            [ 2]  741 	jra	00104$
      0002C4                        742 00102$:
                           0002C4   743 	C$stm8s_uart2.c$478$2_0$408 ==.
                                    744 ;	../common/STM8S_StdPeriph_Lib/src/stm8s_uart2.c: 478: UART2->CR2 &= ((uint8_t)~UART2_CR2_RWU);
      0002C4 72 13 52 45      [ 1]  745 	bres	21061, #1
      0002C8                        746 00104$:
                           0002C8   747 	C$stm8s_uart2.c$480$1_0$406 ==.
                                    748 ;	../common/STM8S_StdPeriph_Lib/src/stm8s_uart2.c: 480: }
                           0002C8   749 	C$stm8s_uart2.c$480$1_0$406 ==.
                           0002C8   750 	XG$UART2_ReceiverWakeUpCmd$0$0 ==.
      0002C8 81               [ 4]  751 	ret
                           0002C9   752 	G$UART2_ReceiveData8$0$0 ==.
                           0002C9   753 	C$stm8s_uart2.c$487$1_0$410 ==.
                                    754 ;	../common/STM8S_StdPeriph_Lib/src/stm8s_uart2.c: 487: uint8_t UART2_ReceiveData8(void)
                                    755 ;	-----------------------------------------
                                    756 ;	 function UART2_ReceiveData8
                                    757 ;	-----------------------------------------
      0002C9                        758 _UART2_ReceiveData8:
                           0002C9   759 	C$stm8s_uart2.c$489$1_0$410 ==.
                                    760 ;	../common/STM8S_StdPeriph_Lib/src/stm8s_uart2.c: 489: return ((uint8_t)UART2->DR);
      0002C9 C6 52 41         [ 1]  761 	ld	a, 0x5241
                           0002CC   762 	C$stm8s_uart2.c$490$1_0$410 ==.
                                    763 ;	../common/STM8S_StdPeriph_Lib/src/stm8s_uart2.c: 490: }
                           0002CC   764 	C$stm8s_uart2.c$490$1_0$410 ==.
                           0002CC   765 	XG$UART2_ReceiveData8$0$0 ==.
      0002CC 81               [ 4]  766 	ret
                           0002CD   767 	G$UART2_ReceiveData9$0$0 ==.
                           0002CD   768 	C$stm8s_uart2.c$497$1_0$412 ==.
                                    769 ;	../common/STM8S_StdPeriph_Lib/src/stm8s_uart2.c: 497: uint16_t UART2_ReceiveData9(void)
                                    770 ;	-----------------------------------------
                                    771 ;	 function UART2_ReceiveData9
                                    772 ;	-----------------------------------------
      0002CD                        773 _UART2_ReceiveData9:
      0002CD 52 02            [ 2]  774 	sub	sp, #2
                           0002CF   775 	C$stm8s_uart2.c$501$1_0$412 ==.
                                    776 ;	../common/STM8S_StdPeriph_Lib/src/stm8s_uart2.c: 501: temp = ((uint16_t)(((uint16_t)((uint16_t)UART2->CR1 & (uint16_t)UART2_CR1_R8)) << 1));
      0002CF C6 52 44         [ 1]  777 	ld	a, 0x5244
      0002D2 A4 80            [ 1]  778 	and	a, #0x80
      0002D4 97               [ 1]  779 	ld	xl, a
      0002D5 4F               [ 1]  780 	clr	a
      0002D6 95               [ 1]  781 	ld	xh, a
      0002D7 58               [ 2]  782 	sllw	x
                           0002D8   783 	C$stm8s_uart2.c$503$1_0$412 ==.
                                    784 ;	../common/STM8S_StdPeriph_Lib/src/stm8s_uart2.c: 503: return (uint16_t)((((uint16_t)UART2->DR) | temp) & ((uint16_t)0x01FF));
      0002D8 C6 52 41         [ 1]  785 	ld	a, 0x5241
      0002DB 6B 02            [ 1]  786 	ld	(0x02, sp), a
      0002DD 0F 01            [ 1]  787 	clr	(0x01, sp)
      0002DF 9F               [ 1]  788 	ld	a, xl
      0002E0 1A 02            [ 1]  789 	or	a, (0x02, sp)
      0002E2 02               [ 1]  790 	rlwa	x
      0002E3 1A 01            [ 1]  791 	or	a, (0x01, sp)
      0002E5 A4 01            [ 1]  792 	and	a, #0x01
      0002E7 95               [ 1]  793 	ld	xh, a
                           0002E8   794 	C$stm8s_uart2.c$504$1_0$412 ==.
                                    795 ;	../common/STM8S_StdPeriph_Lib/src/stm8s_uart2.c: 504: }
      0002E8 5B 02            [ 2]  796 	addw	sp, #2
                           0002EA   797 	C$stm8s_uart2.c$504$1_0$412 ==.
                           0002EA   798 	XG$UART2_ReceiveData9$0$0 ==.
      0002EA 81               [ 4]  799 	ret
                           0002EB   800 	G$UART2_SendData8$0$0 ==.
                           0002EB   801 	C$stm8s_uart2.c$511$1_0$414 ==.
                                    802 ;	../common/STM8S_StdPeriph_Lib/src/stm8s_uart2.c: 511: void UART2_SendData8(uint8_t Data)
                                    803 ;	-----------------------------------------
                                    804 ;	 function UART2_SendData8
                                    805 ;	-----------------------------------------
      0002EB                        806 _UART2_SendData8:
                           0002EB   807 	C$stm8s_uart2.c$514$1_0$414 ==.
                                    808 ;	../common/STM8S_StdPeriph_Lib/src/stm8s_uart2.c: 514: UART2->DR = Data;
      0002EB AE 52 41         [ 2]  809 	ldw	x, #0x5241
      0002EE 7B 03            [ 1]  810 	ld	a, (0x03, sp)
      0002F0 F7               [ 1]  811 	ld	(x), a
                           0002F1   812 	C$stm8s_uart2.c$515$1_0$414 ==.
                                    813 ;	../common/STM8S_StdPeriph_Lib/src/stm8s_uart2.c: 515: }
                           0002F1   814 	C$stm8s_uart2.c$515$1_0$414 ==.
                           0002F1   815 	XG$UART2_SendData8$0$0 ==.
      0002F1 81               [ 4]  816 	ret
                           0002F2   817 	G$UART2_SendData9$0$0 ==.
                           0002F2   818 	C$stm8s_uart2.c$522$1_0$416 ==.
                                    819 ;	../common/STM8S_StdPeriph_Lib/src/stm8s_uart2.c: 522: void UART2_SendData9(uint16_t Data)
                                    820 ;	-----------------------------------------
                                    821 ;	 function UART2_SendData9
                                    822 ;	-----------------------------------------
      0002F2                        823 _UART2_SendData9:
      0002F2 88               [ 1]  824 	push	a
                           0002F3   825 	C$stm8s_uart2.c$525$1_0$416 ==.
                                    826 ;	../common/STM8S_StdPeriph_Lib/src/stm8s_uart2.c: 525: UART2->CR1 &= ((uint8_t)~UART2_CR1_T8);                  
      0002F3 72 1D 52 44      [ 1]  827 	bres	21060, #6
                           0002F7   828 	C$stm8s_uart2.c$528$1_0$416 ==.
                                    829 ;	../common/STM8S_StdPeriph_Lib/src/stm8s_uart2.c: 528: UART2->CR1 |= (uint8_t)(((uint8_t)(Data >> 2)) & UART2_CR1_T8); 
      0002F7 C6 52 44         [ 1]  830 	ld	a, 0x5244
      0002FA 6B 01            [ 1]  831 	ld	(0x01, sp), a
      0002FC 1E 04            [ 2]  832 	ldw	x, (0x04, sp)
      0002FE 54               [ 2]  833 	srlw	x
      0002FF 54               [ 2]  834 	srlw	x
      000300 9F               [ 1]  835 	ld	a, xl
      000301 A4 40            [ 1]  836 	and	a, #0x40
      000303 1A 01            [ 1]  837 	or	a, (0x01, sp)
      000305 C7 52 44         [ 1]  838 	ld	0x5244, a
                           000308   839 	C$stm8s_uart2.c$531$1_0$416 ==.
                                    840 ;	../common/STM8S_StdPeriph_Lib/src/stm8s_uart2.c: 531: UART2->DR   = (uint8_t)(Data);                    
      000308 7B 05            [ 1]  841 	ld	a, (0x05, sp)
      00030A C7 52 41         [ 1]  842 	ld	0x5241, a
                           00030D   843 	C$stm8s_uart2.c$532$1_0$416 ==.
                                    844 ;	../common/STM8S_StdPeriph_Lib/src/stm8s_uart2.c: 532: }
      00030D 84               [ 1]  845 	pop	a
                           00030E   846 	C$stm8s_uart2.c$532$1_0$416 ==.
                           00030E   847 	XG$UART2_SendData9$0$0 ==.
      00030E 81               [ 4]  848 	ret
                           00030F   849 	G$UART2_SendBreak$0$0 ==.
                           00030F   850 	C$stm8s_uart2.c$539$1_0$418 ==.
                                    851 ;	../common/STM8S_StdPeriph_Lib/src/stm8s_uart2.c: 539: void UART2_SendBreak(void)
                                    852 ;	-----------------------------------------
                                    853 ;	 function UART2_SendBreak
                                    854 ;	-----------------------------------------
      00030F                        855 _UART2_SendBreak:
                           00030F   856 	C$stm8s_uart2.c$541$1_0$418 ==.
                                    857 ;	../common/STM8S_StdPeriph_Lib/src/stm8s_uart2.c: 541: UART2->CR2 |= UART2_CR2_SBK;
      00030F 72 10 52 45      [ 1]  858 	bset	21061, #0
                           000313   859 	C$stm8s_uart2.c$542$1_0$418 ==.
                                    860 ;	../common/STM8S_StdPeriph_Lib/src/stm8s_uart2.c: 542: }
                           000313   861 	C$stm8s_uart2.c$542$1_0$418 ==.
                           000313   862 	XG$UART2_SendBreak$0$0 ==.
      000313 81               [ 4]  863 	ret
                           000314   864 	G$UART2_SetAddress$0$0 ==.
                           000314   865 	C$stm8s_uart2.c$549$1_0$420 ==.
                                    866 ;	../common/STM8S_StdPeriph_Lib/src/stm8s_uart2.c: 549: void UART2_SetAddress(uint8_t UART2_Address)
                                    867 ;	-----------------------------------------
                                    868 ;	 function UART2_SetAddress
                                    869 ;	-----------------------------------------
      000314                        870 _UART2_SetAddress:
                           000314   871 	C$stm8s_uart2.c$555$1_0$420 ==.
                                    872 ;	../common/STM8S_StdPeriph_Lib/src/stm8s_uart2.c: 555: UART2->CR4 &= ((uint8_t)~UART2_CR4_ADD);
      000314 C6 52 47         [ 1]  873 	ld	a, 0x5247
      000317 A4 F0            [ 1]  874 	and	a, #0xf0
      000319 C7 52 47         [ 1]  875 	ld	0x5247, a
                           00031C   876 	C$stm8s_uart2.c$557$1_0$420 ==.
                                    877 ;	../common/STM8S_StdPeriph_Lib/src/stm8s_uart2.c: 557: UART2->CR4 |= UART2_Address;
      00031C C6 52 47         [ 1]  878 	ld	a, 0x5247
      00031F 1A 03            [ 1]  879 	or	a, (0x03, sp)
      000321 C7 52 47         [ 1]  880 	ld	0x5247, a
                           000324   881 	C$stm8s_uart2.c$558$1_0$420 ==.
                                    882 ;	../common/STM8S_StdPeriph_Lib/src/stm8s_uart2.c: 558: }
                           000324   883 	C$stm8s_uart2.c$558$1_0$420 ==.
                           000324   884 	XG$UART2_SetAddress$0$0 ==.
      000324 81               [ 4]  885 	ret
                           000325   886 	G$UART2_SetGuardTime$0$0 ==.
                           000325   887 	C$stm8s_uart2.c$566$1_0$422 ==.
                                    888 ;	../common/STM8S_StdPeriph_Lib/src/stm8s_uart2.c: 566: void UART2_SetGuardTime(uint8_t UART2_GuardTime)
                                    889 ;	-----------------------------------------
                                    890 ;	 function UART2_SetGuardTime
                                    891 ;	-----------------------------------------
      000325                        892 _UART2_SetGuardTime:
                           000325   893 	C$stm8s_uart2.c$569$1_0$422 ==.
                                    894 ;	../common/STM8S_StdPeriph_Lib/src/stm8s_uart2.c: 569: UART2->GTR = UART2_GuardTime;
      000325 AE 52 4A         [ 2]  895 	ldw	x, #0x524a
      000328 7B 03            [ 1]  896 	ld	a, (0x03, sp)
      00032A F7               [ 1]  897 	ld	(x), a
                           00032B   898 	C$stm8s_uart2.c$570$1_0$422 ==.
                                    899 ;	../common/STM8S_StdPeriph_Lib/src/stm8s_uart2.c: 570: }
                           00032B   900 	C$stm8s_uart2.c$570$1_0$422 ==.
                           00032B   901 	XG$UART2_SetGuardTime$0$0 ==.
      00032B 81               [ 4]  902 	ret
                           00032C   903 	G$UART2_SetPrescaler$0$0 ==.
                           00032C   904 	C$stm8s_uart2.c$594$1_0$424 ==.
                                    905 ;	../common/STM8S_StdPeriph_Lib/src/stm8s_uart2.c: 594: void UART2_SetPrescaler(uint8_t UART2_Prescaler)
                                    906 ;	-----------------------------------------
                                    907 ;	 function UART2_SetPrescaler
                                    908 ;	-----------------------------------------
      00032C                        909 _UART2_SetPrescaler:
                           00032C   910 	C$stm8s_uart2.c$597$1_0$424 ==.
                                    911 ;	../common/STM8S_StdPeriph_Lib/src/stm8s_uart2.c: 597: UART2->PSCR = UART2_Prescaler;
      00032C AE 52 4B         [ 2]  912 	ldw	x, #0x524b
      00032F 7B 03            [ 1]  913 	ld	a, (0x03, sp)
      000331 F7               [ 1]  914 	ld	(x), a
                           000332   915 	C$stm8s_uart2.c$598$1_0$424 ==.
                                    916 ;	../common/STM8S_StdPeriph_Lib/src/stm8s_uart2.c: 598: }
                           000332   917 	C$stm8s_uart2.c$598$1_0$424 ==.
                           000332   918 	XG$UART2_SetPrescaler$0$0 ==.
      000332 81               [ 4]  919 	ret
                           000333   920 	G$UART2_GetFlagStatus$0$0 ==.
                           000333   921 	C$stm8s_uart2.c$606$1_0$426 ==.
                                    922 ;	../common/STM8S_StdPeriph_Lib/src/stm8s_uart2.c: 606: FlagStatus UART2_GetFlagStatus(UART2_Flag_TypeDef UART2_FLAG)
                                    923 ;	-----------------------------------------
                                    924 ;	 function UART2_GetFlagStatus
                                    925 ;	-----------------------------------------
      000333                        926 _UART2_GetFlagStatus:
      000333 52 04            [ 2]  927 	sub	sp, #4
                           000335   928 	C$stm8s_uart2.c$614$1_0$426 ==.
                                    929 ;	../common/STM8S_StdPeriph_Lib/src/stm8s_uart2.c: 614: if (UART2_FLAG == UART2_FLAG_LBDF)
      000335 1E 07            [ 2]  930 	ldw	x, (0x07, sp)
      000337 A3 02 10         [ 2]  931 	cpw	x, #0x0210
      00033A 26 14            [ 1]  932 	jrne	00121$
                           00033C   933 	C$stm8s_uart2.c$616$2_0$427 ==.
                                    934 ;	../common/STM8S_StdPeriph_Lib/src/stm8s_uart2.c: 616: if ((UART2->CR4 & (uint8_t)UART2_FLAG) != (uint8_t)0x00)
      00033C C6 52 47         [ 1]  935 	ld	a, 0x5247
      00033F 6B 01            [ 1]  936 	ld	(0x01, sp), a
      000341 7B 08            [ 1]  937 	ld	a, (0x08, sp)
      000343 14 01            [ 1]  938 	and	a, (0x01, sp)
      000345 27 05            [ 1]  939 	jreq	00102$
                           000347   940 	C$stm8s_uart2.c$619$3_0$428 ==.
                                    941 ;	../common/STM8S_StdPeriph_Lib/src/stm8s_uart2.c: 619: status = SET;
      000347 A6 01            [ 1]  942 	ld	a, #0x01
      000349 CCr03r99         [ 2]  943 	jp	00122$
      00034C                        944 00102$:
                           00034C   945 	C$stm8s_uart2.c$624$3_0$429 ==.
                                    946 ;	../common/STM8S_StdPeriph_Lib/src/stm8s_uart2.c: 624: status = RESET;
      00034C 4F               [ 1]  947 	clr	a
      00034D CCr03r99         [ 2]  948 	jp	00122$
      000350                        949 00121$:
                           000350   950 	C$stm8s_uart2.c$627$1_0$426 ==.
                                    951 ;	../common/STM8S_StdPeriph_Lib/src/stm8s_uart2.c: 627: else if (UART2_FLAG == UART2_FLAG_SBK)
      000350 1E 07            [ 2]  952 	ldw	x, (0x07, sp)
      000352 A3 01 01         [ 2]  953 	cpw	x, #0x0101
      000355 26 12            [ 1]  954 	jrne	00118$
                           000357   955 	C$stm8s_uart2.c$629$2_0$430 ==.
                                    956 ;	../common/STM8S_StdPeriph_Lib/src/stm8s_uart2.c: 629: if ((UART2->CR2 & (uint8_t)UART2_FLAG) != (uint8_t)0x00)
      000357 C6 52 45         [ 1]  957 	ld	a, 0x5245
      00035A 6B 02            [ 1]  958 	ld	(0x02, sp), a
      00035C 7B 08            [ 1]  959 	ld	a, (0x08, sp)
      00035E 14 02            [ 1]  960 	and	a, (0x02, sp)
      000360 27 04            [ 1]  961 	jreq	00105$
                           000362   962 	C$stm8s_uart2.c$632$3_0$431 ==.
                                    963 ;	../common/STM8S_StdPeriph_Lib/src/stm8s_uart2.c: 632: status = SET;
      000362 A6 01            [ 1]  964 	ld	a, #0x01
      000364 20 33            [ 2]  965 	jra	00122$
      000366                        966 00105$:
                           000366   967 	C$stm8s_uart2.c$637$3_0$432 ==.
                                    968 ;	../common/STM8S_StdPeriph_Lib/src/stm8s_uart2.c: 637: status = RESET;
      000366 4F               [ 1]  969 	clr	a
      000367 20 30            [ 2]  970 	jra	00122$
      000369                        971 00118$:
                           000369   972 	C$stm8s_uart2.c$640$1_0$426 ==.
                                    973 ;	../common/STM8S_StdPeriph_Lib/src/stm8s_uart2.c: 640: else if ((UART2_FLAG == UART2_FLAG_LHDF) || (UART2_FLAG == UART2_FLAG_LSF))
      000369 1E 07            [ 2]  974 	ldw	x, (0x07, sp)
      00036B A3 03 02         [ 2]  975 	cpw	x, #0x0302
      00036E 27 07            [ 1]  976 	jreq	00113$
      000370 1E 07            [ 2]  977 	ldw	x, (0x07, sp)
      000372 A3 03 01         [ 2]  978 	cpw	x, #0x0301
      000375 26 12            [ 1]  979 	jrne	00114$
      000377                        980 00113$:
                           000377   981 	C$stm8s_uart2.c$642$2_0$433 ==.
                                    982 ;	../common/STM8S_StdPeriph_Lib/src/stm8s_uart2.c: 642: if ((UART2->CR6 & (uint8_t)UART2_FLAG) != (uint8_t)0x00)
      000377 C6 52 49         [ 1]  983 	ld	a, 0x5249
      00037A 6B 04            [ 1]  984 	ld	(0x04, sp), a
      00037C 7B 08            [ 1]  985 	ld	a, (0x08, sp)
      00037E 14 04            [ 1]  986 	and	a, (0x04, sp)
      000380 27 04            [ 1]  987 	jreq	00108$
                           000382   988 	C$stm8s_uart2.c$645$3_0$434 ==.
                                    989 ;	../common/STM8S_StdPeriph_Lib/src/stm8s_uart2.c: 645: status = SET;
      000382 A6 01            [ 1]  990 	ld	a, #0x01
      000384 20 13            [ 2]  991 	jra	00122$
      000386                        992 00108$:
                           000386   993 	C$stm8s_uart2.c$650$3_0$435 ==.
                                    994 ;	../common/STM8S_StdPeriph_Lib/src/stm8s_uart2.c: 650: status = RESET;
      000386 4F               [ 1]  995 	clr	a
      000387 20 10            [ 2]  996 	jra	00122$
      000389                        997 00114$:
                           000389   998 	C$stm8s_uart2.c$655$2_0$436 ==.
                                    999 ;	../common/STM8S_StdPeriph_Lib/src/stm8s_uart2.c: 655: if ((UART2->SR & (uint8_t)UART2_FLAG) != (uint8_t)0x00)
      000389 C6 52 40         [ 1] 1000 	ld	a, 0x5240
      00038C 6B 03            [ 1] 1001 	ld	(0x03, sp), a
      00038E 7B 08            [ 1] 1002 	ld	a, (0x08, sp)
      000390 14 03            [ 1] 1003 	and	a, (0x03, sp)
      000392 27 04            [ 1] 1004 	jreq	00111$
                           000394  1005 	C$stm8s_uart2.c$658$3_0$437 ==.
                                   1006 ;	../common/STM8S_StdPeriph_Lib/src/stm8s_uart2.c: 658: status = SET;
      000394 A6 01            [ 1] 1007 	ld	a, #0x01
      000396 20 01            [ 2] 1008 	jra	00122$
      000398                       1009 00111$:
                           000398  1010 	C$stm8s_uart2.c$663$3_0$438 ==.
                                   1011 ;	../common/STM8S_StdPeriph_Lib/src/stm8s_uart2.c: 663: status = RESET;
      000398 4F               [ 1] 1012 	clr	a
      000399                       1013 00122$:
                           000399  1014 	C$stm8s_uart2.c$668$1_0$426 ==.
                                   1015 ;	../common/STM8S_StdPeriph_Lib/src/stm8s_uart2.c: 668: return  status;
                           000399  1016 	C$stm8s_uart2.c$669$1_0$426 ==.
                                   1017 ;	../common/STM8S_StdPeriph_Lib/src/stm8s_uart2.c: 669: }
      000399 5B 04            [ 2] 1018 	addw	sp, #4
                           00039B  1019 	C$stm8s_uart2.c$669$1_0$426 ==.
                           00039B  1020 	XG$UART2_GetFlagStatus$0$0 ==.
      00039B 81               [ 4] 1021 	ret
                           00039C  1022 	G$UART2_ClearFlag$0$0 ==.
                           00039C  1023 	C$stm8s_uart2.c$699$1_0$440 ==.
                                   1024 ;	../common/STM8S_StdPeriph_Lib/src/stm8s_uart2.c: 699: void UART2_ClearFlag(UART2_Flag_TypeDef UART2_FLAG)
                                   1025 ;	-----------------------------------------
                                   1026 ;	 function UART2_ClearFlag
                                   1027 ;	-----------------------------------------
      00039C                       1028 _UART2_ClearFlag:
                           00039C  1029 	C$stm8s_uart2.c$704$1_0$440 ==.
                                   1030 ;	../common/STM8S_StdPeriph_Lib/src/stm8s_uart2.c: 704: if (UART2_FLAG == UART2_FLAG_RXNE)
      00039C 1E 03            [ 2] 1031 	ldw	x, (0x03, sp)
      00039E A3 00 20         [ 2] 1032 	cpw	x, #0x0020
      0003A1 26 06            [ 1] 1033 	jrne	00108$
                           0003A3  1034 	C$stm8s_uart2.c$706$2_0$441 ==.
                                   1035 ;	../common/STM8S_StdPeriph_Lib/src/stm8s_uart2.c: 706: UART2->SR = (uint8_t)~(UART2_SR_RXNE);
      0003A3 35 DF 52 40      [ 1] 1036 	mov	0x5240+0, #0xdf
      0003A7 20 1E            [ 2] 1037 	jra	00110$
      0003A9                       1038 00108$:
                           0003A9  1039 	C$stm8s_uart2.c$709$1_0$440 ==.
                                   1040 ;	../common/STM8S_StdPeriph_Lib/src/stm8s_uart2.c: 709: else if (UART2_FLAG == UART2_FLAG_LBDF)
      0003A9 1E 03            [ 2] 1041 	ldw	x, (0x03, sp)
      0003AB A3 02 10         [ 2] 1042 	cpw	x, #0x0210
      0003AE 26 06            [ 1] 1043 	jrne	00105$
                           0003B0  1044 	C$stm8s_uart2.c$711$2_0$442 ==.
                                   1045 ;	../common/STM8S_StdPeriph_Lib/src/stm8s_uart2.c: 711: UART2->CR4 &= (uint8_t)(~UART2_CR4_LBDF);
      0003B0 72 19 52 47      [ 1] 1046 	bres	21063, #4
      0003B4 20 11            [ 2] 1047 	jra	00110$
      0003B6                       1048 00105$:
                           0003B6  1049 	C$stm8s_uart2.c$714$1_0$440 ==.
                                   1050 ;	../common/STM8S_StdPeriph_Lib/src/stm8s_uart2.c: 714: else if (UART2_FLAG == UART2_FLAG_LHDF)
      0003B6 1E 03            [ 2] 1051 	ldw	x, (0x03, sp)
      0003B8 A3 03 02         [ 2] 1052 	cpw	x, #0x0302
      0003BB 26 06            [ 1] 1053 	jrne	00102$
                           0003BD  1054 	C$stm8s_uart2.c$716$2_0$443 ==.
                                   1055 ;	../common/STM8S_StdPeriph_Lib/src/stm8s_uart2.c: 716: UART2->CR6 &= (uint8_t)(~UART2_CR6_LHDF);
      0003BD 72 13 52 49      [ 1] 1056 	bres	21065, #1
      0003C1 20 04            [ 2] 1057 	jra	00110$
      0003C3                       1058 00102$:
                           0003C3  1059 	C$stm8s_uart2.c$721$2_0$444 ==.
                                   1060 ;	../common/STM8S_StdPeriph_Lib/src/stm8s_uart2.c: 721: UART2->CR6 &= (uint8_t)(~UART2_CR6_LSF);
      0003C3 72 11 52 49      [ 1] 1061 	bres	21065, #0
      0003C7                       1062 00110$:
                           0003C7  1063 	C$stm8s_uart2.c$723$1_0$440 ==.
                                   1064 ;	../common/STM8S_StdPeriph_Lib/src/stm8s_uart2.c: 723: }
                           0003C7  1065 	C$stm8s_uart2.c$723$1_0$440 ==.
                           0003C7  1066 	XG$UART2_ClearFlag$0$0 ==.
      0003C7 81               [ 4] 1067 	ret
                           0003C8  1068 	G$UART2_GetITStatus$0$0 ==.
                           0003C8  1069 	C$stm8s_uart2.c$738$1_0$446 ==.
                                   1070 ;	../common/STM8S_StdPeriph_Lib/src/stm8s_uart2.c: 738: ITStatus UART2_GetITStatus(UART2_IT_TypeDef UART2_IT)
                                   1071 ;	-----------------------------------------
                                   1072 ;	 function UART2_GetITStatus
                                   1073 ;	-----------------------------------------
      0003C8                       1074 _UART2_GetITStatus:
      0003C8 52 02            [ 2] 1075 	sub	sp, #2
                           0003CA  1076 	C$stm8s_uart2.c$750$1_0$446 ==.
                                   1077 ;	../common/STM8S_StdPeriph_Lib/src/stm8s_uart2.c: 750: itpos = (uint8_t)((uint8_t)1 << (uint8_t)((uint8_t)UART2_IT & (uint8_t)0x0F));
      0003CA 7B 06            [ 1] 1078 	ld	a, (0x06, sp)
      0003CC 97               [ 1] 1079 	ld	xl, a
      0003CD A4 0F            [ 1] 1080 	and	a, #0x0f
      0003CF 88               [ 1] 1081 	push	a
      0003D0 A6 01            [ 1] 1082 	ld	a, #0x01
      0003D2 6B 02            [ 1] 1083 	ld	(0x02, sp), a
      0003D4 84               [ 1] 1084 	pop	a
      0003D5 4D               [ 1] 1085 	tnz	a
      0003D6 27 05            [ 1] 1086 	jreq	00184$
      0003D8                       1087 00183$:
      0003D8 08 01            [ 1] 1088 	sll	(0x01, sp)
      0003DA 4A               [ 1] 1089 	dec	a
      0003DB 26 FB            [ 1] 1090 	jrne	00183$
      0003DD                       1091 00184$:
                           0003DD  1092 	C$stm8s_uart2.c$752$1_0$446 ==.
                                   1093 ;	../common/STM8S_StdPeriph_Lib/src/stm8s_uart2.c: 752: itmask1 = (uint8_t)((uint8_t)UART2_IT >> (uint8_t)4);
      0003DD 9F               [ 1] 1094 	ld	a, xl
      0003DE 4E               [ 1] 1095 	swap	a
      0003DF A4 0F            [ 1] 1096 	and	a, #0x0f
                           0003E1  1097 	C$stm8s_uart2.c$754$1_0$446 ==.
                                   1098 ;	../common/STM8S_StdPeriph_Lib/src/stm8s_uart2.c: 754: itmask2 = (uint8_t)((uint8_t)1 << itmask1);
      0003E1 88               [ 1] 1099 	push	a
      0003E2 A6 01            [ 1] 1100 	ld	a, #0x01
      0003E4 6B 03            [ 1] 1101 	ld	(0x03, sp), a
      0003E6 84               [ 1] 1102 	pop	a
      0003E7 4D               [ 1] 1103 	tnz	a
      0003E8 27 05            [ 1] 1104 	jreq	00186$
      0003EA                       1105 00185$:
      0003EA 08 02            [ 1] 1106 	sll	(0x02, sp)
      0003EC 4A               [ 1] 1107 	dec	a
      0003ED 26 FB            [ 1] 1108 	jrne	00185$
      0003EF                       1109 00186$:
                           0003EF  1110 	C$stm8s_uart2.c$757$1_0$446 ==.
                                   1111 ;	../common/STM8S_StdPeriph_Lib/src/stm8s_uart2.c: 757: if (UART2_IT == UART2_IT_PE)
      0003EF 1E 05            [ 2] 1112 	ldw	x, (0x05, sp)
      0003F1 A3 01 00         [ 2] 1113 	cpw	x, #0x0100
      0003F4 26 1A            [ 1] 1114 	jrne	00124$
                           0003F6  1115 	C$stm8s_uart2.c$760$2_0$447 ==.
                                   1116 ;	../common/STM8S_StdPeriph_Lib/src/stm8s_uart2.c: 760: enablestatus = (uint8_t)((uint8_t)UART2->CR1 & itmask2);
      0003F6 C6 52 44         [ 1] 1117 	ld	a, 0x5244
      0003F9 14 02            [ 1] 1118 	and	a, (0x02, sp)
      0003FB 97               [ 1] 1119 	ld	xl, a
                           0003FC  1120 	C$stm8s_uart2.c$763$2_0$447 ==.
                                   1121 ;	../common/STM8S_StdPeriph_Lib/src/stm8s_uart2.c: 763: if (((UART2->SR & itpos) != (uint8_t)0x00) && enablestatus)
      0003FC C6 52 40         [ 1] 1122 	ld	a, 0x5240
      0003FF 14 01            [ 1] 1123 	and	a, (0x01, sp)
      000401 27 09            [ 1] 1124 	jreq	00102$
      000403 9F               [ 1] 1125 	ld	a, xl
      000404 4D               [ 1] 1126 	tnz	a
      000405 27 05            [ 1] 1127 	jreq	00102$
                           000407  1128 	C$stm8s_uart2.c$766$3_0$448 ==.
                                   1129 ;	../common/STM8S_StdPeriph_Lib/src/stm8s_uart2.c: 766: pendingbitstatus = SET;
      000407 A6 01            [ 1] 1130 	ld	a, #0x01
      000409 CCr04r64         [ 2] 1131 	jp	00125$
      00040C                       1132 00102$:
                           00040C  1133 	C$stm8s_uart2.c$771$3_0$449 ==.
                                   1134 ;	../common/STM8S_StdPeriph_Lib/src/stm8s_uart2.c: 771: pendingbitstatus = RESET;
      00040C 4F               [ 1] 1135 	clr	a
      00040D CCr04r64         [ 2] 1136 	jp	00125$
      000410                       1137 00124$:
                           000410  1138 	C$stm8s_uart2.c$774$1_0$446 ==.
                                   1139 ;	../common/STM8S_StdPeriph_Lib/src/stm8s_uart2.c: 774: else if (UART2_IT == UART2_IT_LBDF)
      000410 1E 05            [ 2] 1140 	ldw	x, (0x05, sp)
      000412 A3 03 46         [ 2] 1141 	cpw	x, #0x0346
      000415 26 18            [ 1] 1142 	jrne	00121$
                           000417  1143 	C$stm8s_uart2.c$777$2_0$450 ==.
                                   1144 ;	../common/STM8S_StdPeriph_Lib/src/stm8s_uart2.c: 777: enablestatus = (uint8_t)((uint8_t)UART2->CR4 & itmask2);
      000417 C6 52 47         [ 1] 1145 	ld	a, 0x5247
      00041A 14 02            [ 1] 1146 	and	a, (0x02, sp)
      00041C 97               [ 1] 1147 	ld	xl, a
                           00041D  1148 	C$stm8s_uart2.c$779$2_0$450 ==.
                                   1149 ;	../common/STM8S_StdPeriph_Lib/src/stm8s_uart2.c: 779: if (((UART2->CR4 & itpos) != (uint8_t)0x00) && enablestatus)
      00041D C6 52 47         [ 1] 1150 	ld	a, 0x5247
      000420 14 01            [ 1] 1151 	and	a, (0x01, sp)
      000422 27 08            [ 1] 1152 	jreq	00106$
      000424 9F               [ 1] 1153 	ld	a, xl
      000425 4D               [ 1] 1154 	tnz	a
      000426 27 04            [ 1] 1155 	jreq	00106$
                           000428  1156 	C$stm8s_uart2.c$782$3_0$451 ==.
                                   1157 ;	../common/STM8S_StdPeriph_Lib/src/stm8s_uart2.c: 782: pendingbitstatus = SET;
      000428 A6 01            [ 1] 1158 	ld	a, #0x01
      00042A 20 38            [ 2] 1159 	jra	00125$
      00042C                       1160 00106$:
                           00042C  1161 	C$stm8s_uart2.c$787$3_0$452 ==.
                                   1162 ;	../common/STM8S_StdPeriph_Lib/src/stm8s_uart2.c: 787: pendingbitstatus = RESET;
      00042C 4F               [ 1] 1163 	clr	a
      00042D 20 35            [ 2] 1164 	jra	00125$
      00042F                       1165 00121$:
                           00042F  1166 	C$stm8s_uart2.c$790$1_0$446 ==.
                                   1167 ;	../common/STM8S_StdPeriph_Lib/src/stm8s_uart2.c: 790: else if (UART2_IT == UART2_IT_LHDF)
      00042F 1E 05            [ 2] 1168 	ldw	x, (0x05, sp)
      000431 A3 04 12         [ 2] 1169 	cpw	x, #0x0412
      000434 26 18            [ 1] 1170 	jrne	00118$
                           000436  1171 	C$stm8s_uart2.c$793$2_0$453 ==.
                                   1172 ;	../common/STM8S_StdPeriph_Lib/src/stm8s_uart2.c: 793: enablestatus = (uint8_t)((uint8_t)UART2->CR6 & itmask2);
      000436 C6 52 49         [ 1] 1173 	ld	a, 0x5249
      000439 14 02            [ 1] 1174 	and	a, (0x02, sp)
      00043B 97               [ 1] 1175 	ld	xl, a
                           00043C  1176 	C$stm8s_uart2.c$795$2_0$453 ==.
                                   1177 ;	../common/STM8S_StdPeriph_Lib/src/stm8s_uart2.c: 795: if (((UART2->CR6 & itpos) != (uint8_t)0x00) && enablestatus)
      00043C C6 52 49         [ 1] 1178 	ld	a, 0x5249
      00043F 14 01            [ 1] 1179 	and	a, (0x01, sp)
      000441 27 08            [ 1] 1180 	jreq	00110$
      000443 9F               [ 1] 1181 	ld	a, xl
      000444 4D               [ 1] 1182 	tnz	a
      000445 27 04            [ 1] 1183 	jreq	00110$
                           000447  1184 	C$stm8s_uart2.c$798$3_0$454 ==.
                                   1185 ;	../common/STM8S_StdPeriph_Lib/src/stm8s_uart2.c: 798: pendingbitstatus = SET;
      000447 A6 01            [ 1] 1186 	ld	a, #0x01
      000449 20 19            [ 2] 1187 	jra	00125$
      00044B                       1188 00110$:
                           00044B  1189 	C$stm8s_uart2.c$803$3_0$455 ==.
                                   1190 ;	../common/STM8S_StdPeriph_Lib/src/stm8s_uart2.c: 803: pendingbitstatus = RESET;
      00044B 4F               [ 1] 1191 	clr	a
      00044C 20 16            [ 2] 1192 	jra	00125$
      00044E                       1193 00118$:
                           00044E  1194 	C$stm8s_uart2.c$809$2_0$456 ==.
                                   1195 ;	../common/STM8S_StdPeriph_Lib/src/stm8s_uart2.c: 809: enablestatus = (uint8_t)((uint8_t)UART2->CR2 & itmask2);
      00044E C6 52 45         [ 1] 1196 	ld	a, 0x5245
      000451 14 02            [ 1] 1197 	and	a, (0x02, sp)
      000453 97               [ 1] 1198 	ld	xl, a
                           000454  1199 	C$stm8s_uart2.c$811$2_0$456 ==.
                                   1200 ;	../common/STM8S_StdPeriph_Lib/src/stm8s_uart2.c: 811: if (((UART2->SR & itpos) != (uint8_t)0x00) && enablestatus)
      000454 C6 52 40         [ 1] 1201 	ld	a, 0x5240
      000457 14 01            [ 1] 1202 	and	a, (0x01, sp)
      000459 27 08            [ 1] 1203 	jreq	00114$
      00045B 9F               [ 1] 1204 	ld	a, xl
      00045C 4D               [ 1] 1205 	tnz	a
      00045D 27 04            [ 1] 1206 	jreq	00114$
                           00045F  1207 	C$stm8s_uart2.c$814$3_0$457 ==.
                                   1208 ;	../common/STM8S_StdPeriph_Lib/src/stm8s_uart2.c: 814: pendingbitstatus = SET;
      00045F A6 01            [ 1] 1209 	ld	a, #0x01
      000461 20 01            [ 2] 1210 	jra	00125$
      000463                       1211 00114$:
                           000463  1212 	C$stm8s_uart2.c$819$3_0$458 ==.
                                   1213 ;	../common/STM8S_StdPeriph_Lib/src/stm8s_uart2.c: 819: pendingbitstatus = RESET;
      000463 4F               [ 1] 1214 	clr	a
      000464                       1215 00125$:
                           000464  1216 	C$stm8s_uart2.c$823$1_0$446 ==.
                                   1217 ;	../common/STM8S_StdPeriph_Lib/src/stm8s_uart2.c: 823: return  pendingbitstatus;
                           000464  1218 	C$stm8s_uart2.c$824$1_0$446 ==.
                                   1219 ;	../common/STM8S_StdPeriph_Lib/src/stm8s_uart2.c: 824: }
      000464 5B 02            [ 2] 1220 	addw	sp, #2
                           000466  1221 	C$stm8s_uart2.c$824$1_0$446 ==.
                           000466  1222 	XG$UART2_GetITStatus$0$0 ==.
      000466 81               [ 4] 1223 	ret
                           000467  1224 	G$UART2_ClearITPendingBit$0$0 ==.
                           000467  1225 	C$stm8s_uart2.c$852$1_0$460 ==.
                                   1226 ;	../common/STM8S_StdPeriph_Lib/src/stm8s_uart2.c: 852: void UART2_ClearITPendingBit(UART2_IT_TypeDef UART2_IT)
                                   1227 ;	-----------------------------------------
                                   1228 ;	 function UART2_ClearITPendingBit
                                   1229 ;	-----------------------------------------
      000467                       1230 _UART2_ClearITPendingBit:
                           000467  1231 	C$stm8s_uart2.c$857$1_0$460 ==.
                                   1232 ;	../common/STM8S_StdPeriph_Lib/src/stm8s_uart2.c: 857: if (UART2_IT == UART2_IT_RXNE)
      000467 1E 03            [ 2] 1233 	ldw	x, (0x03, sp)
      000469 A3 02 55         [ 2] 1234 	cpw	x, #0x0255
      00046C 26 06            [ 1] 1235 	jrne	00105$
                           00046E  1236 	C$stm8s_uart2.c$859$2_0$461 ==.
                                   1237 ;	../common/STM8S_StdPeriph_Lib/src/stm8s_uart2.c: 859: UART2->SR = (uint8_t)~(UART2_SR_RXNE);
      00046E 35 DF 52 40      [ 1] 1238 	mov	0x5240+0, #0xdf
      000472 20 11            [ 2] 1239 	jra	00107$
      000474                       1240 00105$:
                           000474  1241 	C$stm8s_uart2.c$862$1_0$460 ==.
                                   1242 ;	../common/STM8S_StdPeriph_Lib/src/stm8s_uart2.c: 862: else if (UART2_IT == UART2_IT_LBDF)
      000474 1E 03            [ 2] 1243 	ldw	x, (0x03, sp)
      000476 A3 03 46         [ 2] 1244 	cpw	x, #0x0346
      000479 26 06            [ 1] 1245 	jrne	00102$
                           00047B  1246 	C$stm8s_uart2.c$864$2_0$462 ==.
                                   1247 ;	../common/STM8S_StdPeriph_Lib/src/stm8s_uart2.c: 864: UART2->CR4 &= (uint8_t)~(UART2_CR4_LBDF);
      00047B 72 19 52 47      [ 1] 1248 	bres	21063, #4
      00047F 20 04            [ 2] 1249 	jra	00107$
      000481                       1250 00102$:
                           000481  1251 	C$stm8s_uart2.c$869$2_0$463 ==.
                                   1252 ;	../common/STM8S_StdPeriph_Lib/src/stm8s_uart2.c: 869: UART2->CR6 &= (uint8_t)(~UART2_CR6_LHDF);
      000481 72 13 52 49      [ 1] 1253 	bres	21065, #1
      000485                       1254 00107$:
                           000485  1255 	C$stm8s_uart2.c$871$1_0$460 ==.
                                   1256 ;	../common/STM8S_StdPeriph_Lib/src/stm8s_uart2.c: 871: }
                           000485  1257 	C$stm8s_uart2.c$871$1_0$460 ==.
                           000485  1258 	XG$UART2_ClearITPendingBit$0$0 ==.
      000485 81               [ 4] 1259 	ret
                                   1260 	.area CODE
                                   1261 	.area CONST
                                   1262 	.area INITIALIZER
                                   1263 	.area CABS (ABS)
